
Seekfree_CH32V103R8T6_Opensource_Library.elf:     file format elf32-littleriscv
Seekfree_CH32V103R8T6_Opensource_Library.elf
architecture: riscv:rv32, flags 0x00000112:
EXEC_P, HAS_SYMS, D_PAGED
start address 0x00000000

Program Header:
    LOAD off    0x00001000 vaddr 0x00000000 paddr 0x00000000 align 2**12
         filesz 0x00005ef0 memsz 0x00005ef0 flags r-x
    LOAD off    0x00007000 vaddr 0x20000000 paddr 0x00005ef0 align 2**12
         filesz 0x000000a8 memsz 0x000001c8 flags rw-
    LOAD off    0x00007800 vaddr 0x20004800 paddr 0x20004800 align 2**12
         filesz 0x00000000 memsz 0x00000800 flags rw-

Sections:
Idx Name           Size      VMA       LMA       File off  Algn  Flags
  0 .init          00000038  00000000  00000000  00001000  2**1  CONTENTS, ALLOC, LOAD, READONLY, CODE
  1 .vector        00000108  00000038  00000038  00001038  2**1  CONTENTS, ALLOC, LOAD, READONLY, CODE
  2 .text          00005db0  00000140  00000140  00001140  2**2  CONTENTS, ALLOC, LOAD, READONLY, CODE
  3 .fini          00000000  00005ef0  00005ef0  000070a8  2**0  CONTENTS, ALLOC, LOAD, CODE
  4 .dalign        00000000  20000000  20000000  000070a8  2**0  CONTENTS
  5 .dlalign       00000000  00005ef0  00005ef0  000070a8  2**0  CONTENTS
  6 .data          000000a8  20000000  00005ef0  00007000  2**2  CONTENTS, ALLOC, LOAD, DATA
  7 .bss           00000120  200000a8  00005f98  000070a8  2**2  ALLOC
  8 .stack         00000800  20004800  20004800  00007800  2**0  ALLOC
  9 .debug_info    000281b8  00000000  00000000  000070a8  2**0  CONTENTS, READONLY, DEBUGGING
 10 .debug_abbrev  00006005  00000000  00000000  0002f260  2**0  CONTENTS, READONLY, DEBUGGING
 11 .debug_loc     000083b4  00000000  00000000  00035265  2**0  CONTENTS, READONLY, DEBUGGING
 12 .debug_aranges 00001048  00000000  00000000  0003d620  2**3  CONTENTS, READONLY, DEBUGGING
 13 .debug_ranges  00000e18  00000000  00000000  0003e668  2**3  CONTENTS, READONLY, DEBUGGING
 14 .debug_line    000151b3  00000000  00000000  0003f480  2**0  CONTENTS, READONLY, DEBUGGING
 15 .debug_str     00004f53  00000000  00000000  00054633  2**0  CONTENTS, READONLY, DEBUGGING
 16 .comment       00000033  00000000  00000000  00059586  2**0  CONTENTS, READONLY
 17 .debug_frame   0000331c  00000000  00000000  000595bc  2**2  CONTENTS, READONLY, DEBUGGING
 18 .stab          000000b4  00000000  00000000  0005c8d8  2**2  CONTENTS, READONLY, DEBUGGING
 19 .stabstr       00000183  00000000  00000000  0005c98c  2**0  CONTENTS, READONLY, DEBUGGING
SYMBOL TABLE:
00000000 l    d  .init	00000000 .init
00000038 l    d  .vector	00000000 .vector
00000140 l    d  .text	00000000 .text
00005ef0 l    d  .fini	00000000 .fini
20000000 l    d  .dalign	00000000 .dalign
00005ef0 l    d  .dlalign	00000000 .dlalign
20000000 l    d  .data	00000000 .data
200000a8 l    d  .bss	00000000 .bss
20004800 l    d  .stack	00000000 .stack
00000000 l    d  .debug_info	00000000 .debug_info
00000000 l    d  .debug_abbrev	00000000 .debug_abbrev
00000000 l    d  .debug_loc	00000000 .debug_loc
00000000 l    d  .debug_aranges	00000000 .debug_aranges
00000000 l    d  .debug_ranges	00000000 .debug_ranges
00000000 l    d  .debug_line	00000000 .debug_line
00000000 l    d  .debug_str	00000000 .debug_str
00000000 l    d  .comment	00000000 .comment
00000000 l    d  .debug_frame	00000000 .debug_frame
00000000 l    d  .stab	00000000 .stab
00000000 l    d  .stabstr	00000000 .stabstr
00000000 l    df *ABS*	00000000 ./Libraries/wch_libraries/Startup/startup_ch32v10x.o
00000038 l       .vector	00000000 _vector_base
00000000 l    df *ABS*	00000000 isr.c
00000000 l    df *ABS*	00000000 main.c
00000000 l    df *ABS*	00000000 ch32v10x_adc.c
00000000 l    df *ABS*	00000000 ch32v10x_dma.c
00000000 l    df *ABS*	00000000 ch32v10x_exti.c
00000000 l    df *ABS*	00000000 ch32v10x_gpio.c
00000000 l    df *ABS*	00000000 ch32v10x_misc.c
00000000 l    df *ABS*	00000000 ch32v10x_rcc.c
20000000 l     O .data	00000010 APBAHBPrescTable
20000070 l     O .data	00000004 ADCPrescTable
00000000 l    df *ABS*	00000000 ch32v10x_spi.c
00000000 l    df *ABS*	00000000 ch32v10x_tim.c
00000000 l    df *ABS*	00000000 ch32v10x_usart.c
00000000 l    df *ABS*	00000000 SEEKFREE_18TFT.c
000055d8 l     O .text	0000000f __func__.3213
00000000 l    df *ABS*	00000000 SEEKFREE_ICM20602.c
00000000 l    df *ABS*	00000000 SEEKFREE_MT9V03X.c
00000000 l    df *ABS*	00000000 SEEKFREE_UART_7725.c
00000000 l    df *ABS*	00000000 SEEKFREE_WIRELESS.c
00000000 l    df *ABS*	00000000 zf_adc.c
00000000 l    df *ABS*	00000000 zf_gpio.c
00000000 l    df *ABS*	00000000 zf_nvic.c
00000000 l    df *ABS*	00000000 zf_pwm.c
00000000 l    df *ABS*	00000000 zf_qtimer.c
00000000 l    df *ABS*	00000000 zf_spi.c
00005c74 l     O .text	0000000e __func__.3349
00000000 l    df *ABS*	00000000 zf_systick.c
00000000 l    df *ABS*	00000000 zf_uart.c
00000000 l    df *ABS*	00000000 board.c
00000000 l    df *ABS*	00000000 clock_config.c
00000000 l    df *ABS*	00000000 Serial_oscilloscope.c
00000000 l    df *ABS*	00000000 hcar_adc.c
00000000 l    df *ABS*	00000000 hcar_element.c
00000000 l    df *ABS*	00000000 hcar_gogogo.c
00000000 l    df *ABS*	00000000 hcar_init.c
00000000 l    df *ABS*	00000000 hcar_key.c
00000000 l    df *ABS*	00000000 hcar_motor.c
00000000 l    df *ABS*	00000000 hcar_uart.c
20000157 l     O .bss	00000001 uart_num.6060
00000000 l    df *ABS*	00000000 hcar_wireless.c
00000000 l    df *ABS*	00000000 addsf3.c
00000000 l    df *ABS*	00000000 gesf2.c
00000000 l    df *ABS*	00000000 lesf2.c
00000000 l    df *ABS*	00000000 mulsf3.c
00000000 l    df *ABS*	00000000 subsf3.c
00000000 l    df *ABS*	00000000 fixsfsi.c
00000000 l    df *ABS*	00000000 floatsisf.c
00000000 l    df *ABS*	00000000 libgcc2.c
00000000 l    df *ABS*	00000000 assert.c
00000000 l    df *ABS*	00000000 fprintf.c
00000000 l    df *ABS*	00000000 nano-vfprintf.c
000043f4 l     F .text	00000028 __sfputc_r
00000000 l    df *ABS*	00000000 nano-vfprintf_i.c
00000000 l    df *ABS*	00000000 wbuf.c
00000000 l    df *ABS*	00000000 wsetup.c
00000000 l    df *ABS*	00000000 abort.c
00000000 l    df *ABS*	00000000 fflush.c
00000000 l    df *ABS*	00000000 findfp.c
00004e2c l     F .text	0000006a std
00000000 l    df *ABS*	00000000 fwalk.c
00000000 l    df *ABS*	00000000 makebuf.c
00000000 l    df *ABS*	00000000 memchr.c
00000000 l    df *ABS*	00000000 nano-mallocr.c
00000000 l    df *ABS*	00000000 nano-mallocr.c
00000000 l    df *ABS*	00000000 sbrkr.c
00000000 l    df *ABS*	00000000 signal.c
00000000 l    df *ABS*	00000000 signalr.c
00000000 l    df *ABS*	00000000 stdio.c
00000000 l    df *ABS*	00000000 writer.c
00000000 l    df *ABS*	00000000 closer.c
00000000 l    df *ABS*	00000000 fstatr.c
00000000 l    df *ABS*	00000000 isattyr.c
00000000 l    df *ABS*	00000000 lseekr.c
00000000 l    df *ABS*	00000000 mlock.c
00000000 l    df *ABS*	00000000 readr.c
00000000 l    df *ABS*	00000000 close.c
00000000 l    df *ABS*	00000000 fstat.c
00000000 l    df *ABS*	00000000 getpid.c
00000000 l    df *ABS*	00000000 isatty.c
00000000 l    df *ABS*	00000000 kill.c
00000000 l    df *ABS*	00000000 lseek.c
00000000 l    df *ABS*	00000000 read.c
00000000 l    df *ABS*	00000000 sbrk.c
20000164 l     O .bss	00000004 heap_end.1518
00000000 l    df *ABS*	00000000 _exit.c
00000000 l    df *ABS*	00000000 SEEKFREE_FONT.c
00000000 l    df *ABS*	00000000 libgcc2.c
00000000 l    df *ABS*	00000000 impure.c
20000010 l     O .data	00000060 impure_data
00000000 l    df *ABS*	00000000 common.c
00000000 l    df *ABS*	00000000 middline.c
00000000 l    df *ABS*	00000000 reent.c
00000eae g     F .text	00000018 TIM_TimeBaseStructInit
000002de g     F .text	00000008 EXTI2_IRQHandler
000054dc g     F .text	00000028 _isatty_r
00002e02 g     F .text	00000036 hcar_init
00005578 g     F .text	0000000c _getpid
00002e72 g     F .text	00000102 hcar_key_get
20000158 g     O .bss	00000001 break_flag
00005504 g     F .text	0000002c _lseek_r
20000150 g     O .bss	00000002 slave_encoder_left
00001d26 g     F .text	00000052 gpio_interrupt_init
00005376 g     F .text	0000002a _kill_r
20000870 g       .data	00000000 __global_pointer$
20000140 g     O .bss	00000004 speed_out3
00001842 g     F .text	0000007a get_icm20602_gyro_spi
00000392 g     F .text	00000084 TIM1_CC_IRQHandler
200000fc g     O .bss	00000004 speed_error2
200000f0 g     O .bss	00000004 kd4
00005420 g     F .text	00000036 __sseek
00004ee6 g     F .text	0000006c __sinit
00004ab0 g     F .text	000000c0 __swbuf_r
0000051a g     F .text	0000000c HardFault_Handler
00004ea0 g     F .text	00000046 __sfmoreglue
00005532 g     F .text	00000002 __malloc_unlock
2000012c g     O .bss	00000004 speed_now_filter2
00000f4e g     F .text	00000012 TIM_OC1PreloadConfig
0000064e g     F .text	0000000a ADC_StartCalibration
000030f8 g     F .text	00000542 hcar_speed_control
000008fc g     F .text	000000ae NVIC_Init
200000c0 g     O .bss	00000004 sys_clk
200000c8 g     O .bss	00000002 host_encoder_left
00000516 g     F .text	00000004 NMI_Handler
000041f6 g     F .text	00000062 .hidden __fixsfsi
000002e6 g     F .text	00000004 EXTI3_IRQHandler
200001ac g     O .bss	0000000a speed_4
20000074 g     O .data	00000004 camera_type
00001264 g     F .text	0000003a lcd_writedata_16bit
0000118e g     F .text	0000000c USART_GetFlagStatus
000054b2 g     F .text	0000002a _fstat_r
00005c64 g     O .text	00000010 TIMERN
200001c4 g     O .bss	00000004 errno
200000a8 g       .bss	00000000 _sbss
00000800 g       *ABS*	00000000 __stack_size
200001b8 g     O .bss	0000000b temp_buff
2000007c g     O .data	00000004 ki2
200001a0 g     O .bss	0000000a speed_3
0000370a g     F .text	00000058 hcar_pid_wireless
00003e6e g     F .text	00000388 .hidden __subsf3
00002d58 g     F .text	000000aa hcar_gogogo
20000156 g     O .bss	00000001 uart_flag
200000b5 g     O .bss	00000001 ov7725_uart_finish_flag
00000eea g     F .text	0000001e TIM_CtrlPWMOutputs
000019b4 g     F .text	00000032 seekfree_wireless_init
00000628 g     F .text	00000014 ADC_Cmd
00004e96 g     F .text	0000000a _cleanup_r
00000836 g     F .text	0000009a GPIO_PinRemapConfig
000001e8 g     F .text	000000c2 EXTI0_IRQHandler
0000363a g     F .text	00000068 get_slave_data
00002ffa g     F .text	000000fe hcar_motor_control
00000ec6 g     F .text	00000024 TIM_Cmd
00000f8c g     F .text	0000001a TIM_OC4PreloadConfig
200000d8 g     O .bss	00000004 turn_sum
00001184 g     F .text	0000000a USART_ReceiveData
20000152 g     O .bss	00000002 slave_encoder_right
200000c6 g     O .bss	00000002 aim_z
00002a38 g     F .text	00000030 uart_putbuff
00005308 g     F .text	00000062 _raise_r
0000556c g     F .text	0000000c _fstat
00002714 g     F .text	000000fc spi_init
00004394 g     F .text	0000003a __assert_func
200000aa g     O .bss	00000002 icm_gyro_y
200000e2 g     O .bss	00000001 S_i
00000038 g       .init	00000000 _einit
00001dd8 g     F .text	00000018 sys_recover_irq
2000010c g     O .bss	00000004 speed_error_last2
0000101a g     F .text	0000000e TIM_ClearITPendingBit
00003b52 g     F .text	0000008c .hidden __lesf2
00000aae g     F .text	0000001e RCC_APB2PeriphClockCmd
0000190c g     F .text	00000016 mt9v03x_vsync
00005664 g     O .text	000005f0 tft_ascii
20000194 g     O .bss	0000000a speed_2
000002f6 g     F .text	00000004 ADC1_2_IRQHandler
000053a0 g     F .text	00000002 _getpid_r
2000013c g     O .bss	00000004 speed_out2
00000762 g     F .text	000000ca GPIO_Init
000009aa g     F .text	00000012 RCC_ADCCLKConfig
00001d88 g     F .text	00000050 nvic_init
0000063c g     F .text	0000000a ADC_ResetCalibration
0000111e g     F .text	00000020 USART_Cmd
00001672 g     F .text	0000009a lcd_showchar
000052e0 g     F .text	00000028 _sbrk_r
000019e6 g     F .text	00000132 adc_gpio_init
00000d7a g     F .text	000000b0 TIM_OC3Init
00005534 g     F .text	0000002c _read_r
000011e6 g     F .text	00000016 USART_ClearITPendingBit
200000ce g     O .bss	00000002 targetSpeed2
2000009c g     O .data	00000008 SPIN
0000129e g     F .text	00000104 lcd_set_region
00000acc g     F .text	0000001e RCC_APB1PeriphClockCmd
00005584 g     F .text	0000000c _isatty
0000235c g     F .text	00000130 timer_gpio_quad_init
200000a4 g     O .data	00000004 _global_impure_ptr
200000e3 g     O .bss	00000001 S_j
000036a2 g     F .text	00000068 data_analysis
2000007a g     O .data	00000001 key3_status
000004e4 g     F .text	00000032 DMA1_Channel4_IRQHandler
20000154 g     O .bss	00000002 slave_position
000013a2 g     F .text	0000004a lcd_clear
00000fd2 g     F .text	00000012 TIM_OC3FastConfig
00004c7c g     F .text	0000000e abort
20000130 g     O .bss	00000004 speed_now_filter3
000055b4 g     F .text	00000020 _sbrk
200000ca g     O .bss	00000002 host_encoder_right
20000120 g     O .bss	00000004 speed_error_last_last3
20000174 g     O .bss	00000014 encoder_str
00000660 g     F .text	00000020 DMA_GetFlagStatus
000004a4 g     F .text	00000040 USART3_IRQHandler
00000758 g     F .text	0000000a EXTI_ClearITPendingBit
00001814 g     F .text	0000002e icm_spi_r_reg_bytes
00000658 g     F .text	00000008 ADC_GetCalibrationStatus
200001c8 g       .bss	00000000 _ebss
0000119a g     F .text	0000004c USART_GetITStatus
00000c3e g     F .text	0000008a TIM_OC1Init
00000f7a g     F .text	00000012 TIM_OC3PreloadConfig
00000646 g     F .text	00000008 ADC_GetResetCalibrationStatus
200000e1 g     O .bss	00000001 key3_last_status
20000188 g     O .bss	0000000a speed_1
0000284a g     F .text	0000003e systick_delay
00003acc g     F .text	00000086 .hidden __gtsf2
00001938 g     F .text	00000050 ov7725_cof_uart_interrupt
00005cb4 g     O .text	00000010 UARTN
000020c6 g     F .text	00000206 pwm_init
000043ce g     F .text	00000026 fprintf
00000456 g     F .text	00000004 TIM4_IRQHandler
0000082c g     F .text	0000000a GPIO_WriteBit
20000144 g     O .bss	00000004 speed_out4
200000bc g     O .bss	00000001 ov7725_uart_receive_num
00005e90 g     O .text	00000020 __sf_fake_stderr
200001c8 g       .bss	00000000 end
0000248c g     F .text	00000104 timer_quad_init
20000094 g     O .data	00000004 kp4
00000ffe g     F .text	0000001c TIM_GetITStatus
000009bc g     F .text	000000f2 RCC_GetClocksFreq
000011fc g     F .text	00000034 lcd_writeIndex
20000124 g     O .bss	00000004 speed_error_last_last4
0000431e g     F .text	00000076 .hidden __clzsi2
0000441c g     F .text	00000044 __sfputs_r
0000294e g     F .text	000000ca uart_init
200000f8 g     O .bss	00000004 speed_error1
00005154 g     F .text	0000001a memchr
00001028 g     F .text	000000f6 USART_Init
0000516e g     F .text	000000a4 _free_r
00001d04 g     F .text	00000022 gpio_get
00000432 g     F .text	00000024 TIM3_IRQHandler
00001e18 g     F .text	00000014 EnableGlobalIRQ
00002888 g     F .text	000000c6 uart_gpio_init
00000346 g     F .text	0000004c TIM1_TRG_COM_IRQHandler
00000fa6 g     F .text	00000012 TIM_OC1FastConfig
0000199e g     F .text	00000016 ov7725_uart_dma
00000000 g       .init	00000000 _start
0000559c g     F .text	0000000c _lseek
200000bb g     O .bss	00000001 ov7725_uart_receive_flag
00000f60 g     F .text	0000001a TIM_OC2PreloadConfig
00001d78 g     F .text	00000010 close_all_irq
00004258 g     F .text	000000c6 .hidden __floatsisf
000002f2 g     F .text	00000004 EXTI15_10_IRQHandler
00005c54 g     O .text	00000010 GPION
00000cc8 g     F .text	000000b2 TIM_OC2Init
0000113e g     F .text	0000003c USART_ITConfig
0000069a g     F .text	000000a2 EXTI_Init
200000dd g     O .bss	00000001 key1_last_status
20000148 g     O .bss	00000002 speed_sum1
20000104 g     O .bss	00000004 speed_error4
0000548a g     F .text	00000028 _close_r
200000cc g     O .bss	00000002 targetSpeed1
20000000 g       .dalign	00000000 _data_vma
2000008c g     O .data	00000004 kp2
00000e2a g     F .text	00000084 TIM_OC4Init
20000138 g     O .bss	00000004 speed_out1
00004b70 g     F .text	0000010c __swsetup_r
000002ee g     F .text	00000004 EXTI9_5_IRQHandler
200000df g     O .bss	00000001 key2_last_status
00004f52 g     F .text	000000a0 __sfp
000008d0 g     F .text	0000002c GPIO_EXTILineConfig
00002aa4 g     F .text	0000003e board_init
000053a2 g     F .text	00000030 __sread
20000134 g     O .bss	00000004 speed_now_filter4
00005530 g     F .text	00000002 __malloc_lock
00004dc6 g     F .text	00000066 _fflush_r
20000118 g     O .bss	00000004 speed_error_last_last1
0000073c g     F .text	0000001c EXTI_GetITStatus
2000014e g     O .bss	00000002 speed_sum4
00005eb0 g     O .text	00000020 __sf_fake_stdin
20000084 g     O .data	00000004 ki4
00001922 g     F .text	00000016 mt9v03x_dma
00000140 g     F .text	000000a8 memset
000013ec g     F .text	00000286 lcd_init
00000526 g     F .text	00000010 main
20000088 g     O .data	00000004 kp1
200000f4 g     O .bss	00000004 ki1
00003b52 g     F .text	0000008c .hidden __ltsf2
00005456 g     F .text	00000006 __sclose
20000090 g     O .data	00000004 kp3
20000080 g     O .data	00000004 ki3
00005212 g     F .text	000000ce _malloc_r
00000fb8 g     F .text	0000001a TIM_OC2FastConfig
000002ea g     F .text	00000004 EXTI4_IRQHandler
2000011c g     O .bss	00000004 speed_error_last_last2
00003bde g     F .text	00000290 .hidden __mulsf3
00000b62 g     F .text	00000026 SPI_Cmd
00002f74 g     F .text	00000086 hcar_motor_init
00001df0 g     F .text	00000028 DisableGlobalIRQ
20000079 g     O .data	00000001 key2_status
00002b30 g     F .text	0000010c SystemInit
20000110 g     O .bss	00000004 speed_error_last3
20000100 g     O .bss	00000004 speed_error3
00005d14 g     O .text	00000100 .hidden __clz_tab
00000000 g       .init	00000000 _sinit
00003acc g     F .text	00000086 .hidden __gesf2
0000545c g     F .text	0000002e _write_r
200000b3 g     O .bss	00000001 receive_num
20000168 g     O .bss	0000000c irq_status
00004700 g     F .text	0000010c _printf_common
200000e4 g     O .bss	00000004 kd1
20000098 g     O .data	00000004 _impure_ptr
00000322 g     F .text	00000024 TIM1_UP_IRQHandler
00001b18 g     F .text	000000a0 adc_init
200000b0 g     O .bss	00000003 receive
00004c8a g     F .text	0000013c __sflush_r
20000108 g     O .bss	00000004 speed_error_last1
00001988 g     F .text	00000016 ov7725_uart_vsync
200000d4 g     O .bss	00000001 turn_over
200000dc g     O .bss	00000001 key1_flag
00000416 g     F .text	0000001c TIM2_IRQHandler
20005000 g       .stack	00000000 _eusrstack
00001758 g     F .text	000000bc lcd_showint16
200000b4 g     O .bss	00000001 uart_receive_flag
000022cc g     F .text	00000090 pwm_duty
000018bc g     F .text	00000050 mt9v03x_uart_callback
200000e0 g     O .bss	00000001 key3_flag
000005b0 g     F .text	00000028 ADC_DeInit
200000ae g     O .bss	00000001 mt9v03x_finish_flag
000002fa g     F .text	00000028 TIM1_BRK_IRQHandler
0000505e g     F .text	00000058 __swhatbuf_r
000005d8 g     F .text	00000050 ADC_Init
0000117a g     F .text	0000000a USART_SendData
000002aa g     F .text	00000034 EXTI1_IRQHandler
00002ae2 g     F .text	0000004e _write
200000a8 g       .data	00000000 _edata
200000c4 g     O .bss	00000002 aim_y
00001230 g     F .text	00000034 lcd_writeData
00000b88 g     F .text	000000b6 TIM_TimeBaseInit
00005ef0 g       .dlalign	00000000 _data_lma
0000170c g     F .text	0000004c lcd_showstr
0000045e g     F .text	00000046 USART2_IRQHandler
000053d2 g     F .text	0000004e __swrite
000043ce g     F .text	00000026 fiprintf
00004460 g     F .text	000002a0 _vfiprintf_r
00002810 g     F .text	0000003a spi_mosi
00004ff2 g     F .text	0000006c _fwalk_reent
00002d34 g     F .text	00000024 hcar_threefork30
00005590 g     F .text	0000000c _kill
00005ed0 g     O .text	00000020 __sf_fake_stdout
20000114 g     O .bss	00000004 speed_error_last4
2000014a g     O .bss	00000002 speed_sum2
20000159 g     O .bss	00000001 three_fork_flag
20000078 g     O .data	00000001 key1_status
00000680 g     F .text	0000001a DMA_ClearFlag
00002e38 g     F .text	0000003a hcar_key_init
000055a8 g     F .text	0000000c _read
00000536  w      .text	00000000 handle_reset
200000a8 g     O .bss	00000002 icm_gyro_x
00001e2c g     F .text	0000029a pwm_gpio_init
000055d4 g     F .text	00000002 _exit
200000e8 g     O .bss	00000004 kd2
00002590 g     F .text	00000016 timer_quad_get
00002c3c g     F .text	000000d6 Data_Send
0000045a g     F .text	00000004 USART1_IRQHandler
000050b6 g     F .text	0000009e __smakebuf_r
0000480c g     F .text	000002a4 _printf_i
00002d12 g     F .text	00000022 hcar_adc_init
20000160 g     O .bss	00000004 __malloc_sbrk_start
00000aea g     F .text	0000001e RCC_APB2PeriphResetCmd
00002a68 g     F .text	0000003c uart_rx_irq
00001cca g     F .text	0000003a gpio_set
00000b08 g     F .text	0000005a SPI_Init
000025b8 g     F .text	0000015c spi_gpio_init
000025a6 g     F .text	00000012 timer_quad_clear
200000de g     O .bss	00000001 key2_flag
00001bb8 g     F .text	00000112 gpio_init
2000015c g     O .bss	00000004 __malloc_free_list
00000f08 g     F .text	00000046 TIM_EncoderInterfaceConfig
00004460 g     F .text	000002a0 _vfprintf_r
200000d2 g     O .bss	00000002 targetSpeed4
200000d0 g     O .bss	00000002 targetSpeed3
200000ac g     O .bss	00000002 icm_gyro_z
00000fe4 g     F .text	0000001a TIM_OC4FastConfig
00002a18 g     F .text	00000020 uart_putchar
00003762 g     F .text	0000036a .hidden __addsf3
200000b8 g     O .bss	00000003 ov7725_uart_receive
20000128 g     O .bss	00000004 speed_now_filter1
200000ec g     O .bss	00000004 kd3
00005560 g     F .text	0000000c _close
0000536a g     F .text	0000000c raise
2000014c g     O .bss	00000002 speed_sum3



Disassembly of section .init:

00000000 <_sinit>:
_start():
D:\1.intelligent vehicle\new try\seefree\Seekfree_CH32V103R8T6_Opensource_Library\obj/../Libraries/wch_libraries/Startup/startup_ch32v10x.S:13

	.section	.init,"ax",@progbits
	.global	_start
	.align	1
_start:
	j	handle_reset
   0:	5360006f          	j	536 <handle_reset>
   4:	00000013          	nop
   8:	00000013          	nop
   c:	00000013          	nop
  10:	00000013          	nop
  14:	00000013          	nop
  18:	00000013          	nop
  1c:	00000013          	nop
  20:	00000013          	nop
  24:	00000013          	nop
  28:	00000013          	nop
  2c:	00000013          	nop
  30:	00000013          	nop
  34:	00100073          	ebreak

Disassembly of section .vector:

00000038 <_vector_base>:
_vector_base():
D:\1.intelligent vehicle\new try\seefree\Seekfree_CH32V103R8T6_Opensource_Library\obj/../Libraries/wch_libraries/Startup/startup_ch32v10x.S:31
	.word 0x00100073
    .section    .vector,"ax",@progbits
    .align  1
_vector_base:
    .option norvc;
        j   _start
  38:	fc9ff06f          	j	0 <_sinit>
  3c:	0000                	unimp
  3e:	0000                	unimp
D:\1.intelligent vehicle\new try\seefree\Seekfree_CH32V103R8T6_Opensource_Library\obj/../Libraries/wch_libraries/Startup/startup_ch32v10x.S:33
    .word   0
        j   NMI_Handler                 /* NMI Handler */
  40:	4d60006f          	j	516 <NMI_Handler>
D:\1.intelligent vehicle\new try\seefree\Seekfree_CH32V103R8T6_Opensource_Library\obj/../Libraries/wch_libraries/Startup/startup_ch32v10x.S:34
        j   HardFault_Handler           /* Hard Fault Handler */
  44:	4d60006f          	j	51a <HardFault_Handler>
	...
D:\1.intelligent vehicle\new try\seefree\Seekfree_CH32V103R8T6_Opensource_Library\obj/../Libraries/wch_libraries/Startup/startup_ch32v10x.S:43
    .word   0
    .word   0
    .word   0
    .word   0
    .word   0
        j   SysTick_Handler            /* SysTick Handler */
  68:	f99ff06f          	j	0 <_sinit>
  6c:	0000                	unimp
  6e:	0000                	unimp
D:\1.intelligent vehicle\new try\seefree\Seekfree_CH32V103R8T6_Opensource_Library\obj/../Libraries/wch_libraries/Startup/startup_ch32v10x.S:45
    .word   0
        j   SW_handler                 /* SW Handler */
  70:	f91ff06f          	j	0 <_sinit>
  74:	0000                	unimp
  76:	0000                	unimp
D:\1.intelligent vehicle\new try\seefree\Seekfree_CH32V103R8T6_Opensource_Library\obj/../Libraries/wch_libraries/Startup/startup_ch32v10x.S:48
    .word   0
    /* External Interrupts */
        j   WWDG_IRQHandler            /* Window Watchdog */
  78:	f89ff06f          	j	0 <_sinit>
D:\1.intelligent vehicle\new try\seefree\Seekfree_CH32V103R8T6_Opensource_Library\obj/../Libraries/wch_libraries/Startup/startup_ch32v10x.S:49
        j   PVD_IRQHandler             /* PVD through EXTI Line detect */
  7c:	f85ff06f          	j	0 <_sinit>
D:\1.intelligent vehicle\new try\seefree\Seekfree_CH32V103R8T6_Opensource_Library\obj/../Libraries/wch_libraries/Startup/startup_ch32v10x.S:50
        j   TAMPER_IRQHandler          /* TAMPER */
  80:	f81ff06f          	j	0 <_sinit>
D:\1.intelligent vehicle\new try\seefree\Seekfree_CH32V103R8T6_Opensource_Library\obj/../Libraries/wch_libraries/Startup/startup_ch32v10x.S:51
        j   RTC_IRQHandler             /* RTC */
  84:	f7dff06f          	j	0 <_sinit>
D:\1.intelligent vehicle\new try\seefree\Seekfree_CH32V103R8T6_Opensource_Library\obj/../Libraries/wch_libraries/Startup/startup_ch32v10x.S:52
        j   FLASH_IRQHandler           /* Flash */
  88:	f79ff06f          	j	0 <_sinit>
D:\1.intelligent vehicle\new try\seefree\Seekfree_CH32V103R8T6_Opensource_Library\obj/../Libraries/wch_libraries/Startup/startup_ch32v10x.S:53
        j   RCC_IRQHandler             /* RCC */
  8c:	f75ff06f          	j	0 <_sinit>
D:\1.intelligent vehicle\new try\seefree\Seekfree_CH32V103R8T6_Opensource_Library\obj/../Libraries/wch_libraries/Startup/startup_ch32v10x.S:54
        j   EXTI0_IRQHandler           /* EXTI Line 0 */
  90:	1580006f          	j	1e8 <EXTI0_IRQHandler>
D:\1.intelligent vehicle\new try\seefree\Seekfree_CH32V103R8T6_Opensource_Library\obj/../Libraries/wch_libraries/Startup/startup_ch32v10x.S:55
        j   EXTI1_IRQHandler           /* EXTI Line 1 */
  94:	2160006f          	j	2aa <EXTI1_IRQHandler>
D:\1.intelligent vehicle\new try\seefree\Seekfree_CH32V103R8T6_Opensource_Library\obj/../Libraries/wch_libraries/Startup/startup_ch32v10x.S:56
        j   EXTI2_IRQHandler           /* EXTI Line 2 */
  98:	2460006f          	j	2de <EXTI2_IRQHandler>
D:\1.intelligent vehicle\new try\seefree\Seekfree_CH32V103R8T6_Opensource_Library\obj/../Libraries/wch_libraries/Startup/startup_ch32v10x.S:57
        j   EXTI3_IRQHandler           /* EXTI Line 3 */
  9c:	24a0006f          	j	2e6 <EXTI3_IRQHandler>
D:\1.intelligent vehicle\new try\seefree\Seekfree_CH32V103R8T6_Opensource_Library\obj/../Libraries/wch_libraries/Startup/startup_ch32v10x.S:58
        j   EXTI4_IRQHandler           /* EXTI Line 4 */
  a0:	24a0006f          	j	2ea <EXTI4_IRQHandler>
D:\1.intelligent vehicle\new try\seefree\Seekfree_CH32V103R8T6_Opensource_Library\obj/../Libraries/wch_libraries/Startup/startup_ch32v10x.S:59
        j   DMA1_Channel1_IRQHandler   /* DMA1 Channel 1 */
  a4:	f5dff06f          	j	0 <_sinit>
D:\1.intelligent vehicle\new try\seefree\Seekfree_CH32V103R8T6_Opensource_Library\obj/../Libraries/wch_libraries/Startup/startup_ch32v10x.S:60
        j   DMA1_Channel2_IRQHandler   /* DMA1 Channel 2 */
  a8:	f59ff06f          	j	0 <_sinit>
D:\1.intelligent vehicle\new try\seefree\Seekfree_CH32V103R8T6_Opensource_Library\obj/../Libraries/wch_libraries/Startup/startup_ch32v10x.S:61
        j   DMA1_Channel3_IRQHandler   /* DMA1 Channel 3 */
  ac:	f55ff06f          	j	0 <_sinit>
D:\1.intelligent vehicle\new try\seefree\Seekfree_CH32V103R8T6_Opensource_Library\obj/../Libraries/wch_libraries/Startup/startup_ch32v10x.S:62
        j   DMA1_Channel4_IRQHandler   /* DMA1 Channel 4 */
  b0:	4340006f          	j	4e4 <DMA1_Channel4_IRQHandler>
D:\1.intelligent vehicle\new try\seefree\Seekfree_CH32V103R8T6_Opensource_Library\obj/../Libraries/wch_libraries/Startup/startup_ch32v10x.S:63
        j   DMA1_Channel5_IRQHandler   /* DMA1 Channel 5 */
  b4:	f4dff06f          	j	0 <_sinit>
D:\1.intelligent vehicle\new try\seefree\Seekfree_CH32V103R8T6_Opensource_Library\obj/../Libraries/wch_libraries/Startup/startup_ch32v10x.S:64
        j   DMA1_Channel6_IRQHandler   /* DMA1 Channel 6 */
  b8:	f49ff06f          	j	0 <_sinit>
D:\1.intelligent vehicle\new try\seefree\Seekfree_CH32V103R8T6_Opensource_Library\obj/../Libraries/wch_libraries/Startup/startup_ch32v10x.S:65
        j   DMA1_Channel7_IRQHandler   /* DMA1 Channel 7 */
  bc:	f45ff06f          	j	0 <_sinit>
D:\1.intelligent vehicle\new try\seefree\Seekfree_CH32V103R8T6_Opensource_Library\obj/../Libraries/wch_libraries/Startup/startup_ch32v10x.S:66
        j   ADC1_2_IRQHandler          /* ADC1_2 */
  c0:	2360006f          	j	2f6 <ADC1_2_IRQHandler>
	...
D:\1.intelligent vehicle\new try\seefree\Seekfree_CH32V103R8T6_Opensource_Library\obj/../Libraries/wch_libraries/Startup/startup_ch32v10x.S:71
        .word   0
        .word   0
        .word   0
        .word   0
        j   EXTI9_5_IRQHandler         /* EXTI Line 9..5 */
  d4:	21a0006f          	j	2ee <EXTI9_5_IRQHandler>
D:\1.intelligent vehicle\new try\seefree\Seekfree_CH32V103R8T6_Opensource_Library\obj/../Libraries/wch_libraries/Startup/startup_ch32v10x.S:72
        j   TIM1_BRK_IRQHandler        /* TIM1 Break */
  d8:	2220006f          	j	2fa <TIM1_BRK_IRQHandler>
D:\1.intelligent vehicle\new try\seefree\Seekfree_CH32V103R8T6_Opensource_Library\obj/../Libraries/wch_libraries/Startup/startup_ch32v10x.S:73
        j   TIM1_UP_IRQHandler         /* TIM1 Update */
  dc:	2460006f          	j	322 <TIM1_UP_IRQHandler>
D:\1.intelligent vehicle\new try\seefree\Seekfree_CH32V103R8T6_Opensource_Library\obj/../Libraries/wch_libraries/Startup/startup_ch32v10x.S:74
        j   TIM1_TRG_COM_IRQHandler    /* TIM1 Trigger and Commutation */
  e0:	2660006f          	j	346 <TIM1_TRG_COM_IRQHandler>
D:\1.intelligent vehicle\new try\seefree\Seekfree_CH32V103R8T6_Opensource_Library\obj/../Libraries/wch_libraries/Startup/startup_ch32v10x.S:75
        j   TIM1_CC_IRQHandler         /* TIM1 Capture Compare */
  e4:	2ae0006f          	j	392 <TIM1_CC_IRQHandler>
D:\1.intelligent vehicle\new try\seefree\Seekfree_CH32V103R8T6_Opensource_Library\obj/../Libraries/wch_libraries/Startup/startup_ch32v10x.S:76
        j   TIM2_IRQHandler            /* TIM2 */
  e8:	32e0006f          	j	416 <TIM2_IRQHandler>
D:\1.intelligent vehicle\new try\seefree\Seekfree_CH32V103R8T6_Opensource_Library\obj/../Libraries/wch_libraries/Startup/startup_ch32v10x.S:77
        j   TIM3_IRQHandler            /* TIM3 */
  ec:	3460006f          	j	432 <TIM3_IRQHandler>
D:\1.intelligent vehicle\new try\seefree\Seekfree_CH32V103R8T6_Opensource_Library\obj/../Libraries/wch_libraries/Startup/startup_ch32v10x.S:78
        j   TIM4_IRQHandler            /* TIM4 */
  f0:	3660006f          	j	456 <TIM4_IRQHandler>
D:\1.intelligent vehicle\new try\seefree\Seekfree_CH32V103R8T6_Opensource_Library\obj/../Libraries/wch_libraries/Startup/startup_ch32v10x.S:79
        j   I2C1_EV_IRQHandler         /* I2C1 Event */
  f4:	f0dff06f          	j	0 <_sinit>
D:\1.intelligent vehicle\new try\seefree\Seekfree_CH32V103R8T6_Opensource_Library\obj/../Libraries/wch_libraries/Startup/startup_ch32v10x.S:80
        j   I2C1_ER_IRQHandler         /* I2C1 Error */
  f8:	f09ff06f          	j	0 <_sinit>
D:\1.intelligent vehicle\new try\seefree\Seekfree_CH32V103R8T6_Opensource_Library\obj/../Libraries/wch_libraries/Startup/startup_ch32v10x.S:81
        j   I2C2_EV_IRQHandler         /* I2C2 Event */
  fc:	f05ff06f          	j	0 <_sinit>
D:\1.intelligent vehicle\new try\seefree\Seekfree_CH32V103R8T6_Opensource_Library\obj/../Libraries/wch_libraries/Startup/startup_ch32v10x.S:82
        j   I2C2_ER_IRQHandler         /* I2C2 Error */
 100:	f01ff06f          	j	0 <_sinit>
D:\1.intelligent vehicle\new try\seefree\Seekfree_CH32V103R8T6_Opensource_Library\obj/../Libraries/wch_libraries/Startup/startup_ch32v10x.S:83
        j   SPI1_IRQHandler            /* SPI1 */
 104:	efdff06f          	j	0 <_sinit>
D:\1.intelligent vehicle\new try\seefree\Seekfree_CH32V103R8T6_Opensource_Library\obj/../Libraries/wch_libraries/Startup/startup_ch32v10x.S:84
        j   SPI2_IRQHandler            /* SPI2 */
 108:	ef9ff06f          	j	0 <_sinit>
D:\1.intelligent vehicle\new try\seefree\Seekfree_CH32V103R8T6_Opensource_Library\obj/../Libraries/wch_libraries/Startup/startup_ch32v10x.S:85
        j   USART1_IRQHandler          /* USART1 */
 10c:	34e0006f          	j	45a <USART1_IRQHandler>
D:\1.intelligent vehicle\new try\seefree\Seekfree_CH32V103R8T6_Opensource_Library\obj/../Libraries/wch_libraries/Startup/startup_ch32v10x.S:86
        j   USART2_IRQHandler          /* USART2 */
 110:	34e0006f          	j	45e <USART2_IRQHandler>
D:\1.intelligent vehicle\new try\seefree\Seekfree_CH32V103R8T6_Opensource_Library\obj/../Libraries/wch_libraries/Startup/startup_ch32v10x.S:87
        j   USART3_IRQHandler          /* USART3 */
 114:	3900006f          	j	4a4 <USART3_IRQHandler>
D:\1.intelligent vehicle\new try\seefree\Seekfree_CH32V103R8T6_Opensource_Library\obj/../Libraries/wch_libraries/Startup/startup_ch32v10x.S:88
        j   EXTI15_10_IRQHandler       /* EXTI Line 15..10 */
 118:	1da0006f          	j	2f2 <EXTI15_10_IRQHandler>
D:\1.intelligent vehicle\new try\seefree\Seekfree_CH32V103R8T6_Opensource_Library\obj/../Libraries/wch_libraries/Startup/startup_ch32v10x.S:89
        j   RTCAlarm_IRQHandler        /* RTC Alarm through EXTI Line */
 11c:	ee5ff06f          	j	0 <_sinit>
D:\1.intelligent vehicle\new try\seefree\Seekfree_CH32V103R8T6_Opensource_Library\obj/../Libraries/wch_libraries/Startup/startup_ch32v10x.S:90
        j   USBWakeUp_IRQHandler       /* USB Wakeup from suspend */
 120:	ee1ff06f          	j	0 <_sinit>
D:\1.intelligent vehicle\new try\seefree\Seekfree_CH32V103R8T6_Opensource_Library\obj/../Libraries/wch_libraries/Startup/startup_ch32v10x.S:91
        j   USBHD_IRQHandler           /* USBHD */
 124:	eddff06f          	j	0 <_sinit>
	...

Disassembly of section .text:

00000140 <memset>:
memset():
     140:	433d                	li	t1,15
     142:	872a                	mv	a4,a0
     144:	02c37363          	bgeu	t1,a2,16a <memset+0x2a>
     148:	00f77793          	andi	a5,a4,15
     14c:	efbd                	bnez	a5,1ca <memset+0x8a>
     14e:	e5ad                	bnez	a1,1b8 <memset+0x78>
     150:	ff067693          	andi	a3,a2,-16
     154:	8a3d                	andi	a2,a2,15
     156:	96ba                	add	a3,a3,a4
     158:	c30c                	sw	a1,0(a4)
     15a:	c34c                	sw	a1,4(a4)
     15c:	c70c                	sw	a1,8(a4)
     15e:	c74c                	sw	a1,12(a4)
     160:	0741                	addi	a4,a4,16
     162:	fed76be3          	bltu	a4,a3,158 <memset+0x18>
     166:	e211                	bnez	a2,16a <memset+0x2a>
     168:	8082                	ret
     16a:	40c306b3          	sub	a3,t1,a2
     16e:	068a                	slli	a3,a3,0x2
     170:	00000297          	auipc	t0,0x0
     174:	9696                	add	a3,a3,t0
     176:	00a68067          	jr	10(a3)
     17a:	00b70723          	sb	a1,14(a4)
     17e:	00b706a3          	sb	a1,13(a4)
     182:	00b70623          	sb	a1,12(a4)
     186:	00b705a3          	sb	a1,11(a4)
     18a:	00b70523          	sb	a1,10(a4)
     18e:	00b704a3          	sb	a1,9(a4)
     192:	00b70423          	sb	a1,8(a4)
     196:	00b703a3          	sb	a1,7(a4)
     19a:	00b70323          	sb	a1,6(a4)
     19e:	00b702a3          	sb	a1,5(a4)
     1a2:	00b70223          	sb	a1,4(a4)
     1a6:	00b701a3          	sb	a1,3(a4)
     1aa:	00b70123          	sb	a1,2(a4)
     1ae:	00b700a3          	sb	a1,1(a4)
     1b2:	00b70023          	sb	a1,0(a4)
     1b6:	8082                	ret
     1b8:	0ff5f593          	andi	a1,a1,255
     1bc:	00859693          	slli	a3,a1,0x8
     1c0:	8dd5                	or	a1,a1,a3
     1c2:	01059693          	slli	a3,a1,0x10
     1c6:	8dd5                	or	a1,a1,a3
     1c8:	b761                	j	150 <memset+0x10>
     1ca:	00279693          	slli	a3,a5,0x2
     1ce:	00000297          	auipc	t0,0x0
     1d2:	9696                	add	a3,a3,t0
     1d4:	8286                	mv	t0,ra
     1d6:	fa8680e7          	jalr	-88(a3)
     1da:	8096                	mv	ra,t0
     1dc:	17c1                	addi	a5,a5,-16
     1de:	8f1d                	sub	a4,a4,a5
     1e0:	963e                	add	a2,a2,a5
     1e2:	f8c374e3          	bgeu	t1,a2,16a <memset+0x2a>
     1e6:	b7a5                	j	14e <memset+0xe>

000001e8 <EXTI0_IRQHandler>:
EXTI0_IRQHandler():
D:\1.intelligent vehicle\new try\seefree\Seekfree_CH32V103R8T6_Opensource_Library\obj/../USER/isr.c:63
//void RTCAlarm_IRQHandler(void) __attribute__((interrupt("WCH-Interrupt-fast")));
//void USBWakeUp_IRQHandler(void) __attribute__((interrupt("WCH-Interrupt-fast")));
//void USBHD_IRQHandler(void) __attribute__((interrupt("WCH-Interrupt-fast")));

void EXTI0_IRQHandler(void)
{
     1e8:	1141                	addi	sp,sp,-16
     1ea:	c622                	sw	s0,12(sp)
D:\1.intelligent vehicle\new try\seefree\Seekfree_CH32V103R8T6_Opensource_Library\obj/../USER/isr.c:65
#ifdef DOUBLE_CORE_HOST
    if(SET == EXTI_GetITStatus(EXTI_Line0))
     1ec:	4505                	li	a0,1
     1ee:	23b9                	jal	73c <EXTI_GetITStatus>
     1f0:	4785                	li	a5,1
     1f2:	00f50663          	beq	a0,a5,1fe <EXTI0_IRQHandler+0x16>
D:\1.intelligent vehicle\new try\seefree\Seekfree_CH32V103R8T6_Opensource_Library\obj/../USER/isr.c:102
        hcar_pid_wireless();

    }
#endif

}
     1f6:	4432                	lw	s0,12(sp)
     1f8:	0141                	addi	sp,sp,16
     1fa:	30200073          	mret
D:\1.intelligent vehicle\new try\seefree\Seekfree_CH32V103R8T6_Opensource_Library\obj/../USER/isr.c:67
        EXTI_ClearITPendingBit(EXTI_Line0);
     1fe:	4505                	li	a0,1
     200:	2ba1                	jal	758 <EXTI_ClearITPendingBit>
D:\1.intelligent vehicle\new try\seefree\Seekfree_CH32V103R8T6_Opensource_Library\obj/../USER/isr.c:68
        if(uart_flag == E_OK)                           //等待接收数据
     202:	8e61c783          	lbu	a5,-1818(gp) # 20000156 <uart_flag>
     206:	0ff7f793          	andi	a5,a5,255
     20a:	4705                	li	a4,1
     20c:	08e78263          	beq	a5,a4,290 <EXTI0_IRQHandler+0xa8>
D:\1.intelligent vehicle\new try\seefree\Seekfree_CH32V103R8T6_Opensource_Library\obj/../USER/isr.c:74
        host_encoder_left=timer_quad_get(TIMER_2);//已校准
     210:	4505                	li	a0,1
     212:	37e020ef          	jal	ra,2590 <timer_quad_get>
     216:	84a19c23          	sh	a0,-1960(gp) # 200000c8 <host_encoder_left>
D:\1.intelligent vehicle\new try\seefree\Seekfree_CH32V103R8T6_Opensource_Library\obj/../USER/isr.c:75
        host_encoder_right=-timer_quad_get(TIMER_3);//已校准
     21a:	4509                	li	a0,2
     21c:	374020ef          	jal	ra,2590 <timer_quad_get>
     220:	40a00533          	neg	a0,a0
     224:	84a19d23          	sh	a0,-1958(gp) # 200000ca <host_encoder_right>
D:\1.intelligent vehicle\new try\seefree\Seekfree_CH32V103R8T6_Opensource_Library\obj/../USER/isr.c:76
        timer_quad_clear(TIMER_2);                  //清空计数器
     228:	4505                	li	a0,1
     22a:	37c020ef          	jal	ra,25a6 <timer_quad_clear>
D:\1.intelligent vehicle\new try\seefree\Seekfree_CH32V103R8T6_Opensource_Library\obj/../USER/isr.c:77
        timer_quad_clear(TIMER_3);                  //清空计数器
     22e:	4509                	li	a0,2
     230:	376020ef          	jal	ra,25a6 <timer_quad_clear>
D:\1.intelligent vehicle\new try\seefree\Seekfree_CH32V103R8T6_Opensource_Library\obj/../USER/isr.c:82
        if(host_encoder_left>1000||host_encoder_right>1000||slave_encoder_left>1000||slave_encoder_right>1000)
     234:	85819703          	lh	a4,-1960(gp) # 200000c8 <host_encoder_left>
     238:	3e800793          	li	a5,1000
     23c:	02e7c663          	blt	a5,a4,268 <EXTI0_IRQHandler+0x80>
D:\1.intelligent vehicle\new try\seefree\Seekfree_CH32V103R8T6_Opensource_Library\obj/../USER/isr.c:82 (discriminator 1)
     240:	85a19703          	lh	a4,-1958(gp) # 200000ca <host_encoder_right>
     244:	3e800793          	li	a5,1000
     248:	02e7c063          	blt	a5,a4,268 <EXTI0_IRQHandler+0x80>
D:\1.intelligent vehicle\new try\seefree\Seekfree_CH32V103R8T6_Opensource_Library\obj/../USER/isr.c:82 (discriminator 2)
     24c:	8e01d783          	lhu	a5,-1824(gp) # 20000150 <slave_encoder_left>
     250:	07c2                	slli	a5,a5,0x10
     252:	87c1                	srai	a5,a5,0x10
     254:	3e800713          	li	a4,1000
     258:	00f74863          	blt	a4,a5,268 <EXTI0_IRQHandler+0x80>
D:\1.intelligent vehicle\new try\seefree\Seekfree_CH32V103R8T6_Opensource_Library\obj/../USER/isr.c:82 (discriminator 3)
     25c:	8e21d783          	lhu	a5,-1822(gp) # 20000152 <slave_encoder_right>
     260:	07c2                	slli	a5,a5,0x10
     262:	87c1                	srai	a5,a5,0x10
     264:	00f75563          	bge	a4,a5,26e <EXTI0_IRQHandler+0x86>
D:\1.intelligent vehicle\new try\seefree\Seekfree_CH32V103R8T6_Opensource_Library\obj/../USER/isr.c:84
            break_flag=1;
     268:	4705                	li	a4,1
     26a:	8ee18423          	sb	a4,-1816(gp) # 20000158 <break_flag>
D:\1.intelligent vehicle\new try\seefree\Seekfree_CH32V103R8T6_Opensource_Library\obj/../USER/isr.c:88
        if(break_flag==1)
     26e:	8e81c783          	lbu	a5,-1816(gp) # 20000158 <break_flag>
     272:	0ff7f793          	andi	a5,a5,255
     276:	4705                	li	a4,1
     278:	02e78363          	beq	a5,a4,29e <EXTI0_IRQHandler+0xb6>
D:\1.intelligent vehicle\new try\seefree\Seekfree_CH32V103R8T6_Opensource_Library\obj/../USER/isr.c:94
            hcar_speed_control(0, aim_y, aim_z);
     27c:	85619603          	lh	a2,-1962(gp) # 200000c6 <aim_z>
     280:	85419583          	lh	a1,-1964(gp) # 200000c4 <aim_y>
     284:	4501                	li	a0,0
     286:	673020ef          	jal	ra,30f8 <hcar_speed_control>
D:\1.intelligent vehicle\new try\seefree\Seekfree_CH32V103R8T6_Opensource_Library\obj/../USER/isr.c:97
        hcar_pid_wireless();
     28a:	480030ef          	jal	ra,370a <hcar_pid_wireless>
D:\1.intelligent vehicle\new try\seefree\Seekfree_CH32V103R8T6_Opensource_Library\obj/../USER/isr.c:102
}
     28e:	b7a5                	j	1f6 <EXTI0_IRQHandler+0xe>
D:\1.intelligent vehicle\new try\seefree\Seekfree_CH32V103R8T6_Opensource_Library\obj/../USER/isr.c:70
            data_analysis(temp_buff);                   //数据解析
     290:	94818513          	addi	a0,gp,-1720 # 200001b8 <temp_buff>
     294:	40e030ef          	jal	ra,36a2 <data_analysis>
D:\1.intelligent vehicle\new try\seefree\Seekfree_CH32V103R8T6_Opensource_Library\obj/../USER/isr.c:71
            uart_flag = E_START;                        //清空标志位
     298:	8e018323          	sb	zero,-1818(gp) # 20000156 <uart_flag>
     29c:	bf95                	j	210 <EXTI0_IRQHandler+0x28>
D:\1.intelligent vehicle\new try\seefree\Seekfree_CH32V103R8T6_Opensource_Library\obj/../USER/isr.c:90
            hcar_speed_control(0,0,0);
     29e:	4601                	li	a2,0
     2a0:	4581                	li	a1,0
     2a2:	4501                	li	a0,0
     2a4:	655020ef          	jal	ra,30f8 <hcar_speed_control>
     2a8:	b7cd                	j	28a <EXTI0_IRQHandler+0xa2>

000002aa <EXTI1_IRQHandler>:
EXTI1_IRQHandler():
D:\1.intelligent vehicle\new try\seefree\Seekfree_CH32V103R8T6_Opensource_Library\obj/../USER/isr.c:106

void EXTI1_IRQHandler(void)
{
    if(SET == EXTI_GetITStatus(EXTI_Line1))
     2aa:	4509                	li	a0,2
     2ac:	2941                	jal	73c <EXTI_GetITStatus>
     2ae:	4785                	li	a5,1
     2b0:	00f50463          	beq	a0,a5,2b8 <EXTI1_IRQHandler+0xe>
D:\1.intelligent vehicle\new try\seefree\Seekfree_CH32V103R8T6_Opensource_Library\obj/../USER/isr.c:115
        else if(camera_type == CAMERA_GRAYSCALE)
            mt9v03x_vsync();
        EXTI_ClearITPendingBit(EXTI_Line1);
    }

}
     2b4:	30200073          	mret
D:\1.intelligent vehicle\new try\seefree\Seekfree_CH32V103R8T6_Opensource_Library\obj/../USER/isr.c:108
        if(camera_type == CAMERA_BIN_UART)
     2b8:	200007b7          	lui	a5,0x20000
     2bc:	0747a783          	lw	a5,116(a5) # 20000074 <camera_type>
     2c0:	4709                	li	a4,2
     2c2:	00e78863          	beq	a5,a4,2d2 <EXTI1_IRQHandler+0x28>
D:\1.intelligent vehicle\new try\seefree\Seekfree_CH32V103R8T6_Opensource_Library\obj/../USER/isr.c:110
        else if(camera_type == CAMERA_GRAYSCALE)
     2c6:	4705                	li	a4,1
     2c8:	00e78863          	beq	a5,a4,2d8 <EXTI1_IRQHandler+0x2e>
D:\1.intelligent vehicle\new try\seefree\Seekfree_CH32V103R8T6_Opensource_Library\obj/../USER/isr.c:112
        EXTI_ClearITPendingBit(EXTI_Line1);
     2cc:	4509                	li	a0,2
     2ce:	2169                	jal	758 <EXTI_ClearITPendingBit>
D:\1.intelligent vehicle\new try\seefree\Seekfree_CH32V103R8T6_Opensource_Library\obj/../USER/isr.c:115
}
     2d0:	b7d5                	j	2b4 <EXTI1_IRQHandler+0xa>
D:\1.intelligent vehicle\new try\seefree\Seekfree_CH32V103R8T6_Opensource_Library\obj/../USER/isr.c:109
            ov7725_uart_vsync();
     2d2:	6b6010ef          	jal	ra,1988 <ov7725_uart_vsync>
     2d6:	bfdd                	j	2cc <EXTI1_IRQHandler+0x22>
D:\1.intelligent vehicle\new try\seefree\Seekfree_CH32V103R8T6_Opensource_Library\obj/../USER/isr.c:111
            mt9v03x_vsync();
     2d8:	634010ef          	jal	ra,190c <mt9v03x_vsync>
     2dc:	bfc5                	j	2cc <EXTI1_IRQHandler+0x22>

000002de <EXTI2_IRQHandler>:
EXTI2_IRQHandler():
D:\1.intelligent vehicle\new try\seefree\Seekfree_CH32V103R8T6_Opensource_Library\obj/../USER/isr.c:119

void EXTI2_IRQHandler(void)
{
    EXTI_ClearITPendingBit(EXTI_Line2);
     2de:	4511                	li	a0,4
     2e0:	29a5                	jal	758 <EXTI_ClearITPendingBit>
D:\1.intelligent vehicle\new try\seefree\Seekfree_CH32V103R8T6_Opensource_Library\obj/../USER/isr.c:120
}
     2e2:	30200073          	mret

000002e6 <EXTI3_IRQHandler>:
EXTI3_IRQHandler():
D:\1.intelligent vehicle\new try\seefree\Seekfree_CH32V103R8T6_Opensource_Library\obj/../USER/isr.c:126

void EXTI3_IRQHandler(void)
{


}
     2e6:	30200073          	mret

000002ea <EXTI4_IRQHandler>:
EXTI4_IRQHandler():
D:\1.intelligent vehicle\new try\seefree\Seekfree_CH32V103R8T6_Opensource_Library\obj/../USER/isr.c:132

void EXTI4_IRQHandler(void)
{


}
     2ea:	30200073          	mret

000002ee <EXTI9_5_IRQHandler>:
EXTI9_5_IRQHandler():
D:\1.intelligent vehicle\new try\seefree\Seekfree_CH32V103R8T6_Opensource_Library\obj/../USER/isr.c:138

void EXTI9_5_IRQHandler(void)
{


}
     2ee:	30200073          	mret

000002f2 <EXTI15_10_IRQHandler>:
EXTI15_10_IRQHandler():
D:\1.intelligent vehicle\new try\seefree\Seekfree_CH32V103R8T6_Opensource_Library\obj/../USER/isr.c:143

void EXTI15_10_IRQHandler(void)
{

}
     2f2:	30200073          	mret

000002f6 <ADC1_2_IRQHandler>:
ADC1_2_IRQHandler():
D:\1.intelligent vehicle\new try\seefree\Seekfree_CH32V103R8T6_Opensource_Library\obj/../USER/isr.c:149

void ADC1_2_IRQHandler(void)
{


}
     2f6:	30200073          	mret

000002fa <TIM1_BRK_IRQHandler>:
TIM1_BRK_IRQHandler():
D:\1.intelligent vehicle\new try\seefree\Seekfree_CH32V103R8T6_Opensource_Library\obj/../USER/isr.c:153

void TIM1_BRK_IRQHandler(void)
{
    if(TIM_GetITStatus(TIM1, TIM_IT_Break) != RESET)
     2fa:	08000593          	li	a1,128
     2fe:	40013537          	lui	a0,0x40013
     302:	c0050513          	addi	a0,a0,-1024 # 40012c00 <_eusrstack+0x2000dc00>
     306:	4f9000ef          	jal	ra,ffe <TIM_GetITStatus>
     30a:	e119                	bnez	a0,310 <TIM1_BRK_IRQHandler+0x16>
D:\1.intelligent vehicle\new try\seefree\Seekfree_CH32V103R8T6_Opensource_Library\obj/../USER/isr.c:158
    {
        TIM_ClearITPendingBit(TIM1, TIM_IT_Break);

    }
}
     30c:	30200073          	mret
D:\1.intelligent vehicle\new try\seefree\Seekfree_CH32V103R8T6_Opensource_Library\obj/../USER/isr.c:155
        TIM_ClearITPendingBit(TIM1, TIM_IT_Break);
     310:	08000593          	li	a1,128
     314:	40013537          	lui	a0,0x40013
     318:	c0050513          	addi	a0,a0,-1024 # 40012c00 <_eusrstack+0x2000dc00>
     31c:	4ff000ef          	jal	ra,101a <TIM_ClearITPendingBit>
D:\1.intelligent vehicle\new try\seefree\Seekfree_CH32V103R8T6_Opensource_Library\obj/../USER/isr.c:158
}
     320:	b7f5                	j	30c <TIM1_BRK_IRQHandler+0x12>

00000322 <TIM1_UP_IRQHandler>:
TIM1_UP_IRQHandler():
D:\1.intelligent vehicle\new try\seefree\Seekfree_CH32V103R8T6_Opensource_Library\obj/../USER/isr.c:162

void TIM1_UP_IRQHandler(void)
{
    if(TIM_GetITStatus(TIM1, TIM_IT_Update) != RESET)
     322:	4585                	li	a1,1
     324:	40013537          	lui	a0,0x40013
     328:	c0050513          	addi	a0,a0,-1024 # 40012c00 <_eusrstack+0x2000dc00>
     32c:	4d3000ef          	jal	ra,ffe <TIM_GetITStatus>
     330:	e119                	bnez	a0,336 <TIM1_UP_IRQHandler+0x14>
D:\1.intelligent vehicle\new try\seefree\Seekfree_CH32V103R8T6_Opensource_Library\obj/../USER/isr.c:167
    {
        TIM_ClearITPendingBit(TIM1, TIM_IT_Update);

    }
}
     332:	30200073          	mret
D:\1.intelligent vehicle\new try\seefree\Seekfree_CH32V103R8T6_Opensource_Library\obj/../USER/isr.c:164
        TIM_ClearITPendingBit(TIM1, TIM_IT_Update);
     336:	4585                	li	a1,1
     338:	40013537          	lui	a0,0x40013
     33c:	c0050513          	addi	a0,a0,-1024 # 40012c00 <_eusrstack+0x2000dc00>
     340:	4db000ef          	jal	ra,101a <TIM_ClearITPendingBit>
D:\1.intelligent vehicle\new try\seefree\Seekfree_CH32V103R8T6_Opensource_Library\obj/../USER/isr.c:167
}
     344:	b7fd                	j	332 <TIM1_UP_IRQHandler+0x10>

00000346 <TIM1_TRG_COM_IRQHandler>:
TIM1_TRG_COM_IRQHandler():
D:\1.intelligent vehicle\new try\seefree\Seekfree_CH32V103R8T6_Opensource_Library\obj/../USER/isr.c:171

void TIM1_TRG_COM_IRQHandler(void)
{
    if(TIM_GetITStatus(TIM1, TIM_IT_Trigger) != RESET)
     346:	04000593          	li	a1,64
     34a:	40013537          	lui	a0,0x40013
     34e:	c0050513          	addi	a0,a0,-1024 # 40012c00 <_eusrstack+0x2000dc00>
     352:	4ad000ef          	jal	ra,ffe <TIM_GetITStatus>
     356:	ed01                	bnez	a0,36e <TIM1_TRG_COM_IRQHandler+0x28>
D:\1.intelligent vehicle\new try\seefree\Seekfree_CH32V103R8T6_Opensource_Library\obj/../USER/isr.c:176
    {
        TIM_ClearITPendingBit(TIM1, TIM_IT_Trigger);

    }
    if(TIM_GetITStatus(TIM1, TIM_IT_COM) != RESET)
     358:	02000593          	li	a1,32
     35c:	40013537          	lui	a0,0x40013
     360:	c0050513          	addi	a0,a0,-1024 # 40012c00 <_eusrstack+0x2000dc00>
     364:	49b000ef          	jal	ra,ffe <TIM_GetITStatus>
     368:	ed01                	bnez	a0,380 <TIM1_TRG_COM_IRQHandler+0x3a>
D:\1.intelligent vehicle\new try\seefree\Seekfree_CH32V103R8T6_Opensource_Library\obj/../USER/isr.c:181
    {
        TIM_ClearITPendingBit(TIM1, TIM_IT_COM);

    }
}
     36a:	30200073          	mret
D:\1.intelligent vehicle\new try\seefree\Seekfree_CH32V103R8T6_Opensource_Library\obj/../USER/isr.c:173
        TIM_ClearITPendingBit(TIM1, TIM_IT_Trigger);
     36e:	04000593          	li	a1,64
     372:	40013537          	lui	a0,0x40013
     376:	c0050513          	addi	a0,a0,-1024 # 40012c00 <_eusrstack+0x2000dc00>
     37a:	4a1000ef          	jal	ra,101a <TIM_ClearITPendingBit>
     37e:	bfe9                	j	358 <TIM1_TRG_COM_IRQHandler+0x12>
D:\1.intelligent vehicle\new try\seefree\Seekfree_CH32V103R8T6_Opensource_Library\obj/../USER/isr.c:178
        TIM_ClearITPendingBit(TIM1, TIM_IT_COM);
     380:	02000593          	li	a1,32
     384:	40013537          	lui	a0,0x40013
     388:	c0050513          	addi	a0,a0,-1024 # 40012c00 <_eusrstack+0x2000dc00>
     38c:	48f000ef          	jal	ra,101a <TIM_ClearITPendingBit>
D:\1.intelligent vehicle\new try\seefree\Seekfree_CH32V103R8T6_Opensource_Library\obj/../USER/isr.c:181
}
     390:	bfe9                	j	36a <TIM1_TRG_COM_IRQHandler+0x24>

00000392 <TIM1_CC_IRQHandler>:
TIM1_CC_IRQHandler():
D:\1.intelligent vehicle\new try\seefree\Seekfree_CH32V103R8T6_Opensource_Library\obj/../USER/isr.c:185

void TIM1_CC_IRQHandler(void)
{
    if(TIM_GetITStatus(TIM1, TIM_IT_CC1) != RESET)
     392:	4589                	li	a1,2
     394:	40013537          	lui	a0,0x40013
     398:	c0050513          	addi	a0,a0,-1024 # 40012c00 <_eusrstack+0x2000dc00>
     39c:	463000ef          	jal	ra,ffe <TIM_GetITStatus>
     3a0:	e91d                	bnez	a0,3d6 <TIM1_CC_IRQHandler+0x44>
D:\1.intelligent vehicle\new try\seefree\Seekfree_CH32V103R8T6_Opensource_Library\obj/../USER/isr.c:190
    {
        TIM_ClearITPendingBit(TIM1, TIM_IT_CC1);

    }
    if(TIM_GetITStatus(TIM1, TIM_IT_CC2) != RESET)
     3a2:	4591                	li	a1,4
     3a4:	40013537          	lui	a0,0x40013
     3a8:	c0050513          	addi	a0,a0,-1024 # 40012c00 <_eusrstack+0x2000dc00>
     3ac:	453000ef          	jal	ra,ffe <TIM_GetITStatus>
     3b0:	e91d                	bnez	a0,3e6 <TIM1_CC_IRQHandler+0x54>
D:\1.intelligent vehicle\new try\seefree\Seekfree_CH32V103R8T6_Opensource_Library\obj/../USER/isr.c:195
    {
        TIM_ClearITPendingBit(TIM1, TIM_IT_CC2);

    }
    if(TIM_GetITStatus(TIM1, TIM_IT_CC3) != RESET)
     3b2:	45a1                	li	a1,8
     3b4:	40013537          	lui	a0,0x40013
     3b8:	c0050513          	addi	a0,a0,-1024 # 40012c00 <_eusrstack+0x2000dc00>
     3bc:	443000ef          	jal	ra,ffe <TIM_GetITStatus>
     3c0:	e91d                	bnez	a0,3f6 <TIM1_CC_IRQHandler+0x64>
D:\1.intelligent vehicle\new try\seefree\Seekfree_CH32V103R8T6_Opensource_Library\obj/../USER/isr.c:200
    {
        TIM_ClearITPendingBit(TIM1, TIM_IT_CC3);

    }
    if(TIM_GetITStatus(TIM1, TIM_IT_CC4) != RESET)
     3c2:	45c1                	li	a1,16
     3c4:	40013537          	lui	a0,0x40013
     3c8:	c0050513          	addi	a0,a0,-1024 # 40012c00 <_eusrstack+0x2000dc00>
     3cc:	433000ef          	jal	ra,ffe <TIM_GetITStatus>
     3d0:	e91d                	bnez	a0,406 <TIM1_CC_IRQHandler+0x74>
D:\1.intelligent vehicle\new try\seefree\Seekfree_CH32V103R8T6_Opensource_Library\obj/../USER/isr.c:205
    {
        TIM_ClearITPendingBit(TIM1, TIM_IT_CC4);

    }
}
     3d2:	30200073          	mret
D:\1.intelligent vehicle\new try\seefree\Seekfree_CH32V103R8T6_Opensource_Library\obj/../USER/isr.c:187
        TIM_ClearITPendingBit(TIM1, TIM_IT_CC1);
     3d6:	4589                	li	a1,2
     3d8:	40013537          	lui	a0,0x40013
     3dc:	c0050513          	addi	a0,a0,-1024 # 40012c00 <_eusrstack+0x2000dc00>
     3e0:	43b000ef          	jal	ra,101a <TIM_ClearITPendingBit>
     3e4:	bf7d                	j	3a2 <TIM1_CC_IRQHandler+0x10>
D:\1.intelligent vehicle\new try\seefree\Seekfree_CH32V103R8T6_Opensource_Library\obj/../USER/isr.c:192
        TIM_ClearITPendingBit(TIM1, TIM_IT_CC2);
     3e6:	4591                	li	a1,4
     3e8:	40013537          	lui	a0,0x40013
     3ec:	c0050513          	addi	a0,a0,-1024 # 40012c00 <_eusrstack+0x2000dc00>
     3f0:	42b000ef          	jal	ra,101a <TIM_ClearITPendingBit>
     3f4:	bf7d                	j	3b2 <TIM1_CC_IRQHandler+0x20>
D:\1.intelligent vehicle\new try\seefree\Seekfree_CH32V103R8T6_Opensource_Library\obj/../USER/isr.c:197
        TIM_ClearITPendingBit(TIM1, TIM_IT_CC3);
     3f6:	45a1                	li	a1,8
     3f8:	40013537          	lui	a0,0x40013
     3fc:	c0050513          	addi	a0,a0,-1024 # 40012c00 <_eusrstack+0x2000dc00>
     400:	41b000ef          	jal	ra,101a <TIM_ClearITPendingBit>
     404:	bf7d                	j	3c2 <TIM1_CC_IRQHandler+0x30>
D:\1.intelligent vehicle\new try\seefree\Seekfree_CH32V103R8T6_Opensource_Library\obj/../USER/isr.c:202
        TIM_ClearITPendingBit(TIM1, TIM_IT_CC4);
     406:	45c1                	li	a1,16
     408:	40013537          	lui	a0,0x40013
     40c:	c0050513          	addi	a0,a0,-1024 # 40012c00 <_eusrstack+0x2000dc00>
     410:	40b000ef          	jal	ra,101a <TIM_ClearITPendingBit>
D:\1.intelligent vehicle\new try\seefree\Seekfree_CH32V103R8T6_Opensource_Library\obj/../USER/isr.c:205
}
     414:	bf7d                	j	3d2 <TIM1_CC_IRQHandler+0x40>

00000416 <TIM2_IRQHandler>:
TIM2_IRQHandler():
D:\1.intelligent vehicle\new try\seefree\Seekfree_CH32V103R8T6_Opensource_Library\obj/../USER/isr.c:210

void TIM2_IRQHandler(void)
{

    if(TIM_GetITStatus(TIM2, TIM_IT_Update) != RESET)
     416:	4585                	li	a1,1
     418:	40000537          	lui	a0,0x40000
     41c:	3e3000ef          	jal	ra,ffe <TIM_GetITStatus>
     420:	e119                	bnez	a0,426 <TIM2_IRQHandler+0x10>
D:\1.intelligent vehicle\new try\seefree\Seekfree_CH32V103R8T6_Opensource_Library\obj/../USER/isr.c:218
        //ccd_collect();//CCD数据采集
        //gpio_toggle(B5);
        //GPIO_PIN_RESET(B5);
        //GPIO_PIN_SET(B5);
    }
}
     422:	30200073          	mret
D:\1.intelligent vehicle\new try\seefree\Seekfree_CH32V103R8T6_Opensource_Library\obj/../USER/isr.c:212
        TIM_ClearITPendingBit(TIM2, TIM_IT_Update );
     426:	4585                	li	a1,1
     428:	40000537          	lui	a0,0x40000
     42c:	3ef000ef          	jal	ra,101a <TIM_ClearITPendingBit>
D:\1.intelligent vehicle\new try\seefree\Seekfree_CH32V103R8T6_Opensource_Library\obj/../USER/isr.c:218
}
     430:	bfcd                	j	422 <TIM2_IRQHandler+0xc>

00000432 <TIM3_IRQHandler>:
TIM3_IRQHandler():
D:\1.intelligent vehicle\new try\seefree\Seekfree_CH32V103R8T6_Opensource_Library\obj/../USER/isr.c:222

void TIM3_IRQHandler(void)
{
    if(TIM_GetITStatus(TIM3, TIM_IT_Update) != RESET)
     432:	4585                	li	a1,1
     434:	40000537          	lui	a0,0x40000
     438:	40050513          	addi	a0,a0,1024 # 40000400 <_eusrstack+0x1fffb400>
     43c:	3c3000ef          	jal	ra,ffe <TIM_GetITStatus>
     440:	e119                	bnez	a0,446 <TIM3_IRQHandler+0x14>
D:\1.intelligent vehicle\new try\seefree\Seekfree_CH32V103R8T6_Opensource_Library\obj/../USER/isr.c:227
    {
        TIM_ClearITPendingBit(TIM3, TIM_IT_Update );

    }
}
     442:	30200073          	mret
D:\1.intelligent vehicle\new try\seefree\Seekfree_CH32V103R8T6_Opensource_Library\obj/../USER/isr.c:224
        TIM_ClearITPendingBit(TIM3, TIM_IT_Update );
     446:	4585                	li	a1,1
     448:	40000537          	lui	a0,0x40000
     44c:	40050513          	addi	a0,a0,1024 # 40000400 <_eusrstack+0x1fffb400>
     450:	3cb000ef          	jal	ra,101a <TIM_ClearITPendingBit>
D:\1.intelligent vehicle\new try\seefree\Seekfree_CH32V103R8T6_Opensource_Library\obj/../USER/isr.c:227
}
     454:	b7fd                	j	442 <TIM3_IRQHandler+0x10>

00000456 <TIM4_IRQHandler>:
TIM4_IRQHandler():
D:\1.intelligent vehicle\new try\seefree\Seekfree_CH32V103R8T6_Opensource_Library\obj/../USER/isr.c:248
        GPIO_PIN_RESET(A0);                         //A0引脚拉低
        TIM_ClearITPendingBit(TIM4, TIM_IT_Update); //清除中断标志位
    }
#endif

}
     456:	30200073          	mret

0000045a <USART1_IRQHandler>:
USART1_IRQHandler():
D:\1.intelligent vehicle\new try\seefree\Seekfree_CH32V103R8T6_Opensource_Library\obj/../USER/isr.c:253

void USART1_IRQHandler(void)
{

}
     45a:	30200073          	mret

0000045e <USART2_IRQHandler>:
USART2_IRQHandler():
D:\1.intelligent vehicle\new try\seefree\Seekfree_CH32V103R8T6_Opensource_Library\obj/../USER/isr.c:257

void USART2_IRQHandler(void)
{
    if(USART_GetITStatus(USART2, USART_IT_RXNE) != RESET)
     45e:	52500593          	li	a1,1317
     462:	40004537          	lui	a0,0x40004
     466:	40050513          	addi	a0,a0,1024 # 40004400 <_eusrstack+0x1ffff400>
     46a:	531000ef          	jal	ra,119a <USART_GetITStatus>
     46e:	e119                	bnez	a0,474 <USART2_IRQHandler+0x16>
D:\1.intelligent vehicle\new try\seefree\Seekfree_CH32V103R8T6_Opensource_Library\obj/../USER/isr.c:265
        if(camera_type == CAMERA_BIN_UART)
            ov7725_cof_uart_interrupt();
        else if(camera_type == CAMERA_GRAYSCALE)
            mt9v03x_uart_callback();
    }
}
     470:	30200073          	mret
D:\1.intelligent vehicle\new try\seefree\Seekfree_CH32V103R8T6_Opensource_Library\obj/../USER/isr.c:259
        USART_ClearITPendingBit(USART2, USART_IT_RXNE);
     474:	52500593          	li	a1,1317
     478:	40004537          	lui	a0,0x40004
     47c:	40050513          	addi	a0,a0,1024 # 40004400 <_eusrstack+0x1ffff400>
     480:	567000ef          	jal	ra,11e6 <USART_ClearITPendingBit>
D:\1.intelligent vehicle\new try\seefree\Seekfree_CH32V103R8T6_Opensource_Library\obj/../USER/isr.c:260
        if(camera_type == CAMERA_BIN_UART)
     484:	200007b7          	lui	a5,0x20000
     488:	0747a783          	lw	a5,116(a5) # 20000074 <camera_type>
     48c:	4709                	li	a4,2
     48e:	00e78863          	beq	a5,a4,49e <USART2_IRQHandler+0x40>
D:\1.intelligent vehicle\new try\seefree\Seekfree_CH32V103R8T6_Opensource_Library\obj/../USER/isr.c:262
        else if(camera_type == CAMERA_GRAYSCALE)
     492:	4705                	li	a4,1
     494:	fce79ee3          	bne	a5,a4,470 <USART2_IRQHandler+0x12>
D:\1.intelligent vehicle\new try\seefree\Seekfree_CH32V103R8T6_Opensource_Library\obj/../USER/isr.c:263
            mt9v03x_uart_callback();
     498:	424010ef          	jal	ra,18bc <mt9v03x_uart_callback>
D:\1.intelligent vehicle\new try\seefree\Seekfree_CH32V103R8T6_Opensource_Library\obj/../USER/isr.c:265
}
     49c:	bfd1                	j	470 <USART2_IRQHandler+0x12>
D:\1.intelligent vehicle\new try\seefree\Seekfree_CH32V103R8T6_Opensource_Library\obj/../USER/isr.c:261
            ov7725_cof_uart_interrupt();
     49e:	49a010ef          	jal	ra,1938 <ov7725_cof_uart_interrupt>
     4a2:	b7f9                	j	470 <USART2_IRQHandler+0x12>

000004a4 <USART3_IRQHandler>:
USART3_IRQHandler():
D:\1.intelligent vehicle\new try\seefree\Seekfree_CH32V103R8T6_Opensource_Library\obj/../USER/isr.c:268

void USART3_IRQHandler(void)
{
     4a4:	1141                	addi	sp,sp,-16
     4a6:	c622                	sw	s0,12(sp)
D:\1.intelligent vehicle\new try\seefree\Seekfree_CH32V103R8T6_Opensource_Library\obj/../USER/isr.c:271
#ifdef DOUBLE_CORE_HOST
    uint8 dat;
    if(USART_GetITStatus(USART3, USART_IT_RXNE) != RESET)
     4a8:	52500593          	li	a1,1317
     4ac:	40005537          	lui	a0,0x40005
     4b0:	80050513          	addi	a0,a0,-2048 # 40004800 <_eusrstack+0x1ffff800>
     4b4:	4e7000ef          	jal	ra,119a <USART_GetITStatus>
     4b8:	e509                	bnez	a0,4c2 <USART3_IRQHandler+0x1e>
D:\1.intelligent vehicle\new try\seefree\Seekfree_CH32V103R8T6_Opensource_Library\obj/../USER/isr.c:280
        get_slave_data(dat);                            //将每一个字节的串口数据存入temp_buff中。
    }

#endif

}
     4ba:	4432                	lw	s0,12(sp)
     4bc:	0141                	addi	sp,sp,16
     4be:	30200073          	mret
D:\1.intelligent vehicle\new try\seefree\Seekfree_CH32V103R8T6_Opensource_Library\obj/../USER/isr.c:273
        USART_ClearITPendingBit(USART3, USART_IT_RXNE); //清除串口接收中断标志位
     4c2:	52500593          	li	a1,1317
     4c6:	40005437          	lui	s0,0x40005
     4ca:	80040513          	addi	a0,s0,-2048 # 40004800 <_eusrstack+0x1ffff800>
     4ce:	519000ef          	jal	ra,11e6 <USART_ClearITPendingBit>
D:\1.intelligent vehicle\new try\seefree\Seekfree_CH32V103R8T6_Opensource_Library\obj/../USER/isr.c:274
        dat = USART_ReceiveData(USART3);                //获取串口数据
     4d2:	80040513          	addi	a0,s0,-2048
     4d6:	4af000ef          	jal	ra,1184 <USART_ReceiveData>
D:\1.intelligent vehicle\new try\seefree\Seekfree_CH32V103R8T6_Opensource_Library\obj/../USER/isr.c:275
        get_slave_data(dat);                            //将每一个字节的串口数据存入temp_buff中。
     4da:	0ff57513          	andi	a0,a0,255
     4de:	15c030ef          	jal	ra,363a <get_slave_data>
D:\1.intelligent vehicle\new try\seefree\Seekfree_CH32V103R8T6_Opensource_Library\obj/../USER/isr.c:280
}
     4e2:	bfe1                	j	4ba <USART3_IRQHandler+0x16>

000004e4 <DMA1_Channel4_IRQHandler>:
DMA1_Channel4_IRQHandler():
D:\1.intelligent vehicle\new try\seefree\Seekfree_CH32V103R8T6_Opensource_Library\obj/../USER/isr.c:284

void DMA1_Channel4_IRQHandler(void)
{
    if(SET == DMA_GetFlagStatus(DMA1_FLAG_TC4))
     4e4:	6509                	lui	a0,0x2
     4e6:	2aad                	jal	660 <DMA_GetFlagStatus>
     4e8:	4785                	li	a5,1
     4ea:	00f50463          	beq	a0,a5,4f2 <DMA1_Channel4_IRQHandler+0xe>
D:\1.intelligent vehicle\new try\seefree\Seekfree_CH32V103R8T6_Opensource_Library\obj/../USER/isr.c:292
        if(camera_type == CAMERA_BIN_UART)
            ov7725_uart_dma();
        else if(camera_type == CAMERA_GRAYSCALE)
            mt9v03x_dma();
    }
}
     4ee:	30200073          	mret
D:\1.intelligent vehicle\new try\seefree\Seekfree_CH32V103R8T6_Opensource_Library\obj/../USER/isr.c:286
        DMA_ClearFlag(DMA1_FLAG_TC4);
     4f2:	6509                	lui	a0,0x2
     4f4:	2271                	jal	680 <DMA_ClearFlag>
D:\1.intelligent vehicle\new try\seefree\Seekfree_CH32V103R8T6_Opensource_Library\obj/../USER/isr.c:287
        if(camera_type == CAMERA_BIN_UART)
     4f6:	200007b7          	lui	a5,0x20000
     4fa:	0747a783          	lw	a5,116(a5) # 20000074 <camera_type>
     4fe:	4709                	li	a4,2
     500:	00e78863          	beq	a5,a4,510 <DMA1_Channel4_IRQHandler+0x2c>
D:\1.intelligent vehicle\new try\seefree\Seekfree_CH32V103R8T6_Opensource_Library\obj/../USER/isr.c:289
        else if(camera_type == CAMERA_GRAYSCALE)
     504:	4705                	li	a4,1
     506:	fee794e3          	bne	a5,a4,4ee <DMA1_Channel4_IRQHandler+0xa>
D:\1.intelligent vehicle\new try\seefree\Seekfree_CH32V103R8T6_Opensource_Library\obj/../USER/isr.c:290
            mt9v03x_dma();
     50a:	418010ef          	jal	ra,1922 <mt9v03x_dma>
D:\1.intelligent vehicle\new try\seefree\Seekfree_CH32V103R8T6_Opensource_Library\obj/../USER/isr.c:292
}
     50e:	b7c5                	j	4ee <DMA1_Channel4_IRQHandler+0xa>
D:\1.intelligent vehicle\new try\seefree\Seekfree_CH32V103R8T6_Opensource_Library\obj/../USER/isr.c:288
            ov7725_uart_dma();
     510:	48e010ef          	jal	ra,199e <ov7725_uart_dma>
     514:	bfe9                	j	4ee <DMA1_Channel4_IRQHandler+0xa>

00000516 <NMI_Handler>:
NMI_Handler():
D:\1.intelligent vehicle\new try\seefree\Seekfree_CH32V103R8T6_Opensource_Library\obj/../USER/isr.c:303
* Return         : None
*******************************************************************************/
void NMI_Handler(void)
{

}
     516:	30200073          	mret

0000051a <HardFault_Handler>:
HardFault_Handler():
D:\1.intelligent vehicle\new try\seefree\Seekfree_CH32V103R8T6_Opensource_Library\obj/../USER/isr.c:316 (discriminator 1)
void HardFault_Handler(void)
{

  while (1)
  {
     hcar_speed_control(0,0,0);
     51a:	4601                	li	a2,0
     51c:	4581                	li	a1,0
     51e:	4501                	li	a0,0
     520:	3d9020ef          	jal	ra,30f8 <hcar_speed_control>
     524:	bfdd                	j	51a <HardFault_Handler>

00000526 <main>:
main():
D:\1.intelligent vehicle\new try\seefree\Seekfree_CH32V103R8T6_Opensource_Library\obj/../USER/main.c:29

#include "headfile.h"


int main(void)
{
     526:	1141                	addi	sp,sp,-16
     528:	c606                	sw	ra,12(sp)
D:\1.intelligent vehicle\new try\seefree\Seekfree_CH32V103R8T6_Opensource_Library\obj/../USER/main.c:30
    hcar_gogogo();
     52a:	02f020ef          	jal	ra,2d58 <hcar_gogogo>
D:\1.intelligent vehicle\new try\seefree\Seekfree_CH32V103R8T6_Opensource_Library\obj/../USER/main.c:31
}
     52e:	4501                	li	a0,0
     530:	40b2                	lw	ra,12(sp)
     532:	0141                	addi	sp,sp,16
     534:	8082                	ret

00000536 <handle_reset>:
handle_reset():
D:\1.intelligent vehicle\new try\seefree\Seekfree_CH32V103R8T6_Opensource_Library\obj/../Libraries/wch_libraries/Startup/startup_ch32v10x.S:147
	.weak	handle_reset
	.align	1
handle_reset:
.option push 
.option	norelax 
	la gp, __global_pointer$
     536:	20000197          	auipc	gp,0x20000
     53a:	33a18193          	addi	gp,gp,826 # 20000870 <__global_pointer$>
D:\1.intelligent vehicle\new try\seefree\Seekfree_CH32V103R8T6_Opensource_Library\obj/../Libraries/wch_libraries/Startup/startup_ch32v10x.S:150
.option	pop 
1:
	la sp, _eusrstack 
     53e:	20005117          	auipc	sp,0x20005
     542:	ac210113          	addi	sp,sp,-1342 # 20005000 <_eusrstack>
D:\1.intelligent vehicle\new try\seefree\Seekfree_CH32V103R8T6_Opensource_Library\obj/../Libraries/wch_libraries/Startup/startup_ch32v10x.S:153
2:
	/* Load data section from flash to RAM */
	la a0, _data_lma
     546:	00006517          	auipc	a0,0x6
     54a:	9aa50513          	addi	a0,a0,-1622 # 5ef0 <_data_lma>
D:\1.intelligent vehicle\new try\seefree\Seekfree_CH32V103R8T6_Opensource_Library\obj/../Libraries/wch_libraries/Startup/startup_ch32v10x.S:154
	la a1, _data_vma
     54e:	20000597          	auipc	a1,0x20000
     552:	ab258593          	addi	a1,a1,-1358 # 20000000 <_data_vma>
D:\1.intelligent vehicle\new try\seefree\Seekfree_CH32V103R8T6_Opensource_Library\obj/../Libraries/wch_libraries/Startup/startup_ch32v10x.S:155
	la a2, _edata
     556:	83818613          	addi	a2,gp,-1992 # 200000a8 <_edata>
D:\1.intelligent vehicle\new try\seefree\Seekfree_CH32V103R8T6_Opensource_Library\obj/../Libraries/wch_libraries/Startup/startup_ch32v10x.S:156
	bgeu a1, a2, 2f
     55a:	00c5fa63          	bgeu	a1,a2,56e <handle_reset+0x38>
D:\1.intelligent vehicle\new try\seefree\Seekfree_CH32V103R8T6_Opensource_Library\obj/../Libraries/wch_libraries/Startup/startup_ch32v10x.S:158
1:
	lw t0, (a0)
     55e:	00052283          	lw	t0,0(a0)
D:\1.intelligent vehicle\new try\seefree\Seekfree_CH32V103R8T6_Opensource_Library\obj/../Libraries/wch_libraries/Startup/startup_ch32v10x.S:159
	sw t0, (a1)
     562:	0055a023          	sw	t0,0(a1)
D:\1.intelligent vehicle\new try\seefree\Seekfree_CH32V103R8T6_Opensource_Library\obj/../Libraries/wch_libraries/Startup/startup_ch32v10x.S:160
	addi a0, a0, 4
     566:	0511                	addi	a0,a0,4
D:\1.intelligent vehicle\new try\seefree\Seekfree_CH32V103R8T6_Opensource_Library\obj/../Libraries/wch_libraries/Startup/startup_ch32v10x.S:161
	addi a1, a1, 4
     568:	0591                	addi	a1,a1,4
D:\1.intelligent vehicle\new try\seefree\Seekfree_CH32V103R8T6_Opensource_Library\obj/../Libraries/wch_libraries/Startup/startup_ch32v10x.S:162
	bltu a1, a2, 1b
     56a:	fec5eae3          	bltu	a1,a2,55e <handle_reset+0x28>
D:\1.intelligent vehicle\new try\seefree\Seekfree_CH32V103R8T6_Opensource_Library\obj/../Libraries/wch_libraries/Startup/startup_ch32v10x.S:165
2:
	/* clear bss section */
	la a0, _sbss
     56e:	83818513          	addi	a0,gp,-1992 # 200000a8 <_edata>
D:\1.intelligent vehicle\new try\seefree\Seekfree_CH32V103R8T6_Opensource_Library\obj/../Libraries/wch_libraries/Startup/startup_ch32v10x.S:166
	la a1, _ebss
     572:	95818593          	addi	a1,gp,-1704 # 200001c8 <_ebss>
D:\1.intelligent vehicle\new try\seefree\Seekfree_CH32V103R8T6_Opensource_Library\obj/../Libraries/wch_libraries/Startup/startup_ch32v10x.S:167
	bgeu a0, a1, 2f
     576:	00b57763          	bgeu	a0,a1,584 <handle_reset+0x4e>
D:\1.intelligent vehicle\new try\seefree\Seekfree_CH32V103R8T6_Opensource_Library\obj/../Libraries/wch_libraries/Startup/startup_ch32v10x.S:169
1:
	sw zero, (a0)
     57a:	00052023          	sw	zero,0(a0)
D:\1.intelligent vehicle\new try\seefree\Seekfree_CH32V103R8T6_Opensource_Library\obj/../Libraries/wch_libraries/Startup/startup_ch32v10x.S:170
	addi a0, a0, 4
     57e:	0511                	addi	a0,a0,4
D:\1.intelligent vehicle\new try\seefree\Seekfree_CH32V103R8T6_Opensource_Library\obj/../Libraries/wch_libraries/Startup/startup_ch32v10x.S:171
	bltu a0, a1, 1b
     580:	feb56de3          	bltu	a0,a1,57a <handle_reset+0x44>
D:\1.intelligent vehicle\new try\seefree\Seekfree_CH32V103R8T6_Opensource_Library\obj/../Libraries/wch_libraries/Startup/startup_ch32v10x.S:174
2:
	/* enable all interrupt */
  li t0, 0x88
     584:	08800293          	li	t0,136
D:\1.intelligent vehicle\new try\seefree\Seekfree_CH32V103R8T6_Opensource_Library\obj/../Libraries/wch_libraries/Startup/startup_ch32v10x.S:175
  csrs mstatus, t0
     588:	3002a073          	csrs	mstatus,t0
D:\1.intelligent vehicle\new try\seefree\Seekfree_CH32V103R8T6_Opensource_Library\obj/../Libraries/wch_libraries/Startup/startup_ch32v10x.S:176
	la t0, _vector_base
     58c:	00000297          	auipc	t0,0x0
     590:	aac28293          	addi	t0,t0,-1364 # 38 <_einit>
D:\1.intelligent vehicle\new try\seefree\Seekfree_CH32V103R8T6_Opensource_Library\obj/../Libraries/wch_libraries/Startup/startup_ch32v10x.S:177
  ori t0, t0, 1
     594:	0012e293          	ori	t0,t0,1
D:\1.intelligent vehicle\new try\seefree\Seekfree_CH32V103R8T6_Opensource_Library\obj/../Libraries/wch_libraries/Startup/startup_ch32v10x.S:178
	csrw mtvec, t0
     598:	30529073          	csrw	mtvec,t0
D:\1.intelligent vehicle\new try\seefree\Seekfree_CH32V103R8T6_Opensource_Library\obj/../Libraries/wch_libraries/Startup/startup_ch32v10x.S:180

  jal  SystemInit
     59c:	594020ef          	jal	ra,2b30 <SystemInit>
D:\1.intelligent vehicle\new try\seefree\Seekfree_CH32V103R8T6_Opensource_Library\obj/../Libraries/wch_libraries/Startup/startup_ch32v10x.S:181
	la t0, main
     5a0:	00000297          	auipc	t0,0x0
     5a4:	f8628293          	addi	t0,t0,-122 # 526 <main>
D:\1.intelligent vehicle\new try\seefree\Seekfree_CH32V103R8T6_Opensource_Library\obj/../Libraries/wch_libraries/Startup/startup_ch32v10x.S:182
	csrw mepc, t0
     5a8:	34129073          	csrw	mepc,t0
D:\1.intelligent vehicle\new try\seefree\Seekfree_CH32V103R8T6_Opensource_Library\obj/../Libraries/wch_libraries/Startup/startup_ch32v10x.S:183
	mret
     5ac:	30200073          	mret

000005b0 <ADC_DeInit>:
ADC_DeInit():
D:\1.intelligent vehicle\new try\seefree\Seekfree_CH32V103R8T6_Opensource_Library\obj/../Libraries/wch_libraries/Peripheral/ch32v10x_adc.c:116
*                    where x can be 1 to select the ADC peripheral.
* Return         : None
*******************************************************************************/
void ADC_DeInit(ADC_TypeDef* ADCx)
{
  if (ADCx == ADC1)
     5b0:	400127b7          	lui	a5,0x40012
     5b4:	40078793          	addi	a5,a5,1024 # 40012400 <_eusrstack+0x2000d400>
     5b8:	00f50363          	beq	a0,a5,5be <ADC_DeInit+0xe>
     5bc:	8082                	ret
D:\1.intelligent vehicle\new try\seefree\Seekfree_CH32V103R8T6_Opensource_Library\obj/../Libraries/wch_libraries/Peripheral/ch32v10x_adc.c:115
{
     5be:	1141                	addi	sp,sp,-16
     5c0:	c606                	sw	ra,12(sp)
D:\1.intelligent vehicle\new try\seefree\Seekfree_CH32V103R8T6_Opensource_Library\obj/../Libraries/wch_libraries/Peripheral/ch32v10x_adc.c:118
  {
    RCC_APB2PeriphResetCmd(RCC_APB2Periph_ADC1, ENABLE);
     5c2:	4585                	li	a1,1
     5c4:	20000513          	li	a0,512
     5c8:	230d                	jal	aea <RCC_APB2PeriphResetCmd>
D:\1.intelligent vehicle\new try\seefree\Seekfree_CH32V103R8T6_Opensource_Library\obj/../Libraries/wch_libraries/Peripheral/ch32v10x_adc.c:119
    RCC_APB2PeriphResetCmd(RCC_APB2Periph_ADC1, DISABLE);
     5ca:	4581                	li	a1,0
     5cc:	20000513          	li	a0,512
     5d0:	2b29                	jal	aea <RCC_APB2PeriphResetCmd>
D:\1.intelligent vehicle\new try\seefree\Seekfree_CH32V103R8T6_Opensource_Library\obj/../Libraries/wch_libraries/Peripheral/ch32v10x_adc.c:121
  }
}
     5d2:	40b2                	lw	ra,12(sp)
     5d4:	0141                	addi	sp,sp,16
     5d6:	8082                	ret

000005d8 <ADC_Init>:
ADC_Init():
D:\1.intelligent vehicle\new try\seefree\Seekfree_CH32V103R8T6_Opensource_Library\obj/../Libraries/wch_libraries/Peripheral/ch32v10x_adc.c:138
void ADC_Init(ADC_TypeDef* ADCx, ADC_InitTypeDef* ADC_InitStruct)
{
  uint32_t tmpreg1 = 0;
  uint8_t tmpreg2 = 0;

  tmpreg1 = ADCx->CTLR1;
     5d8:	415c                	lw	a5,4(a0)
D:\1.intelligent vehicle\new try\seefree\Seekfree_CH32V103R8T6_Opensource_Library\obj/../Libraries/wch_libraries/Peripheral/ch32v10x_adc.c:139
  tmpreg1 &= CTLR1_CLEAR_Mask;
     5da:	fff10737          	lui	a4,0xfff10
     5de:	eff70713          	addi	a4,a4,-257 # fff0feff <_eusrstack+0xdff0aeff>
     5e2:	8f7d                	and	a4,a4,a5
D:\1.intelligent vehicle\new try\seefree\Seekfree_CH32V103R8T6_Opensource_Library\obj/../Libraries/wch_libraries/Peripheral/ch32v10x_adc.c:140
  tmpreg1 |= (uint32_t)(ADC_InitStruct->ADC_Mode | ((uint32_t)ADC_InitStruct->ADC_ScanConvMode << 8));
     5e4:	41dc                	lw	a5,4(a1)
     5e6:	07a2                	slli	a5,a5,0x8
     5e8:	4194                	lw	a3,0(a1)
     5ea:	8fd5                	or	a5,a5,a3
     5ec:	8fd9                	or	a5,a5,a4
D:\1.intelligent vehicle\new try\seefree\Seekfree_CH32V103R8T6_Opensource_Library\obj/../Libraries/wch_libraries/Peripheral/ch32v10x_adc.c:141
  ADCx->CTLR1 = tmpreg1;
     5ee:	c15c                	sw	a5,4(a0)
D:\1.intelligent vehicle\new try\seefree\Seekfree_CH32V103R8T6_Opensource_Library\obj/../Libraries/wch_libraries/Peripheral/ch32v10x_adc.c:143

  tmpreg1 = ADCx->CTLR2;
     5f0:	451c                	lw	a5,8(a0)
D:\1.intelligent vehicle\new try\seefree\Seekfree_CH32V103R8T6_Opensource_Library\obj/../Libraries/wch_libraries/Peripheral/ch32v10x_adc.c:144
  tmpreg1 &= CTLR2_CLEAR_Mask;
     5f2:	fff1f737          	lui	a4,0xfff1f
     5f6:	7fd70713          	addi	a4,a4,2045 # fff1f7fd <_eusrstack+0xdff1a7fd>
     5fa:	8f7d                	and	a4,a4,a5
D:\1.intelligent vehicle\new try\seefree\Seekfree_CH32V103R8T6_Opensource_Library\obj/../Libraries/wch_libraries/Peripheral/ch32v10x_adc.c:145
  tmpreg1 |= (uint32_t)(ADC_InitStruct->ADC_DataAlign | ADC_InitStruct->ADC_ExternalTrigConv |
     5fc:	499c                	lw	a5,16(a1)
     5fe:	45d4                	lw	a3,12(a1)
     600:	8fd5                	or	a5,a5,a3
D:\1.intelligent vehicle\new try\seefree\Seekfree_CH32V103R8T6_Opensource_Library\obj/../Libraries/wch_libraries/Peripheral/ch32v10x_adc.c:146
            ((uint32_t)ADC_InitStruct->ADC_ContinuousConvMode << 1));
     602:	4594                	lw	a3,8(a1)
     604:	0686                	slli	a3,a3,0x1
D:\1.intelligent vehicle\new try\seefree\Seekfree_CH32V103R8T6_Opensource_Library\obj/../Libraries/wch_libraries/Peripheral/ch32v10x_adc.c:145
  tmpreg1 |= (uint32_t)(ADC_InitStruct->ADC_DataAlign | ADC_InitStruct->ADC_ExternalTrigConv |
     606:	8fd5                	or	a5,a5,a3
     608:	8fd9                	or	a5,a5,a4
D:\1.intelligent vehicle\new try\seefree\Seekfree_CH32V103R8T6_Opensource_Library\obj/../Libraries/wch_libraries/Peripheral/ch32v10x_adc.c:147
  ADCx->CTLR2 = tmpreg1;
     60a:	c51c                	sw	a5,8(a0)
D:\1.intelligent vehicle\new try\seefree\Seekfree_CH32V103R8T6_Opensource_Library\obj/../Libraries/wch_libraries/Peripheral/ch32v10x_adc.c:149

  tmpreg1 = ADCx->RSQR1;
     60c:	555c                	lw	a5,44(a0)
D:\1.intelligent vehicle\new try\seefree\Seekfree_CH32V103R8T6_Opensource_Library\obj/../Libraries/wch_libraries/Peripheral/ch32v10x_adc.c:150
  tmpreg1 &= RSQR1_CLEAR_Mask;
     60e:	ff100737          	lui	a4,0xff100
     612:	177d                	addi	a4,a4,-1
     614:	8f7d                	and	a4,a4,a5
D:\1.intelligent vehicle\new try\seefree\Seekfree_CH32V103R8T6_Opensource_Library\obj/../Libraries/wch_libraries/Peripheral/ch32v10x_adc.c:151
  tmpreg2 |= (uint8_t) (ADC_InitStruct->ADC_NbrOfChannel - (uint8_t)1);
     616:	0145c783          	lbu	a5,20(a1)
     61a:	17fd                	addi	a5,a5,-1
D:\1.intelligent vehicle\new try\seefree\Seekfree_CH32V103R8T6_Opensource_Library\obj/../Libraries/wch_libraries/Peripheral/ch32v10x_adc.c:152
  tmpreg1 |= (uint32_t)tmpreg2 << 20;
     61c:	0ff7f793          	andi	a5,a5,255
     620:	07d2                	slli	a5,a5,0x14
     622:	8fd9                	or	a5,a5,a4
D:\1.intelligent vehicle\new try\seefree\Seekfree_CH32V103R8T6_Opensource_Library\obj/../Libraries/wch_libraries/Peripheral/ch32v10x_adc.c:153
  ADCx->RSQR1 = tmpreg1;
     624:	d55c                	sw	a5,44(a0)
D:\1.intelligent vehicle\new try\seefree\Seekfree_CH32V103R8T6_Opensource_Library\obj/../Libraries/wch_libraries/Peripheral/ch32v10x_adc.c:154
}
     626:	8082                	ret

00000628 <ADC_Cmd>:
ADC_Cmd():
D:\1.intelligent vehicle\new try\seefree\Seekfree_CH32V103R8T6_Opensource_Library\obj/../Libraries/wch_libraries/Peripheral/ch32v10x_adc.c:183
*                  NewState: ENABLE or DISABLE.
* Return         : None
*******************************************************************************/
void ADC_Cmd(ADC_TypeDef* ADCx, FunctionalState NewState)
{
  if (NewState != DISABLE)
     628:	c591                	beqz	a1,634 <ADC_Cmd+0xc>
D:\1.intelligent vehicle\new try\seefree\Seekfree_CH32V103R8T6_Opensource_Library\obj/../Libraries/wch_libraries/Peripheral/ch32v10x_adc.c:185
  {
    ADCx->CTLR2 |= CTLR2_ADON_Set;
     62a:	451c                	lw	a5,8(a0)
     62c:	0017e793          	ori	a5,a5,1
     630:	c51c                	sw	a5,8(a0)
     632:	8082                	ret
D:\1.intelligent vehicle\new try\seefree\Seekfree_CH32V103R8T6_Opensource_Library\obj/../Libraries/wch_libraries/Peripheral/ch32v10x_adc.c:189
  }
  else
  {
    ADCx->CTLR2 &= CTLR2_ADON_Reset;
     634:	451c                	lw	a5,8(a0)
     636:	9bf9                	andi	a5,a5,-2
     638:	c51c                	sw	a5,8(a0)
D:\1.intelligent vehicle\new try\seefree\Seekfree_CH32V103R8T6_Opensource_Library\obj/../Libraries/wch_libraries/Peripheral/ch32v10x_adc.c:191
  }
}
     63a:	8082                	ret

0000063c <ADC_ResetCalibration>:
ADC_ResetCalibration():
D:\1.intelligent vehicle\new try\seefree\Seekfree_CH32V103R8T6_Opensource_Library\obj/../Libraries/wch_libraries/Peripheral/ch32v10x_adc.c:250
*                    where x can be 1 to select the ADC peripheral.
* Return         : None
*******************************************************************************/
void ADC_ResetCalibration(ADC_TypeDef* ADCx)
{
  ADCx->CTLR2 |= CTLR2_RSTCAL_Set;
     63c:	451c                	lw	a5,8(a0)
     63e:	0087e793          	ori	a5,a5,8
     642:	c51c                	sw	a5,8(a0)
D:\1.intelligent vehicle\new try\seefree\Seekfree_CH32V103R8T6_Opensource_Library\obj/../Libraries/wch_libraries/Peripheral/ch32v10x_adc.c:251
}
     644:	8082                	ret

00000646 <ADC_GetResetCalibrationStatus>:
ADC_GetResetCalibrationStatus():
D:\1.intelligent vehicle\new try\seefree\Seekfree_CH32V103R8T6_Opensource_Library\obj/../Libraries/wch_libraries/Peripheral/ch32v10x_adc.c:264
*******************************************************************************/
FlagStatus ADC_GetResetCalibrationStatus(ADC_TypeDef* ADCx)
{
  FlagStatus bitstatus = RESET;

  if ((ADCx->CTLR2 & CTLR2_RSTCAL_Set) != (uint32_t)RESET)
     646:	4508                	lw	a0,8(a0)
     648:	810d                	srli	a0,a0,0x3
D:\1.intelligent vehicle\new try\seefree\Seekfree_CH32V103R8T6_Opensource_Library\obj/../Libraries/wch_libraries/Peripheral/ch32v10x_adc.c:274
  {
    bitstatus = RESET;
  }
	
  return  bitstatus;
}
     64a:	8905                	andi	a0,a0,1
     64c:	8082                	ret

0000064e <ADC_StartCalibration>:
ADC_StartCalibration():
D:\1.intelligent vehicle\new try\seefree\Seekfree_CH32V103R8T6_Opensource_Library\obj/../Libraries/wch_libraries/Peripheral/ch32v10x_adc.c:285
*                    where x can be 1 to select the ADC peripheral.
* Return         : None
*******************************************************************************/
void ADC_StartCalibration(ADC_TypeDef* ADCx)
{ 
  ADCx->CTLR2 |= CTLR2_CAL_Set;
     64e:	451c                	lw	a5,8(a0)
     650:	0047e793          	ori	a5,a5,4
     654:	c51c                	sw	a5,8(a0)
D:\1.intelligent vehicle\new try\seefree\Seekfree_CH32V103R8T6_Opensource_Library\obj/../Libraries/wch_libraries/Peripheral/ch32v10x_adc.c:286
}
     656:	8082                	ret

00000658 <ADC_GetCalibrationStatus>:
ADC_GetCalibrationStatus():
D:\1.intelligent vehicle\new try\seefree\Seekfree_CH32V103R8T6_Opensource_Library\obj/../Libraries/wch_libraries/Peripheral/ch32v10x_adc.c:299
*******************************************************************************/
FlagStatus ADC_GetCalibrationStatus(ADC_TypeDef* ADCx)
{
  FlagStatus bitstatus = RESET;

  if ((ADCx->CTLR2 & CTLR2_CAL_Set) != (uint32_t)RESET)
     658:	4508                	lw	a0,8(a0)
     65a:	8109                	srli	a0,a0,0x2
D:\1.intelligent vehicle\new try\seefree\Seekfree_CH32V103R8T6_Opensource_Library\obj/../Libraries/wch_libraries/Peripheral/ch32v10x_adc.c:309
  {
    bitstatus = RESET;
  }

  return  bitstatus;
}
     65c:	8905                	andi	a0,a0,1
     65e:	8082                	ret

00000660 <DMA_GetFlagStatus>:
DMA_GetFlagStatus():
D:\1.intelligent vehicle\new try\seefree\Seekfree_CH32V103R8T6_Opensource_Library\obj/../Libraries/wch_libraries/Peripheral/ch32v10x_dma.c:294
FlagStatus DMA_GetFlagStatus(uint32_t DMAy_FLAG)
{
  FlagStatus bitstatus = RESET;
  uint32_t tmpreg = 0;
  
  if ((DMAy_FLAG & FLAG_Mask) != (uint32_t)RESET)
     660:	00351793          	slli	a5,a0,0x3
     664:	0007da63          	bgez	a5,678 <DMA_GetFlagStatus+0x18>
D:\1.intelligent vehicle\new try\seefree\Seekfree_CH32V103R8T6_Opensource_Library\obj/../Libraries/wch_libraries/Peripheral/ch32v10x_dma.c:296
  {
    tmpreg = DMA2->INTFR ;
     668:	400207b7          	lui	a5,0x40020
     66c:	4007a783          	lw	a5,1024(a5) # 40020400 <_eusrstack+0x2001b400>
D:\1.intelligent vehicle\new try\seefree\Seekfree_CH32V103R8T6_Opensource_Library\obj/../Libraries/wch_libraries/Peripheral/ch32v10x_dma.c:303
  else
  {
    tmpreg = DMA1->INTFR ;
  }

  if ((tmpreg & DMAy_FLAG) != (uint32_t)RESET)
     670:	8d7d                	and	a0,a0,a5
D:\1.intelligent vehicle\new try\seefree\Seekfree_CH32V103R8T6_Opensource_Library\obj/../Libraries/wch_libraries/Peripheral/ch32v10x_dma.c:313
  {
    bitstatus = RESET;
  }
  
  return  bitstatus;
}
     672:	00a03533          	snez	a0,a0
     676:	8082                	ret
D:\1.intelligent vehicle\new try\seefree\Seekfree_CH32V103R8T6_Opensource_Library\obj/../Libraries/wch_libraries/Peripheral/ch32v10x_dma.c:300
    tmpreg = DMA1->INTFR ;
     678:	400207b7          	lui	a5,0x40020
     67c:	439c                	lw	a5,0(a5)
     67e:	bfcd                	j	670 <DMA_GetFlagStatus+0x10>

00000680 <DMA_ClearFlag>:
DMA_ClearFlag():
D:\1.intelligent vehicle\new try\seefree\Seekfree_CH32V103R8T6_Opensource_Library\obj/../Libraries/wch_libraries/Peripheral/ch32v10x_dma.c:372
*                      DMA2_FLAG_TE5: DMA2 Channel5 transfer error flag.
* Return         : None 
*********************************************************************************/
void DMA_ClearFlag(uint32_t DMAy_FLAG)
{
  if ((DMAy_FLAG & FLAG_Mask) != (uint32_t)RESET)
     680:	00351793          	slli	a5,a0,0x3
     684:	0007d763          	bgez	a5,692 <DMA_ClearFlag+0x12>
D:\1.intelligent vehicle\new try\seefree\Seekfree_CH32V103R8T6_Opensource_Library\obj/../Libraries/wch_libraries/Peripheral/ch32v10x_dma.c:374
  {
    DMA2->INTFCR = DMAy_FLAG;
     688:	400207b7          	lui	a5,0x40020
     68c:	40a7a223          	sw	a0,1028(a5) # 40020404 <_eusrstack+0x2001b404>
     690:	8082                	ret
D:\1.intelligent vehicle\new try\seefree\Seekfree_CH32V103R8T6_Opensource_Library\obj/../Libraries/wch_libraries/Peripheral/ch32v10x_dma.c:378
  }
  else
  {
    DMA1->INTFCR = DMAy_FLAG;
     692:	400207b7          	lui	a5,0x40020
     696:	c3c8                	sw	a0,4(a5)
D:\1.intelligent vehicle\new try\seefree\Seekfree_CH32V103R8T6_Opensource_Library\obj/../Libraries/wch_libraries/Peripheral/ch32v10x_dma.c:380
  }
}
     698:	8082                	ret

0000069a <EXTI_Init>:
EXTI_Init():
D:\1.intelligent vehicle\new try\seefree\Seekfree_CH32V103R8T6_Opensource_Library\obj/../Libraries/wch_libraries/Peripheral/ch32v10x_exti.c:41
void EXTI_Init(EXTI_InitTypeDef* EXTI_InitStruct)
{
  uint32_t tmp = 0;

  tmp = (uint32_t)EXTI_BASE;
  if (EXTI_InitStruct->EXTI_LineCmd != DISABLE)
     69a:	455c                	lw	a5,12(a0)
     69c:	c3d9                	beqz	a5,722 <EXTI_Init+0x88>
D:\1.intelligent vehicle\new try\seefree\Seekfree_CH32V103R8T6_Opensource_Library\obj/../Libraries/wch_libraries/Peripheral/ch32v10x_exti.c:43
  {
    EXTI->INTENR &= ~EXTI_InitStruct->EXTI_Line;
     69e:	400106b7          	lui	a3,0x40010
     6a2:	40068793          	addi	a5,a3,1024 # 40010400 <_eusrstack+0x2000b400>
     6a6:	4006a603          	lw	a2,1024(a3)
     6aa:	4118                	lw	a4,0(a0)
     6ac:	fff74713          	not	a4,a4
     6b0:	8f71                	and	a4,a4,a2
     6b2:	40e6a023          	sw	a4,1024(a3)
D:\1.intelligent vehicle\new try\seefree\Seekfree_CH32V103R8T6_Opensource_Library\obj/../Libraries/wch_libraries/Peripheral/ch32v10x_exti.c:44
    EXTI->EVENR &= ~EXTI_InitStruct->EXTI_Line;
     6b6:	4046a683          	lw	a3,1028(a3)
     6ba:	4118                	lw	a4,0(a0)
     6bc:	fff74713          	not	a4,a4
     6c0:	8f75                	and	a4,a4,a3
     6c2:	c3d8                	sw	a4,4(a5)
D:\1.intelligent vehicle\new try\seefree\Seekfree_CH32V103R8T6_Opensource_Library\obj/../Libraries/wch_libraries/Peripheral/ch32v10x_exti.c:45
    tmp += EXTI_InitStruct->EXTI_Mode;
     6c4:	4158                	lw	a4,4(a0)
     6c6:	973e                	add	a4,a4,a5
D:\1.intelligent vehicle\new try\seefree\Seekfree_CH32V103R8T6_Opensource_Library\obj/../Libraries/wch_libraries/Peripheral/ch32v10x_exti.c:46
    *(__IO uint32_t *) tmp |= EXTI_InitStruct->EXTI_Line;
     6c8:	4314                	lw	a3,0(a4)
     6ca:	4110                	lw	a2,0(a0)
     6cc:	8ed1                	or	a3,a3,a2
     6ce:	c314                	sw	a3,0(a4)
D:\1.intelligent vehicle\new try\seefree\Seekfree_CH32V103R8T6_Opensource_Library\obj/../Libraries/wch_libraries/Peripheral/ch32v10x_exti.c:47
    EXTI->RTENR &= ~EXTI_InitStruct->EXTI_Line;
     6d0:	4794                	lw	a3,8(a5)
     6d2:	4118                	lw	a4,0(a0)
     6d4:	fff74713          	not	a4,a4
     6d8:	8f75                	and	a4,a4,a3
     6da:	c798                	sw	a4,8(a5)
D:\1.intelligent vehicle\new try\seefree\Seekfree_CH32V103R8T6_Opensource_Library\obj/../Libraries/wch_libraries/Peripheral/ch32v10x_exti.c:48
    EXTI->FTENR &= ~EXTI_InitStruct->EXTI_Line;
     6dc:	47d4                	lw	a3,12(a5)
     6de:	4118                	lw	a4,0(a0)
     6e0:	fff74713          	not	a4,a4
     6e4:	8f75                	and	a4,a4,a3
     6e6:	c7d8                	sw	a4,12(a5)
D:\1.intelligent vehicle\new try\seefree\Seekfree_CH32V103R8T6_Opensource_Library\obj/../Libraries/wch_libraries/Peripheral/ch32v10x_exti.c:49
    if (EXTI_InitStruct->EXTI_Trigger == EXTI_Trigger_Rising_Falling)
     6e8:	451c                	lw	a5,8(a0)
     6ea:	4741                	li	a4,16
     6ec:	00e78c63          	beq	a5,a4,704 <EXTI_Init+0x6a>
D:\1.intelligent vehicle\new try\seefree\Seekfree_CH32V103R8T6_Opensource_Library\obj/../Libraries/wch_libraries/Peripheral/ch32v10x_exti.c:57
      EXTI->FTENR |= EXTI_InitStruct->EXTI_Line;
    }
    else
    {
      tmp = (uint32_t)EXTI_BASE;
      tmp += EXTI_InitStruct->EXTI_Trigger;
     6f0:	40010737          	lui	a4,0x40010
     6f4:	40070713          	addi	a4,a4,1024 # 40010400 <_eusrstack+0x2000b400>
     6f8:	97ba                	add	a5,a5,a4
D:\1.intelligent vehicle\new try\seefree\Seekfree_CH32V103R8T6_Opensource_Library\obj/../Libraries/wch_libraries/Peripheral/ch32v10x_exti.c:58
      *(__IO uint32_t *) tmp |= EXTI_InitStruct->EXTI_Line;
     6fa:	4398                	lw	a4,0(a5)
     6fc:	4114                	lw	a3,0(a0)
     6fe:	8f55                	or	a4,a4,a3
     700:	c398                	sw	a4,0(a5)
     702:	8082                	ret
D:\1.intelligent vehicle\new try\seefree\Seekfree_CH32V103R8T6_Opensource_Library\obj/../Libraries/wch_libraries/Peripheral/ch32v10x_exti.c:51
      EXTI->RTENR |= EXTI_InitStruct->EXTI_Line;
     704:	400107b7          	lui	a5,0x40010
     708:	4087a703          	lw	a4,1032(a5) # 40010408 <_eusrstack+0x2000b408>
     70c:	4114                	lw	a3,0(a0)
     70e:	8f55                	or	a4,a4,a3
     710:	40e7a423          	sw	a4,1032(a5)
D:\1.intelligent vehicle\new try\seefree\Seekfree_CH32V103R8T6_Opensource_Library\obj/../Libraries/wch_libraries/Peripheral/ch32v10x_exti.c:52
      EXTI->FTENR |= EXTI_InitStruct->EXTI_Line;
     714:	40c7a703          	lw	a4,1036(a5)
     718:	4114                	lw	a3,0(a0)
     71a:	8f55                	or	a4,a4,a3
     71c:	40e7a623          	sw	a4,1036(a5)
     720:	8082                	ret
D:\1.intelligent vehicle\new try\seefree\Seekfree_CH32V103R8T6_Opensource_Library\obj/../Libraries/wch_libraries/Peripheral/ch32v10x_exti.c:63
    }
  }
  else
  {
    tmp += EXTI_InitStruct->EXTI_Mode;
     722:	4158                	lw	a4,4(a0)
     724:	400107b7          	lui	a5,0x40010
     728:	40078793          	addi	a5,a5,1024 # 40010400 <_eusrstack+0x2000b400>
     72c:	973e                	add	a4,a4,a5
D:\1.intelligent vehicle\new try\seefree\Seekfree_CH32V103R8T6_Opensource_Library\obj/../Libraries/wch_libraries/Peripheral/ch32v10x_exti.c:64
    *(__IO uint32_t *) tmp &= ~EXTI_InitStruct->EXTI_Line;
     72e:	4314                	lw	a3,0(a4)
     730:	411c                	lw	a5,0(a0)
     732:	fff7c793          	not	a5,a5
     736:	8ff5                	and	a5,a5,a3
     738:	c31c                	sw	a5,0(a4)
D:\1.intelligent vehicle\new try\seefree\Seekfree_CH32V103R8T6_Opensource_Library\obj/../Libraries/wch_libraries/Peripheral/ch32v10x_exti.c:66
  }
}
     73a:	8082                	ret

0000073c <EXTI_GetITStatus>:
EXTI_GetITStatus():
D:\1.intelligent vehicle\new try\seefree\Seekfree_CH32V103R8T6_Opensource_Library\obj/../Libraries/wch_libraries/Peripheral/ch32v10x_exti.c:135
ITStatus EXTI_GetITStatus(uint32_t EXTI_Line)
{
  ITStatus bitstatus = RESET;
  uint32_t enablestatus = 0;
  
  enablestatus =  EXTI->INTENR & EXTI_Line;
     73c:	40010737          	lui	a4,0x40010
     740:	40072783          	lw	a5,1024(a4) # 40010400 <_eusrstack+0x2000b400>
D:\1.intelligent vehicle\new try\seefree\Seekfree_CH32V103R8T6_Opensource_Library\obj/../Libraries/wch_libraries/Peripheral/ch32v10x_exti.c:136
  if (((EXTI->INTFR & EXTI_Line) != (uint32_t)RESET) && (enablestatus != (uint32_t)RESET))
     744:	41472703          	lw	a4,1044(a4)
     748:	8f69                	and	a4,a4,a0
     74a:	c709                	beqz	a4,754 <EXTI_GetITStatus+0x18>
D:\1.intelligent vehicle\new try\seefree\Seekfree_CH32V103R8T6_Opensource_Library\obj/../Libraries/wch_libraries/Peripheral/ch32v10x_exti.c:135 (discriminator 1)
  enablestatus =  EXTI->INTENR & EXTI_Line;
     74c:	8d7d                	and	a0,a0,a5
D:\1.intelligent vehicle\new try\seefree\Seekfree_CH32V103R8T6_Opensource_Library\obj/../Libraries/wch_libraries/Peripheral/ch32v10x_exti.c:136 (discriminator 1)
  if (((EXTI->INTFR & EXTI_Line) != (uint32_t)RESET) && (enablestatus != (uint32_t)RESET))
     74e:	00a03533          	snez	a0,a0
     752:	8082                	ret
D:\1.intelligent vehicle\new try\seefree\Seekfree_CH32V103R8T6_Opensource_Library\obj/../Libraries/wch_libraries/Peripheral/ch32v10x_exti.c:142
  {
    bitstatus = SET;
  }
  else
  {
    bitstatus = RESET;
     754:	4501                	li	a0,0
D:\1.intelligent vehicle\new try\seefree\Seekfree_CH32V103R8T6_Opensource_Library\obj/../Libraries/wch_libraries/Peripheral/ch32v10x_exti.c:145
  }
  return bitstatus;
}
     756:	8082                	ret

00000758 <EXTI_ClearITPendingBit>:
EXTI_ClearITPendingBit():
D:\1.intelligent vehicle\new try\seefree\Seekfree_CH32V103R8T6_Opensource_Library\obj/../Libraries/wch_libraries/Peripheral/ch32v10x_exti.c:155
* Input          : EXTI_Line: specifies the EXTI lines to be enabled or disabled.
* Return         : None
*********************************************************************************/
void EXTI_ClearITPendingBit(uint32_t EXTI_Line)
{  
  EXTI->INTFR = EXTI_Line;
     758:	400107b7          	lui	a5,0x40010
     75c:	40a7aa23          	sw	a0,1044(a5) # 40010414 <_eusrstack+0x2000b414>
D:\1.intelligent vehicle\new try\seefree\Seekfree_CH32V103R8T6_Opensource_Library\obj/../Libraries/wch_libraries/Peripheral/ch32v10x_exti.c:156
}
     760:	8082                	ret

00000762 <GPIO_Init>:
GPIO_Init():
D:\1.intelligent vehicle\new try\seefree\Seekfree_CH32V103R8T6_Opensource_Library\obj/../Libraries/wch_libraries/Peripheral/ch32v10x_gpio.c:92
void GPIO_Init(GPIO_TypeDef* GPIOx, GPIO_InitTypeDef* GPIO_InitStruct)
{
  uint32_t currentmode = 0x00, currentpin = 0x00, pinpos = 0x00, pos = 0x00;
  uint32_t tmpreg = 0x00, pinmask = 0x00;

  currentmode = ((uint32_t)GPIO_InitStruct->GPIO_Mode) & ((uint32_t)0x0F);
     762:	459c                	lw	a5,8(a1)
     764:	00f7f893          	andi	a7,a5,15
D:\1.intelligent vehicle\new try\seefree\Seekfree_CH32V103R8T6_Opensource_Library\obj/../Libraries/wch_libraries/Peripheral/ch32v10x_gpio.c:94
	
  if ((((uint32_t)GPIO_InitStruct->GPIO_Mode) & ((uint32_t)0x10)) != 0x00)
     768:	8bc1                	andi	a5,a5,16
     76a:	c781                	beqz	a5,772 <GPIO_Init+0x10>
D:\1.intelligent vehicle\new try\seefree\Seekfree_CH32V103R8T6_Opensource_Library\obj/../Libraries/wch_libraries/Peripheral/ch32v10x_gpio.c:96
  { 
    currentmode |= (uint32_t)GPIO_InitStruct->GPIO_Speed;
     76c:	41dc                	lw	a5,4(a1)
     76e:	00f8e8b3          	or	a7,a7,a5
D:\1.intelligent vehicle\new try\seefree\Seekfree_CH32V103R8T6_Opensource_Library\obj/../Libraries/wch_libraries/Peripheral/ch32v10x_gpio.c:99
  }

  if (((uint32_t)GPIO_InitStruct->GPIO_Pin & ((uint32_t)0x00FF)) != 0x00)
     772:	0005c783          	lbu	a5,0(a1)
     776:	cba9                	beqz	a5,7c8 <GPIO_Init+0x66>
D:\1.intelligent vehicle\new try\seefree\Seekfree_CH32V103R8T6_Opensource_Library\obj/../Libraries/wch_libraries/Peripheral/ch32v10x_gpio.c:101
  {
    tmpreg = GPIOx->CFGLR;
     778:	4110                	lw	a2,0(a0)
D:\1.intelligent vehicle\new try\seefree\Seekfree_CH32V103R8T6_Opensource_Library\obj/../Libraries/wch_libraries/Peripheral/ch32v10x_gpio.c:103
		
    for (pinpos = 0x00; pinpos < 0x08; pinpos++)
     77a:	4781                	li	a5,0
D:\1.intelligent vehicle\new try\seefree\Seekfree_CH32V103R8T6_Opensource_Library\obj/../Libraries/wch_libraries/Peripheral/ch32v10x_gpio.c:105
    {
      pos = ((uint32_t)0x01) << pinpos;
     77c:	4e05                	li	t3,1
D:\1.intelligent vehicle\new try\seefree\Seekfree_CH32V103R8T6_Opensource_Library\obj/../Libraries/wch_libraries/Peripheral/ch32v10x_gpio.c:111
      currentpin = (GPIO_InitStruct->GPIO_Pin) & pos;
			
      if (currentpin == pos)
      {
        pos = pinpos << 2;
        pinmask = ((uint32_t)0x0F) << pos;
     77e:	4f3d                	li	t5,15
D:\1.intelligent vehicle\new try\seefree\Seekfree_CH32V103R8T6_Opensource_Library\obj/../Libraries/wch_libraries/Peripheral/ch32v10x_gpio.c:115
        tmpreg &= ~pinmask;
        tmpreg |= (currentmode << pos);

        if (GPIO_InitStruct->GPIO_Mode == GPIO_Mode_IPD)
     780:	02800e93          	li	t4,40
D:\1.intelligent vehicle\new try\seefree\Seekfree_CH32V103R8T6_Opensource_Library\obj/../Libraries/wch_libraries/Peripheral/ch32v10x_gpio.c:121
        {
          GPIOx->BCR = (((uint32_t)0x01) << pinpos);
        }
        else
        {
          if (GPIO_InitStruct->GPIO_Mode == GPIO_Mode_IPU)
     784:	04800f93          	li	t6,72
D:\1.intelligent vehicle\new try\seefree\Seekfree_CH32V103R8T6_Opensource_Library\obj/../Libraries/wch_libraries/Peripheral/ch32v10x_gpio.c:103
    for (pinpos = 0x00; pinpos < 0x08; pinpos++)
     788:	4321                	li	t1,8
     78a:	a029                	j	794 <GPIO_Init+0x32>
D:\1.intelligent vehicle\new try\seefree\Seekfree_CH32V103R8T6_Opensource_Library\obj/../Libraries/wch_libraries/Peripheral/ch32v10x_gpio.c:117
          GPIOx->BCR = (((uint32_t)0x01) << pinpos);
     78c:	c954                	sw	a3,20(a0)
D:\1.intelligent vehicle\new try\seefree\Seekfree_CH32V103R8T6_Opensource_Library\obj/../Libraries/wch_libraries/Peripheral/ch32v10x_gpio.c:103 (discriminator 2)
    for (pinpos = 0x00; pinpos < 0x08; pinpos++)
     78e:	0785                	addi	a5,a5,1
     790:	02678b63          	beq	a5,t1,7c6 <GPIO_Init+0x64>
D:\1.intelligent vehicle\new try\seefree\Seekfree_CH32V103R8T6_Opensource_Library\obj/../Libraries/wch_libraries/Peripheral/ch32v10x_gpio.c:105
      pos = ((uint32_t)0x01) << pinpos;
     794:	00fe16b3          	sll	a3,t3,a5
D:\1.intelligent vehicle\new try\seefree\Seekfree_CH32V103R8T6_Opensource_Library\obj/../Libraries/wch_libraries/Peripheral/ch32v10x_gpio.c:106
      currentpin = (GPIO_InitStruct->GPIO_Pin) & pos;
     798:	0005d703          	lhu	a4,0(a1)
     79c:	8f75                	and	a4,a4,a3
D:\1.intelligent vehicle\new try\seefree\Seekfree_CH32V103R8T6_Opensource_Library\obj/../Libraries/wch_libraries/Peripheral/ch32v10x_gpio.c:108
      if (currentpin == pos)
     79e:	fee698e3          	bne	a3,a4,78e <GPIO_Init+0x2c>
D:\1.intelligent vehicle\new try\seefree\Seekfree_CH32V103R8T6_Opensource_Library\obj/../Libraries/wch_libraries/Peripheral/ch32v10x_gpio.c:110
        pos = pinpos << 2;
     7a2:	00279713          	slli	a4,a5,0x2
D:\1.intelligent vehicle\new try\seefree\Seekfree_CH32V103R8T6_Opensource_Library\obj/../Libraries/wch_libraries/Peripheral/ch32v10x_gpio.c:111
        pinmask = ((uint32_t)0x0F) << pos;
     7a6:	00ef1833          	sll	a6,t5,a4
D:\1.intelligent vehicle\new try\seefree\Seekfree_CH32V103R8T6_Opensource_Library\obj/../Libraries/wch_libraries/Peripheral/ch32v10x_gpio.c:112
        tmpreg &= ~pinmask;
     7aa:	fff84813          	not	a6,a6
     7ae:	00c87633          	and	a2,a6,a2
D:\1.intelligent vehicle\new try\seefree\Seekfree_CH32V103R8T6_Opensource_Library\obj/../Libraries/wch_libraries/Peripheral/ch32v10x_gpio.c:113
        tmpreg |= (currentmode << pos);
     7b2:	00e89733          	sll	a4,a7,a4
     7b6:	8e59                	or	a2,a2,a4
D:\1.intelligent vehicle\new try\seefree\Seekfree_CH32V103R8T6_Opensource_Library\obj/../Libraries/wch_libraries/Peripheral/ch32v10x_gpio.c:115
        if (GPIO_InitStruct->GPIO_Mode == GPIO_Mode_IPD)
     7b8:	4598                	lw	a4,8(a1)
     7ba:	fdd709e3          	beq	a4,t4,78c <GPIO_Init+0x2a>
D:\1.intelligent vehicle\new try\seefree\Seekfree_CH32V103R8T6_Opensource_Library\obj/../Libraries/wch_libraries/Peripheral/ch32v10x_gpio.c:121
          if (GPIO_InitStruct->GPIO_Mode == GPIO_Mode_IPU)
     7be:	fdf718e3          	bne	a4,t6,78e <GPIO_Init+0x2c>
D:\1.intelligent vehicle\new try\seefree\Seekfree_CH32V103R8T6_Opensource_Library\obj/../Libraries/wch_libraries/Peripheral/ch32v10x_gpio.c:123
          {
            GPIOx->BSHR = (((uint32_t)0x01) << pinpos);
     7c2:	c914                	sw	a3,16(a0)
     7c4:	b7e9                	j	78e <GPIO_Init+0x2c>
D:\1.intelligent vehicle\new try\seefree\Seekfree_CH32V103R8T6_Opensource_Library\obj/../Libraries/wch_libraries/Peripheral/ch32v10x_gpio.c:128
          }
        }
      }
    }
    GPIOx->CFGLR = tmpreg;
     7c6:	c110                	sw	a2,0(a0)
D:\1.intelligent vehicle\new try\seefree\Seekfree_CH32V103R8T6_Opensource_Library\obj/../Libraries/wch_libraries/Peripheral/ch32v10x_gpio.c:131
  }

  if (GPIO_InitStruct->GPIO_Pin > 0x00FF)
     7c8:	0005d703          	lhu	a4,0(a1)
     7cc:	0ff00793          	li	a5,255
     7d0:	04e7fd63          	bgeu	a5,a4,82a <__stack_size+0x2a>
D:\1.intelligent vehicle\new try\seefree\Seekfree_CH32V103R8T6_Opensource_Library\obj/../Libraries/wch_libraries/Peripheral/ch32v10x_gpio.c:133
  {
    tmpreg = GPIOx->CFGHR;
     7d4:	4150                	lw	a2,4(a0)
     7d6:	47a1                	li	a5,8
D:\1.intelligent vehicle\new try\seefree\Seekfree_CH32V103R8T6_Opensource_Library\obj/../Libraries/wch_libraries/Peripheral/ch32v10x_gpio.c:137
		
    for (pinpos = 0x00; pinpos < 0x08; pinpos++)
    {
      pos = (((uint32_t)0x01) << (pinpos + 0x08));
     7d8:	4e05                	li	t3,1
D:\1.intelligent vehicle\new try\seefree\Seekfree_CH32V103R8T6_Opensource_Library\obj/../Libraries/wch_libraries/Peripheral/ch32v10x_gpio.c:143
      currentpin = ((GPIO_InitStruct->GPIO_Pin) & pos);
			
      if (currentpin == pos)
      {
        pos = pinpos << 2;
        pinmask = ((uint32_t)0x0F) << pos;
     7da:	4fbd                	li	t6,15
D:\1.intelligent vehicle\new try\seefree\Seekfree_CH32V103R8T6_Opensource_Library\obj/../Libraries/wch_libraries/Peripheral/ch32v10x_gpio.c:147
        tmpreg &= ~pinmask;
        tmpreg |= (currentmode << pos);

        if (GPIO_InitStruct->GPIO_Mode == GPIO_Mode_IPD)
     7dc:	02800f13          	li	t5,40
D:\1.intelligent vehicle\new try\seefree\Seekfree_CH32V103R8T6_Opensource_Library\obj/../Libraries/wch_libraries/Peripheral/ch32v10x_gpio.c:152
        {
          GPIOx->BCR = (((uint32_t)0x01) << (pinpos + 0x08));
        }

        if (GPIO_InitStruct->GPIO_Mode == GPIO_Mode_IPU)
     7e0:	04800e93          	li	t4,72
D:\1.intelligent vehicle\new try\seefree\Seekfree_CH32V103R8T6_Opensource_Library\obj/../Libraries/wch_libraries/Peripheral/ch32v10x_gpio.c:135
    for (pinpos = 0x00; pinpos < 0x08; pinpos++)
     7e4:	4341                	li	t1,16
     7e6:	a031                	j	7f2 <GPIO_Init+0x90>
D:\1.intelligent vehicle\new try\seefree\Seekfree_CH32V103R8T6_Opensource_Library\obj/../Libraries/wch_libraries/Peripheral/ch32v10x_gpio.c:149
          GPIOx->BCR = (((uint32_t)0x01) << (pinpos + 0x08));
     7e8:	c954                	sw	a3,20(a0)
     7ea:	a815                	j	81e <__stack_size+0x1e>
     7ec:	0785                	addi	a5,a5,1
D:\1.intelligent vehicle\new try\seefree\Seekfree_CH32V103R8T6_Opensource_Library\obj/../Libraries/wch_libraries/Peripheral/ch32v10x_gpio.c:135 (discriminator 2)
    for (pinpos = 0x00; pinpos < 0x08; pinpos++)
     7ee:	02678d63          	beq	a5,t1,828 <__stack_size+0x28>
D:\1.intelligent vehicle\new try\seefree\Seekfree_CH32V103R8T6_Opensource_Library\obj/../Libraries/wch_libraries/Peripheral/ch32v10x_gpio.c:137
      pos = (((uint32_t)0x01) << (pinpos + 0x08));
     7f2:	00fe16b3          	sll	a3,t3,a5
D:\1.intelligent vehicle\new try\seefree\Seekfree_CH32V103R8T6_Opensource_Library\obj/../Libraries/wch_libraries/Peripheral/ch32v10x_gpio.c:138
      currentpin = ((GPIO_InitStruct->GPIO_Pin) & pos);
     7f6:	0005d703          	lhu	a4,0(a1)
     7fa:	8f75                	and	a4,a4,a3
D:\1.intelligent vehicle\new try\seefree\Seekfree_CH32V103R8T6_Opensource_Library\obj/../Libraries/wch_libraries/Peripheral/ch32v10x_gpio.c:140
      if (currentpin == pos)
     7fc:	fee698e3          	bne	a3,a4,7ec <GPIO_Init+0x8a>
D:\1.intelligent vehicle\new try\seefree\Seekfree_CH32V103R8T6_Opensource_Library\obj/../Libraries/wch_libraries/Peripheral/ch32v10x_gpio.c:142
        pos = pinpos << 2;
     800:	00279713          	slli	a4,a5,0x2
     804:	1701                	addi	a4,a4,-32
D:\1.intelligent vehicle\new try\seefree\Seekfree_CH32V103R8T6_Opensource_Library\obj/../Libraries/wch_libraries/Peripheral/ch32v10x_gpio.c:143
        pinmask = ((uint32_t)0x0F) << pos;
     806:	00ef9833          	sll	a6,t6,a4
D:\1.intelligent vehicle\new try\seefree\Seekfree_CH32V103R8T6_Opensource_Library\obj/../Libraries/wch_libraries/Peripheral/ch32v10x_gpio.c:144
        tmpreg &= ~pinmask;
     80a:	fff84813          	not	a6,a6
     80e:	00c87633          	and	a2,a6,a2
D:\1.intelligent vehicle\new try\seefree\Seekfree_CH32V103R8T6_Opensource_Library\obj/../Libraries/wch_libraries/Peripheral/ch32v10x_gpio.c:145
        tmpreg |= (currentmode << pos);
     812:	00e89733          	sll	a4,a7,a4
     816:	8e59                	or	a2,a2,a4
D:\1.intelligent vehicle\new try\seefree\Seekfree_CH32V103R8T6_Opensource_Library\obj/../Libraries/wch_libraries/Peripheral/ch32v10x_gpio.c:147
        if (GPIO_InitStruct->GPIO_Mode == GPIO_Mode_IPD)
     818:	4598                	lw	a4,8(a1)
     81a:	fde707e3          	beq	a4,t5,7e8 <GPIO_Init+0x86>
D:\1.intelligent vehicle\new try\seefree\Seekfree_CH32V103R8T6_Opensource_Library\obj/../Libraries/wch_libraries/Peripheral/ch32v10x_gpio.c:152
        if (GPIO_InitStruct->GPIO_Mode == GPIO_Mode_IPU)
     81e:	4598                	lw	a4,8(a1)
     820:	fdd716e3          	bne	a4,t4,7ec <GPIO_Init+0x8a>
D:\1.intelligent vehicle\new try\seefree\Seekfree_CH32V103R8T6_Opensource_Library\obj/../Libraries/wch_libraries/Peripheral/ch32v10x_gpio.c:154
        {
          GPIOx->BSHR = (((uint32_t)0x01) << (pinpos + 0x08));
     824:	c914                	sw	a3,16(a0)
     826:	b7d9                	j	7ec <GPIO_Init+0x8a>
D:\1.intelligent vehicle\new try\seefree\Seekfree_CH32V103R8T6_Opensource_Library\obj/../Libraries/wch_libraries/Peripheral/ch32v10x_gpio.c:158
        }
      }
    }
    GPIOx->CFGHR = tmpreg;
     828:	c150                	sw	a2,4(a0)
D:\1.intelligent vehicle\new try\seefree\Seekfree_CH32V103R8T6_Opensource_Library\obj/../Libraries/wch_libraries/Peripheral/ch32v10x_gpio.c:160
  }
}
     82a:	8082                	ret

0000082c <GPIO_WriteBit>:
GPIO_WriteBit():
D:\1.intelligent vehicle\new try\seefree\Seekfree_CH32V103R8T6_Opensource_Library\obj/../Libraries/wch_libraries/Peripheral/ch32v10x_gpio.c:283
*                    Bit_SetH: to set the port pin.                  
* Return         : None
*******************************************************************************/
void GPIO_WriteBit(GPIO_TypeDef* GPIOx, uint16_t GPIO_Pin, BitAction BitVal)
{
  if (BitVal != Bit_RESET)
     82c:	c219                	beqz	a2,832 <GPIO_WriteBit+0x6>
D:\1.intelligent vehicle\new try\seefree\Seekfree_CH32V103R8T6_Opensource_Library\obj/../Libraries/wch_libraries/Peripheral/ch32v10x_gpio.c:285
  {
    GPIOx->BSHR = GPIO_Pin;
     82e:	c90c                	sw	a1,16(a0)
     830:	8082                	ret
D:\1.intelligent vehicle\new try\seefree\Seekfree_CH32V103R8T6_Opensource_Library\obj/../Libraries/wch_libraries/Peripheral/ch32v10x_gpio.c:289
  }
  else
  {
    GPIOx->BCR = GPIO_Pin;
     832:	c94c                	sw	a1,20(a0)
D:\1.intelligent vehicle\new try\seefree\Seekfree_CH32V103R8T6_Opensource_Library\obj/../Libraries/wch_libraries/Peripheral/ch32v10x_gpio.c:291
  }
}
     834:	8082                	ret

00000836 <GPIO_PinRemapConfig>:
GPIO_PinRemapConfig():
D:\1.intelligent vehicle\new try\seefree\Seekfree_CH32V103R8T6_Opensource_Library\obj/../Libraries/wch_libraries/Peripheral/ch32v10x_gpio.c:405
*******************************************************************************/
void GPIO_PinRemapConfig(uint32_t GPIO_Remap, FunctionalState NewState)
{
  uint32_t tmp = 0x00, tmp1 = 0x00, tmpreg = 0x00, tmpmask = 0x00;

  if((GPIO_Remap & 0x80000000) == 0x80000000)
     836:	862a                	mv	a2,a0
     838:	04054063          	bltz	a0,878 <GPIO_PinRemapConfig+0x42>
D:\1.intelligent vehicle\new try\seefree\Seekfree_CH32V103R8T6_Opensource_Library\obj/../Libraries/wch_libraries/Peripheral/ch32v10x_gpio.c:411
  {
    tmpreg = AFIO->PCFR2;
  }
  else
  {
    tmpreg = AFIO->PCFR1;
     83c:	400107b7          	lui	a5,0x40010
     840:	43dc                	lw	a5,4(a5)
D:\1.intelligent vehicle\new try\seefree\Seekfree_CH32V103R8T6_Opensource_Library\obj/../Libraries/wch_libraries/Peripheral/ch32v10x_gpio.c:415
  }

  tmpmask = (GPIO_Remap & DBGAFR_POSITION_MASK) >> 0x10;
  tmp = GPIO_Remap & LSB_MASK;
     842:	01051693          	slli	a3,a0,0x10
     846:	82c1                	srli	a3,a3,0x10
D:\1.intelligent vehicle\new try\seefree\Seekfree_CH32V103R8T6_Opensource_Library\obj/../Libraries/wch_libraries/Peripheral/ch32v10x_gpio.c:417

  if ((GPIO_Remap & (DBGAFR_LOCATION_MASK | DBGAFR_NUMBITS_MASK)) == (DBGAFR_LOCATION_MASK | DBGAFR_NUMBITS_MASK))
     848:	00300737          	lui	a4,0x300
     84c:	00e57833          	and	a6,a0,a4
     850:	02e80863          	beq	a6,a4,880 <GPIO_PinRemapConfig+0x4a>
D:\1.intelligent vehicle\new try\seefree\Seekfree_CH32V103R8T6_Opensource_Library\obj/../Libraries/wch_libraries/Peripheral/ch32v10x_gpio.c:422
  {
    tmpreg &= DBGAFR_SWJCFG_MASK;
    AFIO->PCFR1 &= DBGAFR_SWJCFG_MASK;
  }
  else if ((GPIO_Remap & DBGAFR_NUMBITS_MASK) == DBGAFR_NUMBITS_MASK)
     854:	00b51713          	slli	a4,a0,0xb
     858:	04075c63          	bgez	a4,8b0 <GPIO_PinRemapConfig+0x7a>
D:\1.intelligent vehicle\new try\seefree\Seekfree_CH32V103R8T6_Opensource_Library\obj/../Libraries/wch_libraries/Peripheral/ch32v10x_gpio.c:414
  tmpmask = (GPIO_Remap & DBGAFR_POSITION_MASK) >> 0x10;
     85c:	01055713          	srli	a4,a0,0x10
     860:	00f77813          	andi	a6,a4,15
D:\1.intelligent vehicle\new try\seefree\Seekfree_CH32V103R8T6_Opensource_Library\obj/../Libraries/wch_libraries/Peripheral/ch32v10x_gpio.c:424
  {
    tmp1 = ((uint32_t)0x03) << tmpmask;
     864:	470d                	li	a4,3
     866:	01071733          	sll	a4,a4,a6
D:\1.intelligent vehicle\new try\seefree\Seekfree_CH32V103R8T6_Opensource_Library\obj/../Libraries/wch_libraries/Peripheral/ch32v10x_gpio.c:425
    tmpreg &= ~tmp1;
     86a:	fff74713          	not	a4,a4
     86e:	8f7d                	and	a4,a4,a5
D:\1.intelligent vehicle\new try\seefree\Seekfree_CH32V103R8T6_Opensource_Library\obj/../Libraries/wch_libraries/Peripheral/ch32v10x_gpio.c:426
    tmpreg |= ~DBGAFR_SWJCFG_MASK;
     870:	0f0007b7          	lui	a5,0xf000
     874:	8fd9                	or	a5,a5,a4
     876:	a00d                	j	898 <GPIO_PinRemapConfig+0x62>
D:\1.intelligent vehicle\new try\seefree\Seekfree_CH32V103R8T6_Opensource_Library\obj/../Libraries/wch_libraries/Peripheral/ch32v10x_gpio.c:407
    tmpreg = AFIO->PCFR2;
     878:	400107b7          	lui	a5,0x40010
     87c:	4fdc                	lw	a5,28(a5)
     87e:	b7d1                	j	842 <GPIO_PinRemapConfig+0xc>
D:\1.intelligent vehicle\new try\seefree\Seekfree_CH32V103R8T6_Opensource_Library\obj/../Libraries/wch_libraries/Peripheral/ch32v10x_gpio.c:419
    tmpreg &= DBGAFR_SWJCFG_MASK;
     880:	f1000737          	lui	a4,0xf1000
     884:	177d                	addi	a4,a4,-1
     886:	8ff9                	and	a5,a5,a4
D:\1.intelligent vehicle\new try\seefree\Seekfree_CH32V103R8T6_Opensource_Library\obj/../Libraries/wch_libraries/Peripheral/ch32v10x_gpio.c:420
    AFIO->PCFR1 &= DBGAFR_SWJCFG_MASK;
     888:	400108b7          	lui	a7,0x40010
     88c:	0048a803          	lw	a6,4(a7) # 40010004 <_eusrstack+0x2000b004>
     890:	00e87733          	and	a4,a6,a4
     894:	00e8a223          	sw	a4,4(a7)
D:\1.intelligent vehicle\new try\seefree\Seekfree_CH32V103R8T6_Opensource_Library\obj/../Libraries/wch_libraries/Peripheral/ch32v10x_gpio.c:434
  {
    tmpreg &= ~(tmp << ((GPIO_Remap >> 0x15)*0x10));
    tmpreg |= ~DBGAFR_SWJCFG_MASK;
  }

  if (NewState != DISABLE)
     898:	c591                	beqz	a1,8a4 <GPIO_PinRemapConfig+0x6e>
D:\1.intelligent vehicle\new try\seefree\Seekfree_CH32V103R8T6_Opensource_Library\obj/../Libraries/wch_libraries/Peripheral/ch32v10x_gpio.c:436
  {
    tmpreg |= (tmp << ((GPIO_Remap >> 0x15)*0x10));
     89a:	8155                	srli	a0,a0,0x15
     89c:	0512                	slli	a0,a0,0x4
     89e:	00a69533          	sll	a0,a3,a0
     8a2:	8fc9                	or	a5,a5,a0
D:\1.intelligent vehicle\new try\seefree\Seekfree_CH32V103R8T6_Opensource_Library\obj/../Libraries/wch_libraries/Peripheral/ch32v10x_gpio.c:439
  }

  if((GPIO_Remap & 0x80000000) == 0x80000000)
     8a4:	02064263          	bltz	a2,8c8 <GPIO_PinRemapConfig+0x92>
D:\1.intelligent vehicle\new try\seefree\Seekfree_CH32V103R8T6_Opensource_Library\obj/../Libraries/wch_libraries/Peripheral/ch32v10x_gpio.c:445
  {
    AFIO->PCFR2 = tmpreg;
  }
  else
  {
    AFIO->PCFR1 = tmpreg;
     8a8:	40010737          	lui	a4,0x40010
     8ac:	c35c                	sw	a5,4(a4)
D:\1.intelligent vehicle\new try\seefree\Seekfree_CH32V103R8T6_Opensource_Library\obj/../Libraries/wch_libraries/Peripheral/ch32v10x_gpio.c:447
  }  
}
     8ae:	8082                	ret
D:\1.intelligent vehicle\new try\seefree\Seekfree_CH32V103R8T6_Opensource_Library\obj/../Libraries/wch_libraries/Peripheral/ch32v10x_gpio.c:430
    tmpreg &= ~(tmp << ((GPIO_Remap >> 0x15)*0x10));
     8b0:	01555713          	srli	a4,a0,0x15
     8b4:	0712                	slli	a4,a4,0x4
     8b6:	00e69733          	sll	a4,a3,a4
     8ba:	fff74713          	not	a4,a4
     8be:	8f7d                	and	a4,a4,a5
D:\1.intelligent vehicle\new try\seefree\Seekfree_CH32V103R8T6_Opensource_Library\obj/../Libraries/wch_libraries/Peripheral/ch32v10x_gpio.c:431
    tmpreg |= ~DBGAFR_SWJCFG_MASK;
     8c0:	0f0007b7          	lui	a5,0xf000
     8c4:	8fd9                	or	a5,a5,a4
     8c6:	bfc9                	j	898 <GPIO_PinRemapConfig+0x62>
D:\1.intelligent vehicle\new try\seefree\Seekfree_CH32V103R8T6_Opensource_Library\obj/../Libraries/wch_libraries/Peripheral/ch32v10x_gpio.c:441
    AFIO->PCFR2 = tmpreg;
     8c8:	40010737          	lui	a4,0x40010
     8cc:	cf5c                	sw	a5,28(a4)
     8ce:	8082                	ret

000008d0 <GPIO_EXTILineConfig>:
GPIO_EXTILineConfig():
D:\1.intelligent vehicle\new try\seefree\Seekfree_CH32V103R8T6_Opensource_Library\obj/../Libraries/wch_libraries/Peripheral/ch32v10x_gpio.c:462
*******************************************************************************/
void GPIO_EXTILineConfig(uint8_t GPIO_PortSource, uint8_t GPIO_PinSource)
{
  uint32_t tmp = 0x00;

  tmp = ((uint32_t)0x0F) << (0x04 * (GPIO_PinSource & (uint8_t)0x03));
     8d0:	0035f793          	andi	a5,a1,3
     8d4:	078a                	slli	a5,a5,0x2
D:\1.intelligent vehicle\new try\seefree\Seekfree_CH32V103R8T6_Opensource_Library\obj/../Libraries/wch_libraries/Peripheral/ch32v10x_gpio.c:463
  AFIO->EXTICR[GPIO_PinSource >> 0x02] &= ~tmp;
     8d6:	0fc5f713          	andi	a4,a1,252
     8da:	400105b7          	lui	a1,0x40010
     8de:	95ba                	add	a1,a1,a4
     8e0:	4594                	lw	a3,8(a1)
D:\1.intelligent vehicle\new try\seefree\Seekfree_CH32V103R8T6_Opensource_Library\obj/../Libraries/wch_libraries/Peripheral/ch32v10x_gpio.c:462
  tmp = ((uint32_t)0x0F) << (0x04 * (GPIO_PinSource & (uint8_t)0x03));
     8e2:	473d                	li	a4,15
     8e4:	00f71733          	sll	a4,a4,a5
D:\1.intelligent vehicle\new try\seefree\Seekfree_CH32V103R8T6_Opensource_Library\obj/../Libraries/wch_libraries/Peripheral/ch32v10x_gpio.c:463
  AFIO->EXTICR[GPIO_PinSource >> 0x02] &= ~tmp;
     8e8:	fff74713          	not	a4,a4
     8ec:	8f75                	and	a4,a4,a3
     8ee:	c598                	sw	a4,8(a1)
D:\1.intelligent vehicle\new try\seefree\Seekfree_CH32V103R8T6_Opensource_Library\obj/../Libraries/wch_libraries/Peripheral/ch32v10x_gpio.c:464
  AFIO->EXTICR[GPIO_PinSource >> 0x02] |= (((uint32_t)GPIO_PortSource) << (0x04 * (GPIO_PinSource & (uint8_t)0x03)));
     8f0:	4598                	lw	a4,8(a1)
     8f2:	00f51533          	sll	a0,a0,a5
     8f6:	8d59                	or	a0,a0,a4
     8f8:	c588                	sw	a0,8(a1)
D:\1.intelligent vehicle\new try\seefree\Seekfree_CH32V103R8T6_Opensource_Library\obj/../Libraries/wch_libraries/Peripheral/ch32v10x_gpio.c:465
}
     8fa:	8082                	ret

000008fc <NVIC_Init>:
NVIC_Init():
D:\1.intelligent vehicle\new try\seefree\Seekfree_CH32V103R8T6_Opensource_Library\obj/../Libraries/wch_libraries/Peripheral/ch32v10x_misc.c:47
*******************************************************************************************/
void NVIC_Init(NVIC_InitTypeDef* NVIC_InitStruct)
{
	//uint8_t tmppre = 0;

	if((PFIC->CFGR&(1<<1)) != 0)                    //中断嵌套标志位：1为关闭
     8fc:	e000e7b7          	lui	a5,0xe000e
     900:	47bc                	lw	a5,72(a5)
     902:	8b89                	andi	a5,a5,2
     904:	cf95                	beqz	a5,940 <NVIC_Init+0x44>
D:\1.intelligent vehicle\new try\seefree\Seekfree_CH32V103R8T6_Opensource_Library\obj/../Libraries/wch_libraries/Peripheral/ch32v10x_misc.c:49
	{
		NVIC_SetPriority( NVIC_InitStruct->NVIC_IRQChannel, NVIC_InitStruct->NVIC_IRQChannelSubPriority<<4);
     906:	00054683          	lbu	a3,0(a0)
     90a:	00254783          	lbu	a5,2(a0)
     90e:	0792                	slli	a5,a5,0x4
     910:	0ff7f793          	andi	a5,a5,255
NVIC_SetPriority():
D:\1.intelligent vehicle\new try\seefree\Seekfree_CH32V103R8T6_Opensource_Library\obj/../Libraries/wch_libraries/Core/core_riscv.h:209
*                            bit6-bit4: subpriority
* Return         : None
*******************************************************************************/
RV_STATIC_INLINE void NVIC_SetPriority(IRQn_Type IRQn, uint8_t priority)
{
  NVIC->IPRIOR[(uint32_t)(IRQn)] = priority;
     914:	e000e737          	lui	a4,0xe000e
     918:	9736                	add	a4,a4,a3
     91a:	40f70023          	sb	a5,1024(a4) # e000e400 <_eusrstack+0xc0009400>
NVIC_Init():
D:\1.intelligent vehicle\new try\seefree\Seekfree_CH32V103R8T6_Opensource_Library\obj/../Libraries/wch_libraries/Peripheral/ch32v10x_misc.c:93
//	else if(NVIC_Priority_Group == NVIC_PriorityGroup_4)
//	{
//		NVIC_SetPriority( NVIC_InitStruct->NVIC_IRQChannel, NVIC_InitStruct->NVIC_IRQChannelPreemptionPriority<<4);
//	}

  if (NVIC_InitStruct->NVIC_IRQChannelCmd != DISABLE)
     91e:	415c                	lw	a5,4(a0)
     920:	c7b5                	beqz	a5,98c <NVIC_Init+0x90>
D:\1.intelligent vehicle\new try\seefree\Seekfree_CH32V103R8T6_Opensource_Library\obj/../Libraries/wch_libraries/Peripheral/ch32v10x_misc.c:95
  {
  	NVIC_EnableIRQ(NVIC_InitStruct->NVIC_IRQChannel);
     922:	00054703          	lbu	a4,0(a0)
NVIC_EnableIRQ():
D:\1.intelligent vehicle\new try\seefree\Seekfree_CH32V103R8T6_Opensource_Library\obj/../Libraries/wch_libraries/Core/core_riscv.h:127
  NVIC->IENR[((uint32_t)(IRQn) >> 5)] = (1 << ((uint32_t)(IRQn) & 0x1F));
     926:	00575793          	srli	a5,a4,0x5
     92a:	4685                	li	a3,1
     92c:	00e696b3          	sll	a3,a3,a4
     930:	04078793          	addi	a5,a5,64 # e000e040 <_eusrstack+0xc0009040>
     934:	078a                	slli	a5,a5,0x2
     936:	e000e737          	lui	a4,0xe000e
     93a:	97ba                	add	a5,a5,a4
     93c:	c394                	sw	a3,0(a5)
     93e:	8082                	ret
NVIC_Init():
D:\1.intelligent vehicle\new try\seefree\Seekfree_CH32V103R8T6_Opensource_Library\obj/../Libraries/wch_libraries/Peripheral/ch32v10x_misc.c:51
	else if((PFIC->CFGR&(1<<1)) == 0)               //中断嵌套标志位：0为打开
     940:	e000e7b7          	lui	a5,0xe000e
     944:	47bc                	lw	a5,72(a5)
     946:	8b89                	andi	a5,a5,2
     948:	fbf9                	bnez	a5,91e <NVIC_Init+0x22>
D:\1.intelligent vehicle\new try\seefree\Seekfree_CH32V103R8T6_Opensource_Library\obj/../Libraries/wch_libraries/Peripheral/ch32v10x_misc.c:53
        if(NVIC_InitStruct->NVIC_IRQChannelPreemptionPriority == 1)
     94a:	00154703          	lbu	a4,1(a0)
     94e:	4785                	li	a5,1
     950:	00f70f63          	beq	a4,a5,96e <NVIC_Init+0x72>
D:\1.intelligent vehicle\new try\seefree\Seekfree_CH32V103R8T6_Opensource_Library\obj/../Libraries/wch_libraries/Peripheral/ch32v10x_misc.c:59
            NVIC_SetPriority( NVIC_InitStruct->NVIC_IRQChannel, (0<<7)|(NVIC_InitStruct->NVIC_IRQChannelSubPriority<<4));
     954:	00054683          	lbu	a3,0(a0)
     958:	00254783          	lbu	a5,2(a0)
     95c:	0792                	slli	a5,a5,0x4
     95e:	0ff7f793          	andi	a5,a5,255
NVIC_SetPriority():
D:\1.intelligent vehicle\new try\seefree\Seekfree_CH32V103R8T6_Opensource_Library\obj/../Libraries/wch_libraries/Core/core_riscv.h:209
  NVIC->IPRIOR[(uint32_t)(IRQn)] = priority;
     962:	e000e737          	lui	a4,0xe000e
     966:	9736                	add	a4,a4,a3
     968:	40f70023          	sb	a5,1024(a4) # e000e400 <_eusrstack+0xc0009400>
     96c:	bf4d                	j	91e <NVIC_Init+0x22>
NVIC_Init():
D:\1.intelligent vehicle\new try\seefree\Seekfree_CH32V103R8T6_Opensource_Library\obj/../Libraries/wch_libraries/Peripheral/ch32v10x_misc.c:55
            NVIC_SetPriority( NVIC_InitStruct->NVIC_IRQChannel, (1<<7)|(NVIC_InitStruct->NVIC_IRQChannelSubPriority<<4));
     96e:	00054683          	lbu	a3,0(a0)
     972:	00254783          	lbu	a5,2(a0)
     976:	0792                	slli	a5,a5,0x4
     978:	f807e793          	ori	a5,a5,-128
     97c:	0ff7f793          	andi	a5,a5,255
NVIC_SetPriority():
D:\1.intelligent vehicle\new try\seefree\Seekfree_CH32V103R8T6_Opensource_Library\obj/../Libraries/wch_libraries/Core/core_riscv.h:209
     980:	e000e737          	lui	a4,0xe000e
     984:	9736                	add	a4,a4,a3
     986:	40f70023          	sb	a5,1024(a4) # e000e400 <_eusrstack+0xc0009400>
     98a:	bf51                	j	91e <NVIC_Init+0x22>
NVIC_Init():
D:\1.intelligent vehicle\new try\seefree\Seekfree_CH32V103R8T6_Opensource_Library\obj/../Libraries/wch_libraries/Peripheral/ch32v10x_misc.c:99
  }
  else
  {
  	NVIC_DisableIRQ(NVIC_InitStruct->NVIC_IRQChannel);
     98c:	00054703          	lbu	a4,0(a0)
NVIC_DisableIRQ():
D:\1.intelligent vehicle\new try\seefree\Seekfree_CH32V103R8T6_Opensource_Library\obj/../Libraries/wch_libraries/Core/core_riscv.h:138
  NVIC->IRER[((uint32_t)(IRQn) >> 5)] = (1 << ((uint32_t)(IRQn) & 0x1F));
     990:	00575793          	srli	a5,a4,0x5
     994:	4685                	li	a3,1
     996:	00e696b3          	sll	a3,a3,a4
     99a:	06078793          	addi	a5,a5,96 # e000e060 <_eusrstack+0xc0009060>
     99e:	078a                	slli	a5,a5,0x2
     9a0:	e000e737          	lui	a4,0xe000e
     9a4:	97ba                	add	a5,a5,a4
     9a6:	c394                	sw	a3,0(a5)
NVIC_Init():
D:\1.intelligent vehicle\new try\seefree\Seekfree_CH32V103R8T6_Opensource_Library\obj/../Libraries/wch_libraries/Peripheral/ch32v10x_misc.c:101
  }
}
     9a8:	8082                	ret

000009aa <RCC_ADCCLKConfig>:
RCC_ADCCLKConfig():
D:\1.intelligent vehicle\new try\seefree\Seekfree_CH32V103R8T6_Opensource_Library\obj/../Libraries/wch_libraries/Peripheral/ch32v10x_rcc.c:376
********************************************************************************/
void RCC_ADCCLKConfig(uint32_t RCC_PCLK2)
{
  uint32_t tmpreg = 0;

  tmpreg = RCC->CFGR0;
     9aa:	400216b7          	lui	a3,0x40021
     9ae:	42dc                	lw	a5,4(a3)
D:\1.intelligent vehicle\new try\seefree\Seekfree_CH32V103R8T6_Opensource_Library\obj/../Libraries/wch_libraries/Peripheral/ch32v10x_rcc.c:377
  tmpreg &= CFGR0_ADCPRE_Reset_Mask;
     9b0:	7751                	lui	a4,0xffff4
     9b2:	177d                	addi	a4,a4,-1
     9b4:	8ff9                	and	a5,a5,a4
D:\1.intelligent vehicle\new try\seefree\Seekfree_CH32V103R8T6_Opensource_Library\obj/../Libraries/wch_libraries/Peripheral/ch32v10x_rcc.c:378
  tmpreg |= RCC_PCLK2;
     9b6:	8d5d                	or	a0,a0,a5
D:\1.intelligent vehicle\new try\seefree\Seekfree_CH32V103R8T6_Opensource_Library\obj/../Libraries/wch_libraries/Peripheral/ch32v10x_rcc.c:379
  RCC->CFGR0 = tmpreg;
     9b8:	c2c8                	sw	a0,4(a3)
D:\1.intelligent vehicle\new try\seefree\Seekfree_CH32V103R8T6_Opensource_Library\obj/../Libraries/wch_libraries/Peripheral/ch32v10x_rcc.c:380
}
     9ba:	8082                	ret

000009bc <RCC_GetClocksFreq>:
RCC_GetClocksFreq():
D:\1.intelligent vehicle\new try\seefree\Seekfree_CH32V103R8T6_Opensource_Library\obj/../Libraries/wch_libraries/Peripheral/ch32v10x_rcc.c:472
********************************************************************************/
void RCC_GetClocksFreq(RCC_ClocksTypeDef* RCC_Clocks)
{
  uint32_t tmp = 0, pllmull = 0, pllsource = 0, presc = 0;
  
  tmp = RCC->CFGR0 & CFGR0_SWS_Mask;
     9bc:	400217b7          	lui	a5,0x40021
     9c0:	43dc                	lw	a5,4(a5)
     9c2:	8bb1                	andi	a5,a5,12
D:\1.intelligent vehicle\new try\seefree\Seekfree_CH32V103R8T6_Opensource_Library\obj/../Libraries/wch_libraries/Peripheral/ch32v10x_rcc.c:474
  
  switch (tmp)
     9c4:	4711                	li	a4,4
     9c6:	08e78463          	beq	a5,a4,a4e <RCC_GetClocksFreq+0x92>
     9ca:	4721                	li	a4,8
     9cc:	08e78763          	beq	a5,a4,a5a <RCC_GetClocksFreq+0x9e>
     9d0:	c799                	beqz	a5,9de <RCC_GetClocksFreq+0x22>
D:\1.intelligent vehicle\new try\seefree\Seekfree_CH32V103R8T6_Opensource_Library\obj/../Libraries/wch_libraries/Peripheral/ch32v10x_rcc.c:507
        }
      } 
      break;

    default:
      RCC_Clocks->SYSCLK_Frequency = HSI_VALUE;
     9d2:	007a17b7          	lui	a5,0x7a1
     9d6:	20078793          	addi	a5,a5,512 # 7a1200 <_data_lma+0x79b310>
     9da:	c11c                	sw	a5,0(a0)
D:\1.intelligent vehicle\new try\seefree\Seekfree_CH32V103R8T6_Opensource_Library\obj/../Libraries/wch_libraries/Peripheral/ch32v10x_rcc.c:508
      break;
     9dc:	a031                	j	9e8 <RCC_GetClocksFreq+0x2c>
D:\1.intelligent vehicle\new try\seefree\Seekfree_CH32V103R8T6_Opensource_Library\obj/../Libraries/wch_libraries/Peripheral/ch32v10x_rcc.c:477
      RCC_Clocks->SYSCLK_Frequency = HSI_VALUE;
     9de:	007a17b7          	lui	a5,0x7a1
     9e2:	20078793          	addi	a5,a5,512 # 7a1200 <_data_lma+0x79b310>
     9e6:	c11c                	sw	a5,0(a0)
D:\1.intelligent vehicle\new try\seefree\Seekfree_CH32V103R8T6_Opensource_Library\obj/../Libraries/wch_libraries/Peripheral/ch32v10x_rcc.c:511
  }

  tmp = RCC->CFGR0 & CFGR0_HPRE_Set_Mask;
     9e8:	40021637          	lui	a2,0x40021
     9ec:	425c                	lw	a5,4(a2)
D:\1.intelligent vehicle\new try\seefree\Seekfree_CH32V103R8T6_Opensource_Library\obj/../Libraries/wch_libraries/Peripheral/ch32v10x_rcc.c:512
  tmp = tmp >> 4;
     9ee:	8391                	srli	a5,a5,0x4
     9f0:	8bbd                	andi	a5,a5,15
D:\1.intelligent vehicle\new try\seefree\Seekfree_CH32V103R8T6_Opensource_Library\obj/../Libraries/wch_libraries/Peripheral/ch32v10x_rcc.c:513
  presc = APBAHBPrescTable[tmp];
     9f2:	20000737          	lui	a4,0x20000
     9f6:	00070713          	mv	a4,a4
     9fa:	97ba                	add	a5,a5,a4
     9fc:	0007c683          	lbu	a3,0(a5)
D:\1.intelligent vehicle\new try\seefree\Seekfree_CH32V103R8T6_Opensource_Library\obj/../Libraries/wch_libraries/Peripheral/ch32v10x_rcc.c:514
  RCC_Clocks->HCLK_Frequency = RCC_Clocks->SYSCLK_Frequency >> presc;
     a00:	411c                	lw	a5,0(a0)
     a02:	00d7d7b3          	srl	a5,a5,a3
     a06:	c15c                	sw	a5,4(a0)
D:\1.intelligent vehicle\new try\seefree\Seekfree_CH32V103R8T6_Opensource_Library\obj/../Libraries/wch_libraries/Peripheral/ch32v10x_rcc.c:515
  tmp = RCC->CFGR0 & CFGR0_PPRE1_Set_Mask;
     a08:	4254                	lw	a3,4(a2)
D:\1.intelligent vehicle\new try\seefree\Seekfree_CH32V103R8T6_Opensource_Library\obj/../Libraries/wch_libraries/Peripheral/ch32v10x_rcc.c:516
  tmp = tmp >> 8;
     a0a:	82a1                	srli	a3,a3,0x8
     a0c:	8a9d                	andi	a3,a3,7
D:\1.intelligent vehicle\new try\seefree\Seekfree_CH32V103R8T6_Opensource_Library\obj/../Libraries/wch_libraries/Peripheral/ch32v10x_rcc.c:517
  presc = APBAHBPrescTable[tmp];
     a0e:	96ba                	add	a3,a3,a4
     a10:	0006c683          	lbu	a3,0(a3) # 40021000 <_eusrstack+0x2001c000>
D:\1.intelligent vehicle\new try\seefree\Seekfree_CH32V103R8T6_Opensource_Library\obj/../Libraries/wch_libraries/Peripheral/ch32v10x_rcc.c:518
  RCC_Clocks->PCLK1_Frequency = RCC_Clocks->HCLK_Frequency >> presc;
     a14:	00d7d6b3          	srl	a3,a5,a3
     a18:	c514                	sw	a3,8(a0)
D:\1.intelligent vehicle\new try\seefree\Seekfree_CH32V103R8T6_Opensource_Library\obj/../Libraries/wch_libraries/Peripheral/ch32v10x_rcc.c:519
  tmp = RCC->CFGR0 & CFGR0_PPRE2_Set_Mask;
     a1a:	4254                	lw	a3,4(a2)
D:\1.intelligent vehicle\new try\seefree\Seekfree_CH32V103R8T6_Opensource_Library\obj/../Libraries/wch_libraries/Peripheral/ch32v10x_rcc.c:520
  tmp = tmp >> 11;
     a1c:	82ad                	srli	a3,a3,0xb
     a1e:	8a9d                	andi	a3,a3,7
D:\1.intelligent vehicle\new try\seefree\Seekfree_CH32V103R8T6_Opensource_Library\obj/../Libraries/wch_libraries/Peripheral/ch32v10x_rcc.c:521
  presc = APBAHBPrescTable[tmp];
     a20:	9736                	add	a4,a4,a3
     a22:	00074703          	lbu	a4,0(a4) # 20000000 <_data_vma>
D:\1.intelligent vehicle\new try\seefree\Seekfree_CH32V103R8T6_Opensource_Library\obj/../Libraries/wch_libraries/Peripheral/ch32v10x_rcc.c:522
  RCC_Clocks->PCLK2_Frequency = RCC_Clocks->HCLK_Frequency >> presc;
     a26:	00e7d7b3          	srl	a5,a5,a4
     a2a:	c55c                	sw	a5,12(a0)
D:\1.intelligent vehicle\new try\seefree\Seekfree_CH32V103R8T6_Opensource_Library\obj/../Libraries/wch_libraries/Peripheral/ch32v10x_rcc.c:523
  tmp = RCC->CFGR0 & CFGR0_ADCPRE_Set_Mask;
     a2c:	4258                	lw	a4,4(a2)
D:\1.intelligent vehicle\new try\seefree\Seekfree_CH32V103R8T6_Opensource_Library\obj/../Libraries/wch_libraries/Peripheral/ch32v10x_rcc.c:524
  tmp = tmp >> 14;
     a2e:	8339                	srli	a4,a4,0xe
     a30:	00377693          	andi	a3,a4,3
D:\1.intelligent vehicle\new try\seefree\Seekfree_CH32V103R8T6_Opensource_Library\obj/../Libraries/wch_libraries/Peripheral/ch32v10x_rcc.c:525
  presc = ADCPrescTable[tmp];
     a34:	20000737          	lui	a4,0x20000
     a38:	07070713          	addi	a4,a4,112 # 20000070 <ADCPrescTable>
     a3c:	9736                	add	a4,a4,a3
     a3e:	00074703          	lbu	a4,0(a4)
     a42:	0ff77713          	andi	a4,a4,255
D:\1.intelligent vehicle\new try\seefree\Seekfree_CH32V103R8T6_Opensource_Library\obj/../Libraries/wch_libraries/Peripheral/ch32v10x_rcc.c:526
  RCC_Clocks->ADCCLK_Frequency = RCC_Clocks->PCLK2_Frequency / presc;
     a46:	02e7d7b3          	divu	a5,a5,a4
     a4a:	c91c                	sw	a5,16(a0)
D:\1.intelligent vehicle\new try\seefree\Seekfree_CH32V103R8T6_Opensource_Library\obj/../Libraries/wch_libraries/Peripheral/ch32v10x_rcc.c:527
}
     a4c:	8082                	ret
D:\1.intelligent vehicle\new try\seefree\Seekfree_CH32V103R8T6_Opensource_Library\obj/../Libraries/wch_libraries/Peripheral/ch32v10x_rcc.c:481
      RCC_Clocks->SYSCLK_Frequency = HSE_VALUE;
     a4e:	007a17b7          	lui	a5,0x7a1
     a52:	20078793          	addi	a5,a5,512 # 7a1200 <_data_lma+0x79b310>
     a56:	c11c                	sw	a5,0(a0)
D:\1.intelligent vehicle\new try\seefree\Seekfree_CH32V103R8T6_Opensource_Library\obj/../Libraries/wch_libraries/Peripheral/ch32v10x_rcc.c:482
      break;
     a58:	bf41                	j	9e8 <RCC_GetClocksFreq+0x2c>
D:\1.intelligent vehicle\new try\seefree\Seekfree_CH32V103R8T6_Opensource_Library\obj/../Libraries/wch_libraries/Peripheral/ch32v10x_rcc.c:485
      pllmull = RCC->CFGR0 & CFGR0_PLLMull_Mask;
     a5a:	40021737          	lui	a4,0x40021
     a5e:	435c                	lw	a5,4(a4)
D:\1.intelligent vehicle\new try\seefree\Seekfree_CH32V103R8T6_Opensource_Library\obj/../Libraries/wch_libraries/Peripheral/ch32v10x_rcc.c:486
      pllsource = RCC->CFGR0 & CFGR0_PLLSRC_Mask;    
     a60:	4358                	lw	a4,4(a4)
D:\1.intelligent vehicle\new try\seefree\Seekfree_CH32V103R8T6_Opensource_Library\obj/../Libraries/wch_libraries/Peripheral/ch32v10x_rcc.c:487
      pllmull = ( pllmull >> 18) + 2;
     a62:	83c9                	srli	a5,a5,0x12
     a64:	8bbd                	andi	a5,a5,15
     a66:	0789                	addi	a5,a5,2
D:\1.intelligent vehicle\new try\seefree\Seekfree_CH32V103R8T6_Opensource_Library\obj/../Libraries/wch_libraries/Peripheral/ch32v10x_rcc.c:489
      if (pllsource == 0x00)
     a68:	00f71693          	slli	a3,a4,0xf
     a6c:	0006ca63          	bltz	a3,a80 <RCC_GetClocksFreq+0xc4>
D:\1.intelligent vehicle\new try\seefree\Seekfree_CH32V103R8T6_Opensource_Library\obj/../Libraries/wch_libraries/Peripheral/ch32v10x_rcc.c:491
        RCC_Clocks->SYSCLK_Frequency = (HSI_VALUE >> 1) * pllmull;
     a70:	003d1737          	lui	a4,0x3d1
     a74:	90070713          	addi	a4,a4,-1792 # 3d0900 <_data_lma+0x3caa10>
     a78:	02e787b3          	mul	a5,a5,a4
     a7c:	c11c                	sw	a5,0(a0)
     a7e:	b7ad                	j	9e8 <RCC_GetClocksFreq+0x2c>
D:\1.intelligent vehicle\new try\seefree\Seekfree_CH32V103R8T6_Opensource_Library\obj/../Libraries/wch_libraries/Peripheral/ch32v10x_rcc.c:495
        if ((RCC->CFGR0 & CFGR0_PLLXTPRE_Mask) != (uint32_t)RESET)
     a80:	40021737          	lui	a4,0x40021
     a84:	4358                	lw	a4,4(a4)
     a86:	00e71693          	slli	a3,a4,0xe
     a8a:	0006da63          	bgez	a3,a9e <RCC_GetClocksFreq+0xe2>
D:\1.intelligent vehicle\new try\seefree\Seekfree_CH32V103R8T6_Opensource_Library\obj/../Libraries/wch_libraries/Peripheral/ch32v10x_rcc.c:497
          RCC_Clocks->SYSCLK_Frequency = (HSE_VALUE >> 1) * pllmull;
     a8e:	003d1737          	lui	a4,0x3d1
     a92:	90070713          	addi	a4,a4,-1792 # 3d0900 <_data_lma+0x3caa10>
     a96:	02e787b3          	mul	a5,a5,a4
     a9a:	c11c                	sw	a5,0(a0)
     a9c:	b7b1                	j	9e8 <RCC_GetClocksFreq+0x2c>
D:\1.intelligent vehicle\new try\seefree\Seekfree_CH32V103R8T6_Opensource_Library\obj/../Libraries/wch_libraries/Peripheral/ch32v10x_rcc.c:501
          RCC_Clocks->SYSCLK_Frequency = HSE_VALUE * pllmull;
     a9e:	007a1737          	lui	a4,0x7a1
     aa2:	20070713          	addi	a4,a4,512 # 7a1200 <_data_lma+0x79b310>
     aa6:	02e787b3          	mul	a5,a5,a4
     aaa:	c11c                	sw	a5,0(a0)
     aac:	bf35                	j	9e8 <RCC_GetClocksFreq+0x2c>

00000aae <RCC_APB2PeriphClockCmd>:
RCC_APB2PeriphClockCmd():
D:\1.intelligent vehicle\new try\seefree\Seekfree_CH32V103R8T6_Opensource_Library\obj/../Libraries/wch_libraries/Peripheral/ch32v10x_rcc.c:571
*                  NewState: ENABLE or DISABLE
* Return         : None
*******************************************************************************/	
void RCC_APB2PeriphClockCmd(uint32_t RCC_APB2Periph, FunctionalState NewState)
{
  if (NewState != DISABLE)
     aae:	c599                	beqz	a1,abc <RCC_APB2PeriphClockCmd+0xe>
D:\1.intelligent vehicle\new try\seefree\Seekfree_CH32V103R8T6_Opensource_Library\obj/../Libraries/wch_libraries/Peripheral/ch32v10x_rcc.c:573
  {
    RCC->APB2PCENR |= RCC_APB2Periph;
     ab0:	40021737          	lui	a4,0x40021
     ab4:	4f1c                	lw	a5,24(a4)
     ab6:	8d5d                	or	a0,a0,a5
     ab8:	cf08                	sw	a0,24(a4)
     aba:	8082                	ret
D:\1.intelligent vehicle\new try\seefree\Seekfree_CH32V103R8T6_Opensource_Library\obj/../Libraries/wch_libraries/Peripheral/ch32v10x_rcc.c:577
  }
  else
  {
    RCC->APB2PCENR &= ~RCC_APB2Periph;
     abc:	400217b7          	lui	a5,0x40021
     ac0:	4f98                	lw	a4,24(a5)
     ac2:	fff54513          	not	a0,a0
     ac6:	8d79                	and	a0,a0,a4
     ac8:	cf88                	sw	a0,24(a5)
D:\1.intelligent vehicle\new try\seefree\Seekfree_CH32V103R8T6_Opensource_Library\obj/../Libraries/wch_libraries/Peripheral/ch32v10x_rcc.c:579
  }
}
     aca:	8082                	ret

00000acc <RCC_APB1PeriphClockCmd>:
RCC_APB1PeriphClockCmd():
D:\1.intelligent vehicle\new try\seefree\Seekfree_CH32V103R8T6_Opensource_Library\obj/../Libraries/wch_libraries/Peripheral/ch32v10x_rcc.c:604
*                  NewState: ENABLE or DISABLE.
* Return         : None
*******************************************************************************/	
void RCC_APB1PeriphClockCmd(uint32_t RCC_APB1Periph, FunctionalState NewState)
{
  if (NewState != DISABLE)
     acc:	c599                	beqz	a1,ada <RCC_APB1PeriphClockCmd+0xe>
D:\1.intelligent vehicle\new try\seefree\Seekfree_CH32V103R8T6_Opensource_Library\obj/../Libraries/wch_libraries/Peripheral/ch32v10x_rcc.c:606
  {
    RCC->APB1PCENR |= RCC_APB1Periph;
     ace:	40021737          	lui	a4,0x40021
     ad2:	4f5c                	lw	a5,28(a4)
     ad4:	8d5d                	or	a0,a0,a5
     ad6:	cf48                	sw	a0,28(a4)
     ad8:	8082                	ret
D:\1.intelligent vehicle\new try\seefree\Seekfree_CH32V103R8T6_Opensource_Library\obj/../Libraries/wch_libraries/Peripheral/ch32v10x_rcc.c:610
  }
  else
  {
    RCC->APB1PCENR &= ~RCC_APB1Periph;
     ada:	400217b7          	lui	a5,0x40021
     ade:	4fd8                	lw	a4,28(a5)
     ae0:	fff54513          	not	a0,a0
     ae4:	8d79                	and	a0,a0,a4
     ae6:	cfc8                	sw	a0,28(a5)
D:\1.intelligent vehicle\new try\seefree\Seekfree_CH32V103R8T6_Opensource_Library\obj/../Libraries/wch_libraries/Peripheral/ch32v10x_rcc.c:612
  }
}
     ae8:	8082                	ret

00000aea <RCC_APB2PeriphResetCmd>:
RCC_APB2PeriphResetCmd():
D:\1.intelligent vehicle\new try\seefree\Seekfree_CH32V103R8T6_Opensource_Library\obj/../Libraries/wch_libraries/Peripheral/ch32v10x_rcc.c:632
*                  NewState: ENABLE or DISABLE.
* Return         : None
*******************************************************************************/	
void RCC_APB2PeriphResetCmd(uint32_t RCC_APB2Periph, FunctionalState NewState)
{
  if (NewState != DISABLE)
     aea:	c599                	beqz	a1,af8 <RCC_APB2PeriphResetCmd+0xe>
D:\1.intelligent vehicle\new try\seefree\Seekfree_CH32V103R8T6_Opensource_Library\obj/../Libraries/wch_libraries/Peripheral/ch32v10x_rcc.c:634
  {
    RCC->APB2PRSTR |= RCC_APB2Periph;
     aec:	40021737          	lui	a4,0x40021
     af0:	475c                	lw	a5,12(a4)
     af2:	8d5d                	or	a0,a0,a5
     af4:	c748                	sw	a0,12(a4)
     af6:	8082                	ret
D:\1.intelligent vehicle\new try\seefree\Seekfree_CH32V103R8T6_Opensource_Library\obj/../Libraries/wch_libraries/Peripheral/ch32v10x_rcc.c:638
  }
  else
  {
    RCC->APB2PRSTR &= ~RCC_APB2Periph;
     af8:	400217b7          	lui	a5,0x40021
     afc:	47d8                	lw	a4,12(a5)
     afe:	fff54513          	not	a0,a0
     b02:	8d79                	and	a0,a0,a4
     b04:	c7c8                	sw	a0,12(a5)
D:\1.intelligent vehicle\new try\seefree\Seekfree_CH32V103R8T6_Opensource_Library\obj/../Libraries/wch_libraries/Peripheral/ch32v10x_rcc.c:640
  }
}
     b06:	8082                	ret

00000b08 <SPI_Init>:
SPI_Init():
D:\1.intelligent vehicle\new try\seefree\Seekfree_CH32V103R8T6_Opensource_Library\obj/../Libraries/wch_libraries/Peripheral/ch32v10x_spi.c:86
*******************************************************************************/
void SPI_Init(SPI_TypeDef* SPIx, SPI_InitTypeDef* SPI_InitStruct)
{
  uint16_t tmpreg = 0;
  
  tmpreg = SPIx->CTLR1;
     b08:	00055703          	lhu	a4,0(a0)
D:\1.intelligent vehicle\new try\seefree\Seekfree_CH32V103R8T6_Opensource_Library\obj/../Libraries/wch_libraries/Peripheral/ch32v10x_spi.c:87
  tmpreg &= CTLR1_CLEAR_Mask;
     b0c:	678d                	lui	a5,0x3
     b0e:	04078793          	addi	a5,a5,64 # 3040 <hcar_motor_control+0x46>
     b12:	8f7d                	and	a4,a4,a5
D:\1.intelligent vehicle\new try\seefree\Seekfree_CH32V103R8T6_Opensource_Library\obj/../Libraries/wch_libraries/Peripheral/ch32v10x_spi.c:88
  tmpreg |= (uint16_t)((uint32_t)SPI_InitStruct->SPI_Direction | SPI_InitStruct->SPI_Mode |
     b14:	0005d783          	lhu	a5,0(a1) # 40010000 <_eusrstack+0x2000b000>
     b18:	0025d683          	lhu	a3,2(a1)
     b1c:	8fd5                	or	a5,a5,a3
     b1e:	0045d683          	lhu	a3,4(a1)
     b22:	8fd5                	or	a5,a5,a3
     b24:	0065d683          	lhu	a3,6(a1)
     b28:	8fd5                	or	a5,a5,a3
     b2a:	0085d683          	lhu	a3,8(a1)
     b2e:	8fd5                	or	a5,a5,a3
     b30:	00a5d683          	lhu	a3,10(a1)
     b34:	8fd5                	or	a5,a5,a3
     b36:	00c5d683          	lhu	a3,12(a1)
     b3a:	8fd5                	or	a5,a5,a3
     b3c:	00e5d683          	lhu	a3,14(a1)
     b40:	8fd5                	or	a5,a5,a3
     b42:	8fd9                	or	a5,a5,a4
D:\1.intelligent vehicle\new try\seefree\Seekfree_CH32V103R8T6_Opensource_Library\obj/../Libraries/wch_libraries/Peripheral/ch32v10x_spi.c:93
                  SPI_InitStruct->SPI_DataSize | SPI_InitStruct->SPI_CPOL |  
                  SPI_InitStruct->SPI_CPHA | SPI_InitStruct->SPI_NSS |  
                  SPI_InitStruct->SPI_BaudRatePrescaler | SPI_InitStruct->SPI_FirstBit);

  SPIx->CTLR1 = tmpreg;
     b44:	00f51023          	sh	a5,0(a0)
D:\1.intelligent vehicle\new try\seefree\Seekfree_CH32V103R8T6_Opensource_Library\obj/../Libraries/wch_libraries/Peripheral/ch32v10x_spi.c:94
  SPIx->I2SCFGR &= SPI_Mode_Select;		
     b48:	01c55703          	lhu	a4,28(a0)
     b4c:	77fd                	lui	a5,0xfffff
     b4e:	7ff78793          	addi	a5,a5,2047 # fffff7ff <_eusrstack+0xdfffa7ff>
     b52:	8ff9                	and	a5,a5,a4
     b54:	00f51e23          	sh	a5,28(a0)
D:\1.intelligent vehicle\new try\seefree\Seekfree_CH32V103R8T6_Opensource_Library\obj/../Libraries/wch_libraries/Peripheral/ch32v10x_spi.c:95
  SPIx->CRCR = SPI_InitStruct->SPI_CRCPolynomial;
     b58:	0105d783          	lhu	a5,16(a1)
     b5c:	00f51823          	sh	a5,16(a0)
D:\1.intelligent vehicle\new try\seefree\Seekfree_CH32V103R8T6_Opensource_Library\obj/../Libraries/wch_libraries/Peripheral/ch32v10x_spi.c:96
}
     b60:	8082                	ret

00000b62 <SPI_Cmd>:
SPI_Cmd():
D:\1.intelligent vehicle\new try\seefree\Seekfree_CH32V103R8T6_Opensource_Library\obj/../Libraries/wch_libraries/Peripheral/ch32v10x_spi.c:222
*                  NewState: ENABLE or DISABLE.
* Return         : None
*******************************************************************************/
void SPI_Cmd(SPI_TypeDef* SPIx, FunctionalState NewState)
{
  if (NewState != DISABLE)
     b62:	c981                	beqz	a1,b72 <SPI_Cmd+0x10>
D:\1.intelligent vehicle\new try\seefree\Seekfree_CH32V103R8T6_Opensource_Library\obj/../Libraries/wch_libraries/Peripheral/ch32v10x_spi.c:224
  {
    SPIx->CTLR1 |= CTLR1_SPE_Set;
     b64:	00055783          	lhu	a5,0(a0)
     b68:	0407e793          	ori	a5,a5,64
     b6c:	00f51023          	sh	a5,0(a0)
     b70:	8082                	ret
D:\1.intelligent vehicle\new try\seefree\Seekfree_CH32V103R8T6_Opensource_Library\obj/../Libraries/wch_libraries/Peripheral/ch32v10x_spi.c:228
  }
  else
  {
    SPIx->CTLR1 &= CTLR1_SPE_Reset;
     b72:	00055783          	lhu	a5,0(a0)
     b76:	07c2                	slli	a5,a5,0x10
     b78:	83c1                	srli	a5,a5,0x10
     b7a:	fbf7f793          	andi	a5,a5,-65
     b7e:	07c2                	slli	a5,a5,0x10
     b80:	83c1                	srli	a5,a5,0x10
     b82:	00f51023          	sh	a5,0(a0)
D:\1.intelligent vehicle\new try\seefree\Seekfree_CH32V103R8T6_Opensource_Library\obj/../Libraries/wch_libraries/Peripheral/ch32v10x_spi.c:230
  }
}
     b86:	8082                	ret

00000b88 <TIM_TimeBaseInit>:
TIM_TimeBaseInit():
D:\1.intelligent vehicle\new try\seefree\Seekfree_CH32V103R8T6_Opensource_Library\obj/../Libraries/wch_libraries/Peripheral/ch32v10x_tim.c:70
*******************************************************************************/
void TIM_TimeBaseInit(TIM_TypeDef* TIMx, TIM_TimeBaseInitTypeDef* TIM_TimeBaseInitStruct)
{
  uint16_t tmpcr1 = 0;

  tmpcr1 = TIMx->CTLR1;  
     b88:	00055783          	lhu	a5,0(a0)
     b8c:	07c2                	slli	a5,a5,0x10
     b8e:	83c1                	srli	a5,a5,0x10
D:\1.intelligent vehicle\new try\seefree\Seekfree_CH32V103R8T6_Opensource_Library\obj/../Libraries/wch_libraries/Peripheral/ch32v10x_tim.c:72

  if((TIMx == TIM1) || (TIMx == TIM2) || (TIMx == TIM3)|| (TIMx == TIM4)) 
     b90:	40013737          	lui	a4,0x40013
     b94:	c0070713          	addi	a4,a4,-1024 # 40012c00 <_eusrstack+0x2000dc00>
     b98:	04e50063          	beq	a0,a4,bd8 <TIM_TimeBaseInit+0x50>
D:\1.intelligent vehicle\new try\seefree\Seekfree_CH32V103R8T6_Opensource_Library\obj/../Libraries/wch_libraries/Peripheral/ch32v10x_tim.c:72 (discriminator 1)
     b9c:	40000737          	lui	a4,0x40000
     ba0:	06e50763          	beq	a0,a4,c0e <TIM_TimeBaseInit+0x86>
D:\1.intelligent vehicle\new try\seefree\Seekfree_CH32V103R8T6_Opensource_Library\obj/../Libraries/wch_libraries/Peripheral/ch32v10x_tim.c:72 (discriminator 2)
     ba4:	40070713          	addi	a4,a4,1024 # 40000400 <_eusrstack+0x1fffb400>
     ba8:	06e50363          	beq	a0,a4,c0e <TIM_TimeBaseInit+0x86>
D:\1.intelligent vehicle\new try\seefree\Seekfree_CH32V103R8T6_Opensource_Library\obj/../Libraries/wch_libraries/Peripheral/ch32v10x_tim.c:72 (discriminator 3)
     bac:	40001737          	lui	a4,0x40001
     bb0:	80070713          	addi	a4,a4,-2048 # 40000800 <_eusrstack+0x1fffb800>
     bb4:	04e50d63          	beq	a0,a4,c0e <TIM_TimeBaseInit+0x86>
D:\1.intelligent vehicle\new try\seefree\Seekfree_CH32V103R8T6_Opensource_Library\obj/../Libraries/wch_libraries/Peripheral/ch32v10x_tim.c:78
  {
    tmpcr1 &= (uint16_t)(~((uint16_t)(TIM_DIR | TIM_CMS)));
    tmpcr1 |= (uint32_t)TIM_TimeBaseInitStruct->TIM_CounterMode;
  }

  tmpcr1 &= (uint16_t)(~((uint16_t)TIM_CTLR1_CKD));
     bb8:	cff7f793          	andi	a5,a5,-769
D:\1.intelligent vehicle\new try\seefree\Seekfree_CH32V103R8T6_Opensource_Library\obj/../Libraries/wch_libraries/Peripheral/ch32v10x_tim.c:79
  tmpcr1 |= (uint32_t)TIM_TimeBaseInitStruct->TIM_ClockDivision;
     bbc:	0065d703          	lhu	a4,6(a1)
     bc0:	8fd9                	or	a5,a5,a4
D:\1.intelligent vehicle\new try\seefree\Seekfree_CH32V103R8T6_Opensource_Library\obj/../Libraries/wch_libraries/Peripheral/ch32v10x_tim.c:81

  TIMx->CTLR1 = tmpcr1;
     bc2:	00f51023          	sh	a5,0(a0)
D:\1.intelligent vehicle\new try\seefree\Seekfree_CH32V103R8T6_Opensource_Library\obj/../Libraries/wch_libraries/Peripheral/ch32v10x_tim.c:82
  TIMx->ATRLR = TIM_TimeBaseInitStruct->TIM_Period ;
     bc6:	0045d783          	lhu	a5,4(a1)
     bca:	02f51623          	sh	a5,44(a0)
D:\1.intelligent vehicle\new try\seefree\Seekfree_CH32V103R8T6_Opensource_Library\obj/../Libraries/wch_libraries/Peripheral/ch32v10x_tim.c:83
  TIMx->PSC = TIM_TimeBaseInitStruct->TIM_Prescaler;
     bce:	0005d783          	lhu	a5,0(a1)
     bd2:	02f51423          	sh	a5,40(a0)
D:\1.intelligent vehicle\new try\seefree\Seekfree_CH32V103R8T6_Opensource_Library\obj/../Libraries/wch_libraries/Peripheral/ch32v10x_tim.c:85
    
  if (TIMx == TIM1)  
     bd6:	a085                	j	c36 <TIM_TimeBaseInit+0xae>
D:\1.intelligent vehicle\new try\seefree\Seekfree_CH32V103R8T6_Opensource_Library\obj/../Libraries/wch_libraries/Peripheral/ch32v10x_tim.c:74
    tmpcr1 &= (uint16_t)(~((uint16_t)(TIM_DIR | TIM_CMS)));
     bd8:	f8f7f793          	andi	a5,a5,-113
D:\1.intelligent vehicle\new try\seefree\Seekfree_CH32V103R8T6_Opensource_Library\obj/../Libraries/wch_libraries/Peripheral/ch32v10x_tim.c:75
    tmpcr1 |= (uint32_t)TIM_TimeBaseInitStruct->TIM_CounterMode;
     bdc:	0025d703          	lhu	a4,2(a1)
     be0:	8fd9                	or	a5,a5,a4
D:\1.intelligent vehicle\new try\seefree\Seekfree_CH32V103R8T6_Opensource_Library\obj/../Libraries/wch_libraries/Peripheral/ch32v10x_tim.c:78
  tmpcr1 &= (uint16_t)(~((uint16_t)TIM_CTLR1_CKD));
     be2:	cff7f793          	andi	a5,a5,-769
D:\1.intelligent vehicle\new try\seefree\Seekfree_CH32V103R8T6_Opensource_Library\obj/../Libraries/wch_libraries/Peripheral/ch32v10x_tim.c:79
  tmpcr1 |= (uint32_t)TIM_TimeBaseInitStruct->TIM_ClockDivision;
     be6:	0065d703          	lhu	a4,6(a1)
     bea:	8fd9                	or	a5,a5,a4
D:\1.intelligent vehicle\new try\seefree\Seekfree_CH32V103R8T6_Opensource_Library\obj/../Libraries/wch_libraries/Peripheral/ch32v10x_tim.c:81
  TIMx->CTLR1 = tmpcr1;
     bec:	00f51023          	sh	a5,0(a0)
D:\1.intelligent vehicle\new try\seefree\Seekfree_CH32V103R8T6_Opensource_Library\obj/../Libraries/wch_libraries/Peripheral/ch32v10x_tim.c:82
  TIMx->ATRLR = TIM_TimeBaseInitStruct->TIM_Period ;
     bf0:	0045d783          	lhu	a5,4(a1)
     bf4:	02f51623          	sh	a5,44(a0)
D:\1.intelligent vehicle\new try\seefree\Seekfree_CH32V103R8T6_Opensource_Library\obj/../Libraries/wch_libraries/Peripheral/ch32v10x_tim.c:83
  TIMx->PSC = TIM_TimeBaseInitStruct->TIM_Prescaler;
     bf8:	0005d783          	lhu	a5,0(a1)
     bfc:	02f51423          	sh	a5,40(a0)
D:\1.intelligent vehicle\new try\seefree\Seekfree_CH32V103R8T6_Opensource_Library\obj/../Libraries/wch_libraries/Peripheral/ch32v10x_tim.c:87
  {
    TIMx->RPTCR = TIM_TimeBaseInitStruct->TIM_RepetitionCounter;
     c00:	0085c703          	lbu	a4,8(a1)
     c04:	400137b7          	lui	a5,0x40013
     c08:	c2e79823          	sh	a4,-976(a5) # 40012c30 <_eusrstack+0x2000dc30>
     c0c:	a02d                	j	c36 <TIM_TimeBaseInit+0xae>
D:\1.intelligent vehicle\new try\seefree\Seekfree_CH32V103R8T6_Opensource_Library\obj/../Libraries/wch_libraries/Peripheral/ch32v10x_tim.c:74
    tmpcr1 &= (uint16_t)(~((uint16_t)(TIM_DIR | TIM_CMS)));
     c0e:	f8f7f793          	andi	a5,a5,-113
D:\1.intelligent vehicle\new try\seefree\Seekfree_CH32V103R8T6_Opensource_Library\obj/../Libraries/wch_libraries/Peripheral/ch32v10x_tim.c:75
    tmpcr1 |= (uint32_t)TIM_TimeBaseInitStruct->TIM_CounterMode;
     c12:	0025d703          	lhu	a4,2(a1)
     c16:	8fd9                	or	a5,a5,a4
D:\1.intelligent vehicle\new try\seefree\Seekfree_CH32V103R8T6_Opensource_Library\obj/../Libraries/wch_libraries/Peripheral/ch32v10x_tim.c:78
  tmpcr1 &= (uint16_t)(~((uint16_t)TIM_CTLR1_CKD));
     c18:	cff7f793          	andi	a5,a5,-769
D:\1.intelligent vehicle\new try\seefree\Seekfree_CH32V103R8T6_Opensource_Library\obj/../Libraries/wch_libraries/Peripheral/ch32v10x_tim.c:79
  tmpcr1 |= (uint32_t)TIM_TimeBaseInitStruct->TIM_ClockDivision;
     c1c:	0065d703          	lhu	a4,6(a1)
     c20:	8fd9                	or	a5,a5,a4
D:\1.intelligent vehicle\new try\seefree\Seekfree_CH32V103R8T6_Opensource_Library\obj/../Libraries/wch_libraries/Peripheral/ch32v10x_tim.c:81
  TIMx->CTLR1 = tmpcr1;
     c22:	00f51023          	sh	a5,0(a0)
D:\1.intelligent vehicle\new try\seefree\Seekfree_CH32V103R8T6_Opensource_Library\obj/../Libraries/wch_libraries/Peripheral/ch32v10x_tim.c:82
  TIMx->ATRLR = TIM_TimeBaseInitStruct->TIM_Period ;
     c26:	0045d783          	lhu	a5,4(a1)
     c2a:	02f51623          	sh	a5,44(a0)
D:\1.intelligent vehicle\new try\seefree\Seekfree_CH32V103R8T6_Opensource_Library\obj/../Libraries/wch_libraries/Peripheral/ch32v10x_tim.c:83
  TIMx->PSC = TIM_TimeBaseInitStruct->TIM_Prescaler;
     c2e:	0005d783          	lhu	a5,0(a1)
     c32:	02f51423          	sh	a5,40(a0)
D:\1.intelligent vehicle\new try\seefree\Seekfree_CH32V103R8T6_Opensource_Library\obj/../Libraries/wch_libraries/Peripheral/ch32v10x_tim.c:90
  }

  TIMx->SWEVGR = TIM_PSCReloadMode_Immediate;           
     c36:	4785                	li	a5,1
     c38:	00f51a23          	sh	a5,20(a0)
D:\1.intelligent vehicle\new try\seefree\Seekfree_CH32V103R8T6_Opensource_Library\obj/../Libraries/wch_libraries/Peripheral/ch32v10x_tim.c:91
}
     c3c:	8082                	ret

00000c3e <TIM_OC1Init>:
TIM_OC1Init():
D:\1.intelligent vehicle\new try\seefree\Seekfree_CH32V103R8T6_Opensource_Library\obj/../Libraries/wch_libraries/Peripheral/ch32v10x_tim.c:105
*******************************************************************************/
void TIM_OC1Init(TIM_TypeDef* TIMx, TIM_OCInitTypeDef* TIM_OCInitStruct)
{
  uint16_t tmpccmrx = 0, tmpccer = 0, tmpcr2 = 0;
     
  TIMx->CCER &= (uint16_t)(~(uint16_t)TIM_CC1E);
     c3e:	02055783          	lhu	a5,32(a0)
     c42:	07c2                	slli	a5,a5,0x10
     c44:	83c1                	srli	a5,a5,0x10
     c46:	9bf9                	andi	a5,a5,-2
     c48:	07c2                	slli	a5,a5,0x10
     c4a:	83c1                	srli	a5,a5,0x10
     c4c:	02f51023          	sh	a5,32(a0)
D:\1.intelligent vehicle\new try\seefree\Seekfree_CH32V103R8T6_Opensource_Library\obj/../Libraries/wch_libraries/Peripheral/ch32v10x_tim.c:106
  tmpccer = TIMx->CCER;
     c50:	02055783          	lhu	a5,32(a0)
     c54:	07c2                	slli	a5,a5,0x10
     c56:	83c1                	srli	a5,a5,0x10
D:\1.intelligent vehicle\new try\seefree\Seekfree_CH32V103R8T6_Opensource_Library\obj/../Libraries/wch_libraries/Peripheral/ch32v10x_tim.c:107
  tmpcr2 =  TIMx->CTLR2;
     c58:	00455683          	lhu	a3,4(a0)
     c5c:	06c2                	slli	a3,a3,0x10
     c5e:	82c1                	srli	a3,a3,0x10
D:\1.intelligent vehicle\new try\seefree\Seekfree_CH32V103R8T6_Opensource_Library\obj/../Libraries/wch_libraries/Peripheral/ch32v10x_tim.c:108
  tmpccmrx = TIMx->CHCTLR1;
     c60:	01855703          	lhu	a4,24(a0)
     c64:	0742                	slli	a4,a4,0x10
     c66:	8341                	srli	a4,a4,0x10
D:\1.intelligent vehicle\new try\seefree\Seekfree_CH32V103R8T6_Opensource_Library\obj/../Libraries/wch_libraries/Peripheral/ch32v10x_tim.c:110
  tmpccmrx &= (uint16_t)(~((uint16_t)TIM_OC1M));
  tmpccmrx &= (uint16_t)(~((uint16_t)TIM_CC1S));
     c68:	f8c77713          	andi	a4,a4,-116
D:\1.intelligent vehicle\new try\seefree\Seekfree_CH32V103R8T6_Opensource_Library\obj/../Libraries/wch_libraries/Peripheral/ch32v10x_tim.c:111
  tmpccmrx |= TIM_OCInitStruct->TIM_OCMode;
     c6c:	0005d603          	lhu	a2,0(a1)
     c70:	8f51                	or	a4,a4,a2
D:\1.intelligent vehicle\new try\seefree\Seekfree_CH32V103R8T6_Opensource_Library\obj/../Libraries/wch_libraries/Peripheral/ch32v10x_tim.c:112
  tmpccer &= (uint16_t)(~((uint16_t)TIM_CC1P));
     c72:	9bf5                	andi	a5,a5,-3
D:\1.intelligent vehicle\new try\seefree\Seekfree_CH32V103R8T6_Opensource_Library\obj/../Libraries/wch_libraries/Peripheral/ch32v10x_tim.c:114
  tmpccer |= TIM_OCInitStruct->TIM_OCPolarity;
  tmpccer |= TIM_OCInitStruct->TIM_OutputState;
     c74:	0085d603          	lhu	a2,8(a1)
     c78:	0025d803          	lhu	a6,2(a1)
     c7c:	01066633          	or	a2,a2,a6
     c80:	8fd1                	or	a5,a5,a2
D:\1.intelligent vehicle\new try\seefree\Seekfree_CH32V103R8T6_Opensource_Library\obj/../Libraries/wch_libraries/Peripheral/ch32v10x_tim.c:116
    
  if(TIMx == TIM1)
     c82:	40013637          	lui	a2,0x40013
     c86:	c0060613          	addi	a2,a2,-1024 # 40012c00 <_eusrstack+0x2000dc00>
     c8a:	00c50d63          	beq	a0,a2,ca4 <TIM_OC1Init+0x66>
D:\1.intelligent vehicle\new try\seefree\Seekfree_CH32V103R8T6_Opensource_Library\obj/../Libraries/wch_libraries/Peripheral/ch32v10x_tim.c:131
    
    tmpcr2 |= TIM_OCInitStruct->TIM_OCIdleState;
    tmpcr2 |= TIM_OCInitStruct->TIM_OCNIdleState;
  }

  TIMx->CTLR2 = tmpcr2;
     c8e:	00d51223          	sh	a3,4(a0)
D:\1.intelligent vehicle\new try\seefree\Seekfree_CH32V103R8T6_Opensource_Library\obj/../Libraries/wch_libraries/Peripheral/ch32v10x_tim.c:132
  TIMx->CHCTLR1 = tmpccmrx;
     c92:	00e51c23          	sh	a4,24(a0)
D:\1.intelligent vehicle\new try\seefree\Seekfree_CH32V103R8T6_Opensource_Library\obj/../Libraries/wch_libraries/Peripheral/ch32v10x_tim.c:133
  TIMx->CH1CVR = TIM_OCInitStruct->TIM_Pulse; 
     c96:	0065d703          	lhu	a4,6(a1)
     c9a:	02e51a23          	sh	a4,52(a0)
D:\1.intelligent vehicle\new try\seefree\Seekfree_CH32V103R8T6_Opensource_Library\obj/../Libraries/wch_libraries/Peripheral/ch32v10x_tim.c:134
  TIMx->CCER = tmpccer;
     c9e:	02f51023          	sh	a5,32(a0)
D:\1.intelligent vehicle\new try\seefree\Seekfree_CH32V103R8T6_Opensource_Library\obj/../Libraries/wch_libraries/Peripheral/ch32v10x_tim.c:135
}
     ca2:	8082                	ret
D:\1.intelligent vehicle\new try\seefree\Seekfree_CH32V103R8T6_Opensource_Library\obj/../Libraries/wch_libraries/Peripheral/ch32v10x_tim.c:118
    tmpccer &= (uint16_t)(~((uint16_t)TIM_CC1NP));
     ca4:	9bdd                	andi	a5,a5,-9
D:\1.intelligent vehicle\new try\seefree\Seekfree_CH32V103R8T6_Opensource_Library\obj/../Libraries/wch_libraries/Peripheral/ch32v10x_tim.c:119
    tmpccer |= TIM_OCInitStruct->TIM_OCNPolarity;
     ca6:	00a5d603          	lhu	a2,10(a1)
     caa:	8fd1                	or	a5,a5,a2
D:\1.intelligent vehicle\new try\seefree\Seekfree_CH32V103R8T6_Opensource_Library\obj/../Libraries/wch_libraries/Peripheral/ch32v10x_tim.c:121
    tmpccer &= (uint16_t)(~((uint16_t)TIM_CC1NE));    
     cac:	9bed                	andi	a5,a5,-5
D:\1.intelligent vehicle\new try\seefree\Seekfree_CH32V103R8T6_Opensource_Library\obj/../Libraries/wch_libraries/Peripheral/ch32v10x_tim.c:122
    tmpccer |= TIM_OCInitStruct->TIM_OutputNState;
     cae:	0045d603          	lhu	a2,4(a1)
     cb2:	8fd1                	or	a5,a5,a2
D:\1.intelligent vehicle\new try\seefree\Seekfree_CH32V103R8T6_Opensource_Library\obj/../Libraries/wch_libraries/Peripheral/ch32v10x_tim.c:125
    tmpcr2 &= (uint16_t)(~((uint16_t)TIM_OIS1N));
     cb4:	cff6f693          	andi	a3,a3,-769
D:\1.intelligent vehicle\new try\seefree\Seekfree_CH32V103R8T6_Opensource_Library\obj/../Libraries/wch_libraries/Peripheral/ch32v10x_tim.c:128
    tmpcr2 |= TIM_OCInitStruct->TIM_OCNIdleState;
     cb8:	00c5d603          	lhu	a2,12(a1)
     cbc:	00e5d803          	lhu	a6,14(a1)
     cc0:	01066633          	or	a2,a2,a6
     cc4:	8ed1                	or	a3,a3,a2
     cc6:	b7e1                	j	c8e <TIM_OC1Init+0x50>

00000cc8 <TIM_OC2Init>:
TIM_OC2Init():
D:\1.intelligent vehicle\new try\seefree\Seekfree_CH32V103R8T6_Opensource_Library\obj/../Libraries/wch_libraries/Peripheral/ch32v10x_tim.c:149
*******************************************************************************/
void TIM_OC2Init(TIM_TypeDef* TIMx, TIM_OCInitTypeDef* TIM_OCInitStruct)
{
  uint16_t tmpccmrx = 0, tmpccer = 0, tmpcr2 = 0;
   
  TIMx->CCER &= (uint16_t)(~((uint16_t)TIM_CC2E)); 
     cc8:	02055783          	lhu	a5,32(a0)
     ccc:	07c2                	slli	a5,a5,0x10
     cce:	83c1                	srli	a5,a5,0x10
     cd0:	9bbd                	andi	a5,a5,-17
     cd2:	07c2                	slli	a5,a5,0x10
     cd4:	83c1                	srli	a5,a5,0x10
     cd6:	02f51023          	sh	a5,32(a0)
D:\1.intelligent vehicle\new try\seefree\Seekfree_CH32V103R8T6_Opensource_Library\obj/../Libraries/wch_libraries/Peripheral/ch32v10x_tim.c:150
  tmpccer = TIMx->CCER;
     cda:	02055783          	lhu	a5,32(a0)
     cde:	07c2                	slli	a5,a5,0x10
     ce0:	83c1                	srli	a5,a5,0x10
D:\1.intelligent vehicle\new try\seefree\Seekfree_CH32V103R8T6_Opensource_Library\obj/../Libraries/wch_libraries/Peripheral/ch32v10x_tim.c:151
  tmpcr2 =  TIMx->CTLR2;
     ce2:	00455603          	lhu	a2,4(a0)
     ce6:	0642                	slli	a2,a2,0x10
     ce8:	8241                	srli	a2,a2,0x10
D:\1.intelligent vehicle\new try\seefree\Seekfree_CH32V103R8T6_Opensource_Library\obj/../Libraries/wch_libraries/Peripheral/ch32v10x_tim.c:152
  tmpccmrx = TIMx->CHCTLR1;
     cea:	01855683          	lhu	a3,24(a0)
D:\1.intelligent vehicle\new try\seefree\Seekfree_CH32V103R8T6_Opensource_Library\obj/../Libraries/wch_libraries/Peripheral/ch32v10x_tim.c:154
  tmpccmrx &= (uint16_t)(~((uint16_t)TIM_OC2M));
  tmpccmrx &= (uint16_t)(~((uint16_t)TIM_CC2S));
     cee:	7765                	lui	a4,0xffff9
     cf0:	cff70713          	addi	a4,a4,-769 # ffff8cff <_eusrstack+0xdfff3cff>
     cf4:	8f75                	and	a4,a4,a3
D:\1.intelligent vehicle\new try\seefree\Seekfree_CH32V103R8T6_Opensource_Library\obj/../Libraries/wch_libraries/Peripheral/ch32v10x_tim.c:155
  tmpccmrx |= (uint16_t)(TIM_OCInitStruct->TIM_OCMode << 8);
     cf6:	0005d683          	lhu	a3,0(a1)
     cfa:	06a2                	slli	a3,a3,0x8
     cfc:	8f55                	or	a4,a4,a3
     cfe:	0742                	slli	a4,a4,0x10
     d00:	8341                	srli	a4,a4,0x10
D:\1.intelligent vehicle\new try\seefree\Seekfree_CH32V103R8T6_Opensource_Library\obj/../Libraries/wch_libraries/Peripheral/ch32v10x_tim.c:156
  tmpccer &= (uint16_t)(~((uint16_t)TIM_CC2P));
     d02:	fdf7f793          	andi	a5,a5,-33
D:\1.intelligent vehicle\new try\seefree\Seekfree_CH32V103R8T6_Opensource_Library\obj/../Libraries/wch_libraries/Peripheral/ch32v10x_tim.c:157
  tmpccer |= (uint16_t)(TIM_OCInitStruct->TIM_OCPolarity << 4);
     d06:	0085d803          	lhu	a6,8(a1)
D:\1.intelligent vehicle\new try\seefree\Seekfree_CH32V103R8T6_Opensource_Library\obj/../Libraries/wch_libraries/Peripheral/ch32v10x_tim.c:158
  tmpccer |= (uint16_t)(TIM_OCInitStruct->TIM_OutputState << 4);
     d0a:	0025d683          	lhu	a3,2(a1)
     d0e:	0106e6b3          	or	a3,a3,a6
     d12:	0692                	slli	a3,a3,0x4
     d14:	8fd5                	or	a5,a5,a3
     d16:	07c2                	slli	a5,a5,0x10
     d18:	83c1                	srli	a5,a5,0x10
D:\1.intelligent vehicle\new try\seefree\Seekfree_CH32V103R8T6_Opensource_Library\obj/../Libraries/wch_libraries/Peripheral/ch32v10x_tim.c:160
    
  if(TIMx == TIM1)
     d1a:	400136b7          	lui	a3,0x40013
     d1e:	c0068693          	addi	a3,a3,-1024 # 40012c00 <_eusrstack+0x2000dc00>
     d22:	00d50d63          	beq	a0,a3,d3c <TIM_OC2Init+0x74>
D:\1.intelligent vehicle\new try\seefree\Seekfree_CH32V103R8T6_Opensource_Library\obj/../Libraries/wch_libraries/Peripheral/ch32v10x_tim.c:173
    tmpcr2 &= (uint16_t)(~((uint16_t)TIM_OIS2N));
    tmpcr2 |= (uint16_t)(TIM_OCInitStruct->TIM_OCIdleState << 2);
    tmpcr2 |= (uint16_t)(TIM_OCInitStruct->TIM_OCNIdleState << 2);
  }

  TIMx->CTLR2 = tmpcr2;
     d26:	00c51223          	sh	a2,4(a0)
D:\1.intelligent vehicle\new try\seefree\Seekfree_CH32V103R8T6_Opensource_Library\obj/../Libraries/wch_libraries/Peripheral/ch32v10x_tim.c:174
  TIMx->CHCTLR1 = tmpccmrx;
     d2a:	00e51c23          	sh	a4,24(a0)
D:\1.intelligent vehicle\new try\seefree\Seekfree_CH32V103R8T6_Opensource_Library\obj/../Libraries/wch_libraries/Peripheral/ch32v10x_tim.c:175
  TIMx->CH2CVR = TIM_OCInitStruct->TIM_Pulse;
     d2e:	0065d703          	lhu	a4,6(a1)
     d32:	02e51c23          	sh	a4,56(a0)
D:\1.intelligent vehicle\new try\seefree\Seekfree_CH32V103R8T6_Opensource_Library\obj/../Libraries/wch_libraries/Peripheral/ch32v10x_tim.c:176
  TIMx->CCER = tmpccer;
     d36:	02f51023          	sh	a5,32(a0)
D:\1.intelligent vehicle\new try\seefree\Seekfree_CH32V103R8T6_Opensource_Library\obj/../Libraries/wch_libraries/Peripheral/ch32v10x_tim.c:177
}
     d3a:	8082                	ret
D:\1.intelligent vehicle\new try\seefree\Seekfree_CH32V103R8T6_Opensource_Library\obj/../Libraries/wch_libraries/Peripheral/ch32v10x_tim.c:162
    tmpccer &= (uint16_t)(~((uint16_t)TIM_CC2NP));
     d3c:	f7f7f793          	andi	a5,a5,-129
D:\1.intelligent vehicle\new try\seefree\Seekfree_CH32V103R8T6_Opensource_Library\obj/../Libraries/wch_libraries/Peripheral/ch32v10x_tim.c:163
    tmpccer |= (uint16_t)(TIM_OCInitStruct->TIM_OCNPolarity << 4);
     d40:	00a5d683          	lhu	a3,10(a1)
     d44:	0692                	slli	a3,a3,0x4
     d46:	8fd5                	or	a5,a5,a3
     d48:	07c2                	slli	a5,a5,0x10
     d4a:	83c1                	srli	a5,a5,0x10
D:\1.intelligent vehicle\new try\seefree\Seekfree_CH32V103R8T6_Opensource_Library\obj/../Libraries/wch_libraries/Peripheral/ch32v10x_tim.c:164
    tmpccer &= (uint16_t)(~((uint16_t)TIM_CC2NE));    
     d4c:	fbf7f793          	andi	a5,a5,-65
D:\1.intelligent vehicle\new try\seefree\Seekfree_CH32V103R8T6_Opensource_Library\obj/../Libraries/wch_libraries/Peripheral/ch32v10x_tim.c:165
    tmpccer |= (uint16_t)(TIM_OCInitStruct->TIM_OutputNState << 4);
     d50:	0045d683          	lhu	a3,4(a1)
     d54:	0692                	slli	a3,a3,0x4
     d56:	8fd5                	or	a5,a5,a3
     d58:	07c2                	slli	a5,a5,0x10
     d5a:	83c1                	srli	a5,a5,0x10
D:\1.intelligent vehicle\new try\seefree\Seekfree_CH32V103R8T6_Opensource_Library\obj/../Libraries/wch_libraries/Peripheral/ch32v10x_tim.c:168
    tmpcr2 &= (uint16_t)(~((uint16_t)TIM_OIS2N));
     d5c:	76fd                	lui	a3,0xfffff
     d5e:	3ff68693          	addi	a3,a3,1023 # fffff3ff <_eusrstack+0xdfffa3ff>
     d62:	8e75                	and	a2,a2,a3
D:\1.intelligent vehicle\new try\seefree\Seekfree_CH32V103R8T6_Opensource_Library\obj/../Libraries/wch_libraries/Peripheral/ch32v10x_tim.c:169
    tmpcr2 |= (uint16_t)(TIM_OCInitStruct->TIM_OCIdleState << 2);
     d64:	00c5d803          	lhu	a6,12(a1)
D:\1.intelligent vehicle\new try\seefree\Seekfree_CH32V103R8T6_Opensource_Library\obj/../Libraries/wch_libraries/Peripheral/ch32v10x_tim.c:170
    tmpcr2 |= (uint16_t)(TIM_OCInitStruct->TIM_OCNIdleState << 2);
     d68:	00e5d683          	lhu	a3,14(a1)
     d6c:	0106e6b3          	or	a3,a3,a6
     d70:	068a                	slli	a3,a3,0x2
     d72:	8e55                	or	a2,a2,a3
     d74:	0642                	slli	a2,a2,0x10
     d76:	8241                	srli	a2,a2,0x10
     d78:	b77d                	j	d26 <TIM_OC2Init+0x5e>

00000d7a <TIM_OC3Init>:
TIM_OC3Init():
D:\1.intelligent vehicle\new try\seefree\Seekfree_CH32V103R8T6_Opensource_Library\obj/../Libraries/wch_libraries/Peripheral/ch32v10x_tim.c:191
*******************************************************************************/
void TIM_OC3Init(TIM_TypeDef* TIMx, TIM_OCInitTypeDef* TIM_OCInitStruct)
{
  uint16_t tmpccmrx = 0, tmpccer = 0, tmpcr2 = 0;
   
  TIMx->CCER &= (uint16_t)(~((uint16_t)TIM_CC3E));
     d7a:	02055783          	lhu	a5,32(a0)
     d7e:	07c2                	slli	a5,a5,0x10
     d80:	83c1                	srli	a5,a5,0x10
     d82:	eff7f793          	andi	a5,a5,-257
     d86:	07c2                	slli	a5,a5,0x10
     d88:	83c1                	srli	a5,a5,0x10
     d8a:	02f51023          	sh	a5,32(a0)
D:\1.intelligent vehicle\new try\seefree\Seekfree_CH32V103R8T6_Opensource_Library\obj/../Libraries/wch_libraries/Peripheral/ch32v10x_tim.c:192
  tmpccer = TIMx->CCER;
     d8e:	02055783          	lhu	a5,32(a0)
     d92:	07c2                	slli	a5,a5,0x10
     d94:	83c1                	srli	a5,a5,0x10
D:\1.intelligent vehicle\new try\seefree\Seekfree_CH32V103R8T6_Opensource_Library\obj/../Libraries/wch_libraries/Peripheral/ch32v10x_tim.c:193
  tmpcr2 =  TIMx->CTLR2;
     d96:	00455603          	lhu	a2,4(a0)
     d9a:	0642                	slli	a2,a2,0x10
     d9c:	8241                	srli	a2,a2,0x10
D:\1.intelligent vehicle\new try\seefree\Seekfree_CH32V103R8T6_Opensource_Library\obj/../Libraries/wch_libraries/Peripheral/ch32v10x_tim.c:194
  tmpccmrx = TIMx->CHCTLR2;
     d9e:	01c55703          	lhu	a4,28(a0)
     da2:	0742                	slli	a4,a4,0x10
     da4:	8341                	srli	a4,a4,0x10
D:\1.intelligent vehicle\new try\seefree\Seekfree_CH32V103R8T6_Opensource_Library\obj/../Libraries/wch_libraries/Peripheral/ch32v10x_tim.c:196
  tmpccmrx &= (uint16_t)(~((uint16_t)TIM_OC3M));
  tmpccmrx &= (uint16_t)(~((uint16_t)TIM_CC3S));  
     da6:	f8c77713          	andi	a4,a4,-116
D:\1.intelligent vehicle\new try\seefree\Seekfree_CH32V103R8T6_Opensource_Library\obj/../Libraries/wch_libraries/Peripheral/ch32v10x_tim.c:197
  tmpccmrx |= TIM_OCInitStruct->TIM_OCMode;
     daa:	0005d683          	lhu	a3,0(a1)
     dae:	8f55                	or	a4,a4,a3
D:\1.intelligent vehicle\new try\seefree\Seekfree_CH32V103R8T6_Opensource_Library\obj/../Libraries/wch_libraries/Peripheral/ch32v10x_tim.c:198
  tmpccer &= (uint16_t)(~((uint16_t)TIM_CC3P));
     db0:	dff7f793          	andi	a5,a5,-513
D:\1.intelligent vehicle\new try\seefree\Seekfree_CH32V103R8T6_Opensource_Library\obj/../Libraries/wch_libraries/Peripheral/ch32v10x_tim.c:199
  tmpccer |= (uint16_t)(TIM_OCInitStruct->TIM_OCPolarity << 8);
     db4:	0085d803          	lhu	a6,8(a1)
D:\1.intelligent vehicle\new try\seefree\Seekfree_CH32V103R8T6_Opensource_Library\obj/../Libraries/wch_libraries/Peripheral/ch32v10x_tim.c:200
  tmpccer |= (uint16_t)(TIM_OCInitStruct->TIM_OutputState << 8);
     db8:	0025d683          	lhu	a3,2(a1)
     dbc:	0106e6b3          	or	a3,a3,a6
     dc0:	06a2                	slli	a3,a3,0x8
     dc2:	8fd5                	or	a5,a5,a3
     dc4:	07c2                	slli	a5,a5,0x10
     dc6:	83c1                	srli	a5,a5,0x10
D:\1.intelligent vehicle\new try\seefree\Seekfree_CH32V103R8T6_Opensource_Library\obj/../Libraries/wch_libraries/Peripheral/ch32v10x_tim.c:202
    
  if(TIMx == TIM1)
     dc8:	400136b7          	lui	a3,0x40013
     dcc:	c0068693          	addi	a3,a3,-1024 # 40012c00 <_eusrstack+0x2000dc00>
     dd0:	00d50d63          	beq	a0,a3,dea <TIM_OC3Init+0x70>
D:\1.intelligent vehicle\new try\seefree\Seekfree_CH32V103R8T6_Opensource_Library\obj/../Libraries/wch_libraries/Peripheral/ch32v10x_tim.c:214
    tmpcr2 &= (uint16_t)(~((uint16_t)TIM_OIS3N));
    tmpcr2 |= (uint16_t)(TIM_OCInitStruct->TIM_OCIdleState << 4);
    tmpcr2 |= (uint16_t)(TIM_OCInitStruct->TIM_OCNIdleState << 4);
  }

  TIMx->CTLR2 = tmpcr2;
     dd4:	00c51223          	sh	a2,4(a0)
D:\1.intelligent vehicle\new try\seefree\Seekfree_CH32V103R8T6_Opensource_Library\obj/../Libraries/wch_libraries/Peripheral/ch32v10x_tim.c:215
  TIMx->CHCTLR2 = tmpccmrx;
     dd8:	00e51e23          	sh	a4,28(a0)
D:\1.intelligent vehicle\new try\seefree\Seekfree_CH32V103R8T6_Opensource_Library\obj/../Libraries/wch_libraries/Peripheral/ch32v10x_tim.c:216
  TIMx->CH3CVR = TIM_OCInitStruct->TIM_Pulse;
     ddc:	0065d703          	lhu	a4,6(a1)
     de0:	02e51e23          	sh	a4,60(a0)
D:\1.intelligent vehicle\new try\seefree\Seekfree_CH32V103R8T6_Opensource_Library\obj/../Libraries/wch_libraries/Peripheral/ch32v10x_tim.c:217
  TIMx->CCER = tmpccer;
     de4:	02f51023          	sh	a5,32(a0)
D:\1.intelligent vehicle\new try\seefree\Seekfree_CH32V103R8T6_Opensource_Library\obj/../Libraries/wch_libraries/Peripheral/ch32v10x_tim.c:218
}
     de8:	8082                	ret
D:\1.intelligent vehicle\new try\seefree\Seekfree_CH32V103R8T6_Opensource_Library\obj/../Libraries/wch_libraries/Peripheral/ch32v10x_tim.c:204
    tmpccer &= (uint16_t)(~((uint16_t)TIM_CC3NP));
     dea:	76fd                	lui	a3,0xfffff
     dec:	7ff68693          	addi	a3,a3,2047 # fffff7ff <_eusrstack+0xdfffa7ff>
     df0:	8ff5                	and	a5,a5,a3
D:\1.intelligent vehicle\new try\seefree\Seekfree_CH32V103R8T6_Opensource_Library\obj/../Libraries/wch_libraries/Peripheral/ch32v10x_tim.c:205
    tmpccer |= (uint16_t)(TIM_OCInitStruct->TIM_OCNPolarity << 8);
     df2:	00a5d683          	lhu	a3,10(a1)
     df6:	06a2                	slli	a3,a3,0x8
     df8:	8fd5                	or	a5,a5,a3
     dfa:	07c2                	slli	a5,a5,0x10
     dfc:	83c1                	srli	a5,a5,0x10
D:\1.intelligent vehicle\new try\seefree\Seekfree_CH32V103R8T6_Opensource_Library\obj/../Libraries/wch_libraries/Peripheral/ch32v10x_tim.c:206
    tmpccer &= (uint16_t)(~((uint16_t)TIM_CC3NE));
     dfe:	bff7f793          	andi	a5,a5,-1025
D:\1.intelligent vehicle\new try\seefree\Seekfree_CH32V103R8T6_Opensource_Library\obj/../Libraries/wch_libraries/Peripheral/ch32v10x_tim.c:207
    tmpccer |= (uint16_t)(TIM_OCInitStruct->TIM_OutputNState << 8);
     e02:	0045d683          	lhu	a3,4(a1)
     e06:	06a2                	slli	a3,a3,0x8
     e08:	8fd5                	or	a5,a5,a3
     e0a:	07c2                	slli	a5,a5,0x10
     e0c:	83c1                	srli	a5,a5,0x10
D:\1.intelligent vehicle\new try\seefree\Seekfree_CH32V103R8T6_Opensource_Library\obj/../Libraries/wch_libraries/Peripheral/ch32v10x_tim.c:209
    tmpcr2 &= (uint16_t)(~((uint16_t)TIM_OIS3N));
     e0e:	76f5                	lui	a3,0xffffd
     e10:	16fd                	addi	a3,a3,-1
     e12:	8e75                	and	a2,a2,a3
D:\1.intelligent vehicle\new try\seefree\Seekfree_CH32V103R8T6_Opensource_Library\obj/../Libraries/wch_libraries/Peripheral/ch32v10x_tim.c:210
    tmpcr2 |= (uint16_t)(TIM_OCInitStruct->TIM_OCIdleState << 4);
     e14:	00c5d803          	lhu	a6,12(a1)
D:\1.intelligent vehicle\new try\seefree\Seekfree_CH32V103R8T6_Opensource_Library\obj/../Libraries/wch_libraries/Peripheral/ch32v10x_tim.c:211
    tmpcr2 |= (uint16_t)(TIM_OCInitStruct->TIM_OCNIdleState << 4);
     e18:	00e5d683          	lhu	a3,14(a1)
     e1c:	0106e6b3          	or	a3,a3,a6
     e20:	0692                	slli	a3,a3,0x4
     e22:	8e55                	or	a2,a2,a3
     e24:	0642                	slli	a2,a2,0x10
     e26:	8241                	srli	a2,a2,0x10
     e28:	b775                	j	dd4 <TIM_OC3Init+0x5a>

00000e2a <TIM_OC4Init>:
TIM_OC4Init():
D:\1.intelligent vehicle\new try\seefree\Seekfree_CH32V103R8T6_Opensource_Library\obj/../Libraries/wch_libraries/Peripheral/ch32v10x_tim.c:232
*******************************************************************************/
void TIM_OC4Init(TIM_TypeDef* TIMx, TIM_OCInitTypeDef* TIM_OCInitStruct)
{
  uint16_t tmpccmrx = 0, tmpccer = 0, tmpcr2 = 0;

  TIMx->CCER &= (uint16_t)(~((uint16_t)TIM_CC4E));
     e2a:	02055703          	lhu	a4,32(a0)
     e2e:	77fd                	lui	a5,0xfffff
     e30:	17fd                	addi	a5,a5,-1
     e32:	8ff9                	and	a5,a5,a4
     e34:	02f51023          	sh	a5,32(a0)
D:\1.intelligent vehicle\new try\seefree\Seekfree_CH32V103R8T6_Opensource_Library\obj/../Libraries/wch_libraries/Peripheral/ch32v10x_tim.c:233
  tmpccer = TIMx->CCER;
     e38:	02055803          	lhu	a6,32(a0)
D:\1.intelligent vehicle\new try\seefree\Seekfree_CH32V103R8T6_Opensource_Library\obj/../Libraries/wch_libraries/Peripheral/ch32v10x_tim.c:234
  tmpcr2 =  TIMx->CTLR2;
     e3c:	00455603          	lhu	a2,4(a0)
     e40:	0642                	slli	a2,a2,0x10
     e42:	8241                	srli	a2,a2,0x10
D:\1.intelligent vehicle\new try\seefree\Seekfree_CH32V103R8T6_Opensource_Library\obj/../Libraries/wch_libraries/Peripheral/ch32v10x_tim.c:235
  tmpccmrx = TIMx->CHCTLR2;
     e44:	01c55783          	lhu	a5,28(a0)
D:\1.intelligent vehicle\new try\seefree\Seekfree_CH32V103R8T6_Opensource_Library\obj/../Libraries/wch_libraries/Peripheral/ch32v10x_tim.c:237
  tmpccmrx &= (uint16_t)(~((uint16_t)TIM_OC4M));
  tmpccmrx &= (uint16_t)(~((uint16_t)TIM_CC4S));
     e48:	7765                	lui	a4,0xffff9
     e4a:	cff70713          	addi	a4,a4,-769 # ffff8cff <_eusrstack+0xdfff3cff>
     e4e:	8f7d                	and	a4,a4,a5
D:\1.intelligent vehicle\new try\seefree\Seekfree_CH32V103R8T6_Opensource_Library\obj/../Libraries/wch_libraries/Peripheral/ch32v10x_tim.c:238
  tmpccmrx |= (uint16_t)(TIM_OCInitStruct->TIM_OCMode << 8);
     e50:	0005d683          	lhu	a3,0(a1)
     e54:	06a2                	slli	a3,a3,0x8
     e56:	8f55                	or	a4,a4,a3
     e58:	0742                	slli	a4,a4,0x10
     e5a:	8341                	srli	a4,a4,0x10
D:\1.intelligent vehicle\new try\seefree\Seekfree_CH32V103R8T6_Opensource_Library\obj/../Libraries/wch_libraries/Peripheral/ch32v10x_tim.c:239
  tmpccer &= (uint16_t)(~((uint16_t)TIM_CC4P));
     e5c:	77f9                	lui	a5,0xffffe
     e5e:	17fd                	addi	a5,a5,-1
     e60:	0107f7b3          	and	a5,a5,a6
D:\1.intelligent vehicle\new try\seefree\Seekfree_CH32V103R8T6_Opensource_Library\obj/../Libraries/wch_libraries/Peripheral/ch32v10x_tim.c:240
  tmpccer |= (uint16_t)(TIM_OCInitStruct->TIM_OCPolarity << 12);
     e64:	0085d803          	lhu	a6,8(a1)
D:\1.intelligent vehicle\new try\seefree\Seekfree_CH32V103R8T6_Opensource_Library\obj/../Libraries/wch_libraries/Peripheral/ch32v10x_tim.c:241
  tmpccer |= (uint16_t)(TIM_OCInitStruct->TIM_OutputState << 12);
     e68:	0025d683          	lhu	a3,2(a1)
     e6c:	0106e6b3          	or	a3,a3,a6
     e70:	06b2                	slli	a3,a3,0xc
     e72:	8fd5                	or	a5,a5,a3
     e74:	07c2                	slli	a5,a5,0x10
     e76:	83c1                	srli	a5,a5,0x10
D:\1.intelligent vehicle\new try\seefree\Seekfree_CH32V103R8T6_Opensource_Library\obj/../Libraries/wch_libraries/Peripheral/ch32v10x_tim.c:243
    
  if(TIMx == TIM1)
     e78:	400136b7          	lui	a3,0x40013
     e7c:	c0068693          	addi	a3,a3,-1024 # 40012c00 <_eusrstack+0x2000dc00>
     e80:	00d50d63          	beq	a0,a3,e9a <TIM_OC4Init+0x70>
D:\1.intelligent vehicle\new try\seefree\Seekfree_CH32V103R8T6_Opensource_Library\obj/../Libraries/wch_libraries/Peripheral/ch32v10x_tim.c:249
  {
    tmpcr2 &= (uint16_t)(~((uint16_t)TIM_OIS4));
    tmpcr2 |= (uint16_t)(TIM_OCInitStruct->TIM_OCIdleState << 6);
  }

  TIMx->CTLR2 = tmpcr2; 
     e84:	00c51223          	sh	a2,4(a0)
D:\1.intelligent vehicle\new try\seefree\Seekfree_CH32V103R8T6_Opensource_Library\obj/../Libraries/wch_libraries/Peripheral/ch32v10x_tim.c:250
  TIMx->CHCTLR2 = tmpccmrx;
     e88:	00e51e23          	sh	a4,28(a0)
D:\1.intelligent vehicle\new try\seefree\Seekfree_CH32V103R8T6_Opensource_Library\obj/../Libraries/wch_libraries/Peripheral/ch32v10x_tim.c:251
  TIMx->CH4CVR = TIM_OCInitStruct->TIM_Pulse;
     e8c:	0065d703          	lhu	a4,6(a1)
     e90:	04e51023          	sh	a4,64(a0)
D:\1.intelligent vehicle\new try\seefree\Seekfree_CH32V103R8T6_Opensource_Library\obj/../Libraries/wch_libraries/Peripheral/ch32v10x_tim.c:252
  TIMx->CCER = tmpccer;
     e94:	02f51023          	sh	a5,32(a0)
D:\1.intelligent vehicle\new try\seefree\Seekfree_CH32V103R8T6_Opensource_Library\obj/../Libraries/wch_libraries/Peripheral/ch32v10x_tim.c:253
}
     e98:	8082                	ret
D:\1.intelligent vehicle\new try\seefree\Seekfree_CH32V103R8T6_Opensource_Library\obj/../Libraries/wch_libraries/Peripheral/ch32v10x_tim.c:245
    tmpcr2 &= (uint16_t)(~((uint16_t)TIM_OIS4));
     e9a:	76f1                	lui	a3,0xffffc
     e9c:	16fd                	addi	a3,a3,-1
     e9e:	8e75                	and	a2,a2,a3
D:\1.intelligent vehicle\new try\seefree\Seekfree_CH32V103R8T6_Opensource_Library\obj/../Libraries/wch_libraries/Peripheral/ch32v10x_tim.c:246
    tmpcr2 |= (uint16_t)(TIM_OCInitStruct->TIM_OCIdleState << 6);
     ea0:	00c5d683          	lhu	a3,12(a1)
     ea4:	069a                	slli	a3,a3,0x6
     ea6:	8e55                	or	a2,a2,a3
     ea8:	0642                	slli	a2,a2,0x10
     eaa:	8241                	srli	a2,a2,0x10
     eac:	bfe1                	j	e84 <TIM_OC4Init+0x5a>

00000eae <TIM_TimeBaseStructInit>:
TIM_TimeBaseStructInit():
D:\1.intelligent vehicle\new try\seefree\Seekfree_CH32V103R8T6_Opensource_Library\obj/../Libraries/wch_libraries/Peripheral/ch32v10x_tim.c:368
* Input          : TIM_TimeBaseInitStruct : pointer to a TIM_TimeBaseInitTypeDef structure.                 
* Return         : None
*******************************************************************************/
void TIM_TimeBaseStructInit(TIM_TimeBaseInitTypeDef* TIM_TimeBaseInitStruct)
{
  TIM_TimeBaseInitStruct->TIM_Period = 0xFFFF;
     eae:	57fd                	li	a5,-1
     eb0:	00f51223          	sh	a5,4(a0)
D:\1.intelligent vehicle\new try\seefree\Seekfree_CH32V103R8T6_Opensource_Library\obj/../Libraries/wch_libraries/Peripheral/ch32v10x_tim.c:369
  TIM_TimeBaseInitStruct->TIM_Prescaler = 0x0000;
     eb4:	00051023          	sh	zero,0(a0)
D:\1.intelligent vehicle\new try\seefree\Seekfree_CH32V103R8T6_Opensource_Library\obj/../Libraries/wch_libraries/Peripheral/ch32v10x_tim.c:370
  TIM_TimeBaseInitStruct->TIM_ClockDivision = TIM_CKD_DIV1;
     eb8:	00051323          	sh	zero,6(a0)
D:\1.intelligent vehicle\new try\seefree\Seekfree_CH32V103R8T6_Opensource_Library\obj/../Libraries/wch_libraries/Peripheral/ch32v10x_tim.c:371
  TIM_TimeBaseInitStruct->TIM_CounterMode = TIM_CounterMode_Up;
     ebc:	00051123          	sh	zero,2(a0)
D:\1.intelligent vehicle\new try\seefree\Seekfree_CH32V103R8T6_Opensource_Library\obj/../Libraries/wch_libraries/Peripheral/ch32v10x_tim.c:372
  TIM_TimeBaseInitStruct->TIM_RepetitionCounter = 0x0000;
     ec0:	00050423          	sb	zero,8(a0)
D:\1.intelligent vehicle\new try\seefree\Seekfree_CH32V103R8T6_Opensource_Library\obj/../Libraries/wch_libraries/Peripheral/ch32v10x_tim.c:373
}
     ec4:	8082                	ret

00000ec6 <TIM_Cmd>:
TIM_Cmd():
D:\1.intelligent vehicle\new try\seefree\Seekfree_CH32V103R8T6_Opensource_Library\obj/../Libraries/wch_libraries/Peripheral/ch32v10x_tim.c:434
*                  NewState: ENABLE or DISABLE.
* Return         : None
*******************************************************************************/
void TIM_Cmd(TIM_TypeDef* TIMx, FunctionalState NewState)
{ 
  if (NewState != DISABLE)
     ec6:	c981                	beqz	a1,ed6 <TIM_Cmd+0x10>
D:\1.intelligent vehicle\new try\seefree\Seekfree_CH32V103R8T6_Opensource_Library\obj/../Libraries/wch_libraries/Peripheral/ch32v10x_tim.c:436
  {
    TIMx->CTLR1 |= TIM_CEN;
     ec8:	00055783          	lhu	a5,0(a0)
     ecc:	0017e793          	ori	a5,a5,1
     ed0:	00f51023          	sh	a5,0(a0)
     ed4:	8082                	ret
D:\1.intelligent vehicle\new try\seefree\Seekfree_CH32V103R8T6_Opensource_Library\obj/../Libraries/wch_libraries/Peripheral/ch32v10x_tim.c:440
  }
  else
  {
    TIMx->CTLR1 &= (uint16_t)(~((uint16_t)TIM_CEN));
     ed6:	00055783          	lhu	a5,0(a0)
     eda:	07c2                	slli	a5,a5,0x10
     edc:	83c1                	srli	a5,a5,0x10
     ede:	9bf9                	andi	a5,a5,-2
     ee0:	07c2                	slli	a5,a5,0x10
     ee2:	83c1                	srli	a5,a5,0x10
     ee4:	00f51023          	sh	a5,0(a0)
D:\1.intelligent vehicle\new try\seefree\Seekfree_CH32V103R8T6_Opensource_Library\obj/../Libraries/wch_libraries/Peripheral/ch32v10x_tim.c:442
  }
}
     ee8:	8082                	ret

00000eea <TIM_CtrlPWMOutputs>:
TIM_CtrlPWMOutputs():
D:\1.intelligent vehicle\new try\seefree\Seekfree_CH32V103R8T6_Opensource_Library\obj/../Libraries/wch_libraries/Peripheral/ch32v10x_tim.c:453
*                  NewState: ENABLE or DISABLE.
* Return         : None
*******************************************************************************/
void TIM_CtrlPWMOutputs(TIM_TypeDef* TIMx, FunctionalState NewState)
{
  if (NewState != DISABLE)
     eea:	c981                	beqz	a1,efa <TIM_CtrlPWMOutputs+0x10>
D:\1.intelligent vehicle\new try\seefree\Seekfree_CH32V103R8T6_Opensource_Library\obj/../Libraries/wch_libraries/Peripheral/ch32v10x_tim.c:455
  {
    TIMx->BDTR |= TIM_MOE;
     eec:	04455783          	lhu	a5,68(a0)
     ef0:	6721                	lui	a4,0x8
     ef2:	8fd9                	or	a5,a5,a4
     ef4:	04f51223          	sh	a5,68(a0)
     ef8:	8082                	ret
D:\1.intelligent vehicle\new try\seefree\Seekfree_CH32V103R8T6_Opensource_Library\obj/../Libraries/wch_libraries/Peripheral/ch32v10x_tim.c:459
  }
  else
  {
    TIMx->BDTR &= (uint16_t)(~((uint16_t)TIM_MOE));
     efa:	04455783          	lhu	a5,68(a0)
     efe:	07c6                	slli	a5,a5,0x11
     f00:	83c5                	srli	a5,a5,0x11
     f02:	04f51223          	sh	a5,68(a0)
D:\1.intelligent vehicle\new try\seefree\Seekfree_CH32V103R8T6_Opensource_Library\obj/../Libraries/wch_libraries/Peripheral/ch32v10x_tim.c:461
  }  
}
     f06:	8082                	ret

00000f08 <TIM_EncoderInterfaceConfig>:
TIM_EncoderInterfaceConfig():
D:\1.intelligent vehicle\new try\seefree\Seekfree_CH32V103R8T6_Opensource_Library\obj/../Libraries/wch_libraries/Peripheral/ch32v10x_tim.c:801
{
  uint16_t tmpsmcr = 0;
  uint16_t tmpccmr1 = 0;
  uint16_t tmpccer = 0;
    
  tmpsmcr = TIMx->SMCFGR;
     f08:	00855803          	lhu	a6,8(a0)
     f0c:	0842                	slli	a6,a6,0x10
     f0e:	01085813          	srli	a6,a6,0x10
D:\1.intelligent vehicle\new try\seefree\Seekfree_CH32V103R8T6_Opensource_Library\obj/../Libraries/wch_libraries/Peripheral/ch32v10x_tim.c:802
  tmpccmr1 = TIMx->CHCTLR1;
     f12:	01855703          	lhu	a4,24(a0)
     f16:	0742                	slli	a4,a4,0x10
     f18:	8341                	srli	a4,a4,0x10
D:\1.intelligent vehicle\new try\seefree\Seekfree_CH32V103R8T6_Opensource_Library\obj/../Libraries/wch_libraries/Peripheral/ch32v10x_tim.c:803
  tmpccer = TIMx->CCER;
     f1a:	02055783          	lhu	a5,32(a0)
     f1e:	07c2                	slli	a5,a5,0x10
     f20:	83c1                	srli	a5,a5,0x10
D:\1.intelligent vehicle\new try\seefree\Seekfree_CH32V103R8T6_Opensource_Library\obj/../Libraries/wch_libraries/Peripheral/ch32v10x_tim.c:804
  tmpsmcr &= (uint16_t)(~((uint16_t)TIM_SMS));
     f22:	ff887813          	andi	a6,a6,-8
D:\1.intelligent vehicle\new try\seefree\Seekfree_CH32V103R8T6_Opensource_Library\obj/../Libraries/wch_libraries/Peripheral/ch32v10x_tim.c:805
  tmpsmcr |= TIM_EncoderMode;
     f26:	00b865b3          	or	a1,a6,a1
D:\1.intelligent vehicle\new try\seefree\Seekfree_CH32V103R8T6_Opensource_Library\obj/../Libraries/wch_libraries/Peripheral/ch32v10x_tim.c:806
  tmpccmr1 &= (uint16_t)(((uint16_t)~((uint16_t)TIM_CC1S)) & (uint16_t)(~((uint16_t)TIM_CC2S)));
     f2a:	cfc77713          	andi	a4,a4,-772
D:\1.intelligent vehicle\new try\seefree\Seekfree_CH32V103R8T6_Opensource_Library\obj/../Libraries/wch_libraries/Peripheral/ch32v10x_tim.c:807
  tmpccmr1 |= TIM_CC1S_0 | TIM_CC2S_0;
     f2e:	10176713          	ori	a4,a4,257
D:\1.intelligent vehicle\new try\seefree\Seekfree_CH32V103R8T6_Opensource_Library\obj/../Libraries/wch_libraries/Peripheral/ch32v10x_tim.c:808
  tmpccer &= (uint16_t)(((uint16_t)~((uint16_t)TIM_CC1P)) & ((uint16_t)~((uint16_t)TIM_CC2P)));
     f32:	fdd7f793          	andi	a5,a5,-35
D:\1.intelligent vehicle\new try\seefree\Seekfree_CH32V103R8T6_Opensource_Library\obj/../Libraries/wch_libraries/Peripheral/ch32v10x_tim.c:809
  tmpccer |= (uint16_t)(TIM_IC1Polarity | (uint16_t)(TIM_IC2Polarity << (uint16_t)4)); 
     f36:	0692                	slli	a3,a3,0x4
     f38:	8e55                	or	a2,a2,a3
     f3a:	8fd1                	or	a5,a5,a2
     f3c:	07c2                	slli	a5,a5,0x10
     f3e:	83c1                	srli	a5,a5,0x10
D:\1.intelligent vehicle\new try\seefree\Seekfree_CH32V103R8T6_Opensource_Library\obj/../Libraries/wch_libraries/Peripheral/ch32v10x_tim.c:810
  TIMx->SMCFGR = tmpsmcr;
     f40:	00b51423          	sh	a1,8(a0)
D:\1.intelligent vehicle\new try\seefree\Seekfree_CH32V103R8T6_Opensource_Library\obj/../Libraries/wch_libraries/Peripheral/ch32v10x_tim.c:811
  TIMx->CHCTLR1 = tmpccmr1;
     f44:	00e51c23          	sh	a4,24(a0)
D:\1.intelligent vehicle\new try\seefree\Seekfree_CH32V103R8T6_Opensource_Library\obj/../Libraries/wch_libraries/Peripheral/ch32v10x_tim.c:812
  TIMx->CCER = tmpccer;
     f48:	02f51023          	sh	a5,32(a0)
D:\1.intelligent vehicle\new try\seefree\Seekfree_CH32V103R8T6_Opensource_Library\obj/../Libraries/wch_libraries/Peripheral/ch32v10x_tim.c:813
}
     f4c:	8082                	ret

00000f4e <TIM_OC1PreloadConfig>:
TIM_OC1PreloadConfig():
D:\1.intelligent vehicle\new try\seefree\Seekfree_CH32V103R8T6_Opensource_Library\obj/../Libraries/wch_libraries/Peripheral/ch32v10x_tim.c:984
*******************************************************************************/
void TIM_OC1PreloadConfig(TIM_TypeDef* TIMx, uint16_t TIM_OCPreload)
{
  uint16_t tmpccmr1 = 0;

  tmpccmr1 = TIMx->CHCTLR1;
     f4e:	01855783          	lhu	a5,24(a0)
     f52:	07c2                	slli	a5,a5,0x10
     f54:	83c1                	srli	a5,a5,0x10
D:\1.intelligent vehicle\new try\seefree\Seekfree_CH32V103R8T6_Opensource_Library\obj/../Libraries/wch_libraries/Peripheral/ch32v10x_tim.c:985
  tmpccmr1 &= (uint16_t)~((uint16_t)TIM_OC1PE);
     f56:	9bdd                	andi	a5,a5,-9
D:\1.intelligent vehicle\new try\seefree\Seekfree_CH32V103R8T6_Opensource_Library\obj/../Libraries/wch_libraries/Peripheral/ch32v10x_tim.c:986
  tmpccmr1 |= TIM_OCPreload;
     f58:	8ddd                	or	a1,a1,a5
D:\1.intelligent vehicle\new try\seefree\Seekfree_CH32V103R8T6_Opensource_Library\obj/../Libraries/wch_libraries/Peripheral/ch32v10x_tim.c:987
  TIMx->CHCTLR1 = tmpccmr1;
     f5a:	00b51c23          	sh	a1,24(a0)
D:\1.intelligent vehicle\new try\seefree\Seekfree_CH32V103R8T6_Opensource_Library\obj/../Libraries/wch_libraries/Peripheral/ch32v10x_tim.c:988
}
     f5e:	8082                	ret

00000f60 <TIM_OC2PreloadConfig>:
TIM_OC2PreloadConfig():
D:\1.intelligent vehicle\new try\seefree\Seekfree_CH32V103R8T6_Opensource_Library\obj/../Libraries/wch_libraries/Peripheral/ch32v10x_tim.c:1003
*******************************************************************************/
void TIM_OC2PreloadConfig(TIM_TypeDef* TIMx, uint16_t TIM_OCPreload)
{
  uint16_t tmpccmr1 = 0;

  tmpccmr1 = TIMx->CHCTLR1;
     f60:	01855703          	lhu	a4,24(a0)
D:\1.intelligent vehicle\new try\seefree\Seekfree_CH32V103R8T6_Opensource_Library\obj/../Libraries/wch_libraries/Peripheral/ch32v10x_tim.c:1004
  tmpccmr1 &= (uint16_t)~((uint16_t)TIM_OC2PE);
     f64:	77fd                	lui	a5,0xfffff
     f66:	7ff78793          	addi	a5,a5,2047 # fffff7ff <_eusrstack+0xdfffa7ff>
     f6a:	8ff9                	and	a5,a5,a4
D:\1.intelligent vehicle\new try\seefree\Seekfree_CH32V103R8T6_Opensource_Library\obj/../Libraries/wch_libraries/Peripheral/ch32v10x_tim.c:1005
  tmpccmr1 |= (uint16_t)(TIM_OCPreload << 8);	
     f6c:	05a2                	slli	a1,a1,0x8
     f6e:	8fcd                	or	a5,a5,a1
     f70:	07c2                	slli	a5,a5,0x10
     f72:	83c1                	srli	a5,a5,0x10
D:\1.intelligent vehicle\new try\seefree\Seekfree_CH32V103R8T6_Opensource_Library\obj/../Libraries/wch_libraries/Peripheral/ch32v10x_tim.c:1006
  TIMx->CHCTLR1 = tmpccmr1;
     f74:	00f51c23          	sh	a5,24(a0)
D:\1.intelligent vehicle\new try\seefree\Seekfree_CH32V103R8T6_Opensource_Library\obj/../Libraries/wch_libraries/Peripheral/ch32v10x_tim.c:1007
}
     f78:	8082                	ret

00000f7a <TIM_OC3PreloadConfig>:
TIM_OC3PreloadConfig():
D:\1.intelligent vehicle\new try\seefree\Seekfree_CH32V103R8T6_Opensource_Library\obj/../Libraries/wch_libraries/Peripheral/ch32v10x_tim.c:1022
*******************************************************************************/
void TIM_OC3PreloadConfig(TIM_TypeDef* TIMx, uint16_t TIM_OCPreload)
{
  uint16_t tmpccmr2 = 0;

  tmpccmr2 = TIMx->CHCTLR2;
     f7a:	01c55783          	lhu	a5,28(a0)
     f7e:	07c2                	slli	a5,a5,0x10
     f80:	83c1                	srli	a5,a5,0x10
D:\1.intelligent vehicle\new try\seefree\Seekfree_CH32V103R8T6_Opensource_Library\obj/../Libraries/wch_libraries/Peripheral/ch32v10x_tim.c:1023
  tmpccmr2 &= (uint16_t)~((uint16_t)TIM_OC3PE);
     f82:	9bdd                	andi	a5,a5,-9
D:\1.intelligent vehicle\new try\seefree\Seekfree_CH32V103R8T6_Opensource_Library\obj/../Libraries/wch_libraries/Peripheral/ch32v10x_tim.c:1024
  tmpccmr2 |= TIM_OCPreload;
     f84:	8ddd                	or	a1,a1,a5
D:\1.intelligent vehicle\new try\seefree\Seekfree_CH32V103R8T6_Opensource_Library\obj/../Libraries/wch_libraries/Peripheral/ch32v10x_tim.c:1025
  TIMx->CHCTLR2 = tmpccmr2;
     f86:	00b51e23          	sh	a1,28(a0)
D:\1.intelligent vehicle\new try\seefree\Seekfree_CH32V103R8T6_Opensource_Library\obj/../Libraries/wch_libraries/Peripheral/ch32v10x_tim.c:1026
}
     f8a:	8082                	ret

00000f8c <TIM_OC4PreloadConfig>:
TIM_OC4PreloadConfig():
D:\1.intelligent vehicle\new try\seefree\Seekfree_CH32V103R8T6_Opensource_Library\obj/../Libraries/wch_libraries/Peripheral/ch32v10x_tim.c:1041
*******************************************************************************/
void TIM_OC4PreloadConfig(TIM_TypeDef* TIMx, uint16_t TIM_OCPreload)
{
  uint16_t tmpccmr2 = 0;

  tmpccmr2 = TIMx->CHCTLR2;
     f8c:	01c55703          	lhu	a4,28(a0)
D:\1.intelligent vehicle\new try\seefree\Seekfree_CH32V103R8T6_Opensource_Library\obj/../Libraries/wch_libraries/Peripheral/ch32v10x_tim.c:1042
  tmpccmr2 &= (uint16_t)~((uint16_t)TIM_OC4PE);
     f90:	77fd                	lui	a5,0xfffff
     f92:	7ff78793          	addi	a5,a5,2047 # fffff7ff <_eusrstack+0xdfffa7ff>
     f96:	8ff9                	and	a5,a5,a4
D:\1.intelligent vehicle\new try\seefree\Seekfree_CH32V103R8T6_Opensource_Library\obj/../Libraries/wch_libraries/Peripheral/ch32v10x_tim.c:1043
  tmpccmr2 |= (uint16_t)(TIM_OCPreload << 8);
     f98:	05a2                	slli	a1,a1,0x8
     f9a:	8fcd                	or	a5,a5,a1
     f9c:	07c2                	slli	a5,a5,0x10
     f9e:	83c1                	srli	a5,a5,0x10
D:\1.intelligent vehicle\new try\seefree\Seekfree_CH32V103R8T6_Opensource_Library\obj/../Libraries/wch_libraries/Peripheral/ch32v10x_tim.c:1044
  TIMx->CHCTLR2 = tmpccmr2;
     fa0:	00f51e23          	sh	a5,28(a0)
D:\1.intelligent vehicle\new try\seefree\Seekfree_CH32V103R8T6_Opensource_Library\obj/../Libraries/wch_libraries/Peripheral/ch32v10x_tim.c:1045
}
     fa4:	8082                	ret

00000fa6 <TIM_OC1FastConfig>:
TIM_OC1FastConfig():
D:\1.intelligent vehicle\new try\seefree\Seekfree_CH32V103R8T6_Opensource_Library\obj/../Libraries/wch_libraries/Peripheral/ch32v10x_tim.c:1060
*******************************************************************************/
void TIM_OC1FastConfig(TIM_TypeDef* TIMx, uint16_t TIM_OCFast)
{
  uint16_t tmpccmr1 = 0;

  tmpccmr1 = TIMx->CHCTLR1;
     fa6:	01855783          	lhu	a5,24(a0)
     faa:	07c2                	slli	a5,a5,0x10
     fac:	83c1                	srli	a5,a5,0x10
D:\1.intelligent vehicle\new try\seefree\Seekfree_CH32V103R8T6_Opensource_Library\obj/../Libraries/wch_libraries/Peripheral/ch32v10x_tim.c:1061
  tmpccmr1 &= (uint16_t)~((uint16_t)TIM_OC1FE);
     fae:	9bed                	andi	a5,a5,-5
D:\1.intelligent vehicle\new try\seefree\Seekfree_CH32V103R8T6_Opensource_Library\obj/../Libraries/wch_libraries/Peripheral/ch32v10x_tim.c:1062
  tmpccmr1 |= TIM_OCFast;
     fb0:	8ddd                	or	a1,a1,a5
D:\1.intelligent vehicle\new try\seefree\Seekfree_CH32V103R8T6_Opensource_Library\obj/../Libraries/wch_libraries/Peripheral/ch32v10x_tim.c:1063
  TIMx->CHCTLR1 = tmpccmr1;
     fb2:	00b51c23          	sh	a1,24(a0)
D:\1.intelligent vehicle\new try\seefree\Seekfree_CH32V103R8T6_Opensource_Library\obj/../Libraries/wch_libraries/Peripheral/ch32v10x_tim.c:1064
}
     fb6:	8082                	ret

00000fb8 <TIM_OC2FastConfig>:
TIM_OC2FastConfig():
D:\1.intelligent vehicle\new try\seefree\Seekfree_CH32V103R8T6_Opensource_Library\obj/../Libraries/wch_libraries/Peripheral/ch32v10x_tim.c:1079
*******************************************************************************/
void TIM_OC2FastConfig(TIM_TypeDef* TIMx, uint16_t TIM_OCFast)
{
  uint16_t tmpccmr1 = 0;

  tmpccmr1 = TIMx->CHCTLR1;
     fb8:	01855783          	lhu	a5,24(a0)
     fbc:	07c2                	slli	a5,a5,0x10
     fbe:	83c1                	srli	a5,a5,0x10
D:\1.intelligent vehicle\new try\seefree\Seekfree_CH32V103R8T6_Opensource_Library\obj/../Libraries/wch_libraries/Peripheral/ch32v10x_tim.c:1080
  tmpccmr1 &= (uint16_t)~((uint16_t)TIM_OC2FE);
     fc0:	bff7f793          	andi	a5,a5,-1025
D:\1.intelligent vehicle\new try\seefree\Seekfree_CH32V103R8T6_Opensource_Library\obj/../Libraries/wch_libraries/Peripheral/ch32v10x_tim.c:1081
  tmpccmr1 |= (uint16_t)(TIM_OCFast << 8);
     fc4:	05a2                	slli	a1,a1,0x8
     fc6:	8fcd                	or	a5,a5,a1
     fc8:	07c2                	slli	a5,a5,0x10
     fca:	83c1                	srli	a5,a5,0x10
D:\1.intelligent vehicle\new try\seefree\Seekfree_CH32V103R8T6_Opensource_Library\obj/../Libraries/wch_libraries/Peripheral/ch32v10x_tim.c:1082
  TIMx->CHCTLR1 = tmpccmr1;
     fcc:	00f51c23          	sh	a5,24(a0)
D:\1.intelligent vehicle\new try\seefree\Seekfree_CH32V103R8T6_Opensource_Library\obj/../Libraries/wch_libraries/Peripheral/ch32v10x_tim.c:1083
}
     fd0:	8082                	ret

00000fd2 <TIM_OC3FastConfig>:
TIM_OC3FastConfig():
D:\1.intelligent vehicle\new try\seefree\Seekfree_CH32V103R8T6_Opensource_Library\obj/../Libraries/wch_libraries/Peripheral/ch32v10x_tim.c:1098
*******************************************************************************/
void TIM_OC3FastConfig(TIM_TypeDef* TIMx, uint16_t TIM_OCFast)
{
  uint16_t tmpccmr2 = 0;

  tmpccmr2 = TIMx->CHCTLR2;
     fd2:	01c55783          	lhu	a5,28(a0)
     fd6:	07c2                	slli	a5,a5,0x10
     fd8:	83c1                	srli	a5,a5,0x10
D:\1.intelligent vehicle\new try\seefree\Seekfree_CH32V103R8T6_Opensource_Library\obj/../Libraries/wch_libraries/Peripheral/ch32v10x_tim.c:1099
  tmpccmr2 &= (uint16_t)~((uint16_t)TIM_OC3FE);
     fda:	9bed                	andi	a5,a5,-5
D:\1.intelligent vehicle\new try\seefree\Seekfree_CH32V103R8T6_Opensource_Library\obj/../Libraries/wch_libraries/Peripheral/ch32v10x_tim.c:1100
  tmpccmr2 |= TIM_OCFast;	
     fdc:	8ddd                	or	a1,a1,a5
D:\1.intelligent vehicle\new try\seefree\Seekfree_CH32V103R8T6_Opensource_Library\obj/../Libraries/wch_libraries/Peripheral/ch32v10x_tim.c:1101
  TIMx->CHCTLR2 = tmpccmr2;
     fde:	00b51e23          	sh	a1,28(a0)
D:\1.intelligent vehicle\new try\seefree\Seekfree_CH32V103R8T6_Opensource_Library\obj/../Libraries/wch_libraries/Peripheral/ch32v10x_tim.c:1102
}
     fe2:	8082                	ret

00000fe4 <TIM_OC4FastConfig>:
TIM_OC4FastConfig():
D:\1.intelligent vehicle\new try\seefree\Seekfree_CH32V103R8T6_Opensource_Library\obj/../Libraries/wch_libraries/Peripheral/ch32v10x_tim.c:1117
*******************************************************************************/
void TIM_OC4FastConfig(TIM_TypeDef* TIMx, uint16_t TIM_OCFast)
{
  uint16_t tmpccmr2 = 0;

  tmpccmr2 = TIMx->CHCTLR2;
     fe4:	01c55783          	lhu	a5,28(a0)
     fe8:	07c2                	slli	a5,a5,0x10
     fea:	83c1                	srli	a5,a5,0x10
D:\1.intelligent vehicle\new try\seefree\Seekfree_CH32V103R8T6_Opensource_Library\obj/../Libraries/wch_libraries/Peripheral/ch32v10x_tim.c:1118
  tmpccmr2 &= (uint16_t)~((uint16_t)TIM_OC4FE);
     fec:	bff7f793          	andi	a5,a5,-1025
D:\1.intelligent vehicle\new try\seefree\Seekfree_CH32V103R8T6_Opensource_Library\obj/../Libraries/wch_libraries/Peripheral/ch32v10x_tim.c:1119
  tmpccmr2 |= (uint16_t)(TIM_OCFast << 8);
     ff0:	05a2                	slli	a1,a1,0x8
     ff2:	8fcd                	or	a5,a5,a1
     ff4:	07c2                	slli	a5,a5,0x10
     ff6:	83c1                	srli	a5,a5,0x10
D:\1.intelligent vehicle\new try\seefree\Seekfree_CH32V103R8T6_Opensource_Library\obj/../Libraries/wch_libraries/Peripheral/ch32v10x_tim.c:1120
  TIMx->CHCTLR2 = tmpccmr2;
     ff8:	00f51e23          	sh	a5,28(a0)
D:\1.intelligent vehicle\new try\seefree\Seekfree_CH32V103R8T6_Opensource_Library\obj/../Libraries/wch_libraries/Peripheral/ch32v10x_tim.c:1121
}
     ffc:	8082                	ret

00000ffe <TIM_GetITStatus>:
TIM_GetITStatus():
D:\1.intelligent vehicle\new try\seefree\Seekfree_CH32V103R8T6_Opensource_Library\obj/../Libraries/wch_libraries/Peripheral/ch32v10x_tim.c:1857
ITStatus TIM_GetITStatus(TIM_TypeDef* TIMx, uint16_t TIM_IT)
{
  ITStatus bitstatus = RESET;  
  uint16_t itstatus = 0x0, itenable = 0x0;
   
  itstatus = TIMx->INTFR & TIM_IT;
     ffe:	01055783          	lhu	a5,16(a0)
D:\1.intelligent vehicle\new try\seefree\Seekfree_CH32V103R8T6_Opensource_Library\obj/../Libraries/wch_libraries/Peripheral/ch32v10x_tim.c:1859
  
  itenable = TIMx->DMAINTENR & TIM_IT;
    1002:	00c55503          	lhu	a0,12(a0)
    1006:	0542                	slli	a0,a0,0x10
    1008:	8141                	srli	a0,a0,0x10
D:\1.intelligent vehicle\new try\seefree\Seekfree_CH32V103R8T6_Opensource_Library\obj/../Libraries/wch_libraries/Peripheral/ch32v10x_tim.c:1860
  if ((itstatus != (uint16_t)RESET) && (itenable != (uint16_t)RESET))
    100a:	8fed                	and	a5,a5,a1
    100c:	c789                	beqz	a5,1016 <TIM_GetITStatus+0x18>
D:\1.intelligent vehicle\new try\seefree\Seekfree_CH32V103R8T6_Opensource_Library\obj/../Libraries/wch_libraries/Peripheral/ch32v10x_tim.c:1860 (discriminator 1)
    100e:	8d6d                	and	a0,a0,a1
    1010:	00a03533          	snez	a0,a0
    1014:	8082                	ret
D:\1.intelligent vehicle\new try\seefree\Seekfree_CH32V103R8T6_Opensource_Library\obj/../Libraries/wch_libraries/Peripheral/ch32v10x_tim.c:1866
  {
    bitstatus = SET;
  }
  else
  {
    bitstatus = RESET;
    1016:	4501                	li	a0,0
D:\1.intelligent vehicle\new try\seefree\Seekfree_CH32V103R8T6_Opensource_Library\obj/../Libraries/wch_libraries/Peripheral/ch32v10x_tim.c:1870
  }
	
  return bitstatus;
}
    1018:	8082                	ret

0000101a <TIM_ClearITPendingBit>:
TIM_ClearITPendingBit():
D:\1.intelligent vehicle\new try\seefree\Seekfree_CH32V103R8T6_Opensource_Library\obj/../Libraries/wch_libraries/Peripheral/ch32v10x_tim.c:1889
*                    TIM_IT_Break: TIM Break Interrupt source.
* Return         : None
*******************************************************************************/
void TIM_ClearITPendingBit(TIM_TypeDef* TIMx, uint16_t TIM_IT)
{
  TIMx->INTFR = (uint16_t)~TIM_IT;
    101a:	fff5c593          	not	a1,a1
    101e:	05c2                	slli	a1,a1,0x10
    1020:	81c1                	srli	a1,a1,0x10
    1022:	00b51823          	sh	a1,16(a0)
D:\1.intelligent vehicle\new try\seefree\Seekfree_CH32V103R8T6_Opensource_Library\obj/../Libraries/wch_libraries/Peripheral/ch32v10x_tim.c:1890
}
    1026:	8082                	ret

00001028 <USART_Init>:
USART_Init():
D:\1.intelligent vehicle\new try\seefree\Seekfree_CH32V103R8T6_Opensource_Library\obj/../Libraries/wch_libraries/Peripheral/ch32v10x_usart.c:105
*                  USART_InitStruct: pointer to a USART_InitTypeDef structure
*      that contains the configuration information for the specified USART peripheral. 
* Return         : None
*******************************************************************************/
void USART_Init(USART_TypeDef* USARTx, USART_InitTypeDef* USART_InitStruct)
{
    1028:	7179                	addi	sp,sp,-48
    102a:	d606                	sw	ra,44(sp)
    102c:	d422                	sw	s0,40(sp)
    102e:	d226                	sw	s1,36(sp)
    1030:	842a                	mv	s0,a0
    1032:	84ae                	mv	s1,a1
D:\1.intelligent vehicle\new try\seefree\Seekfree_CH32V103R8T6_Opensource_Library\obj/../Libraries/wch_libraries/Peripheral/ch32v10x_usart.c:117
  if (USART_InitStruct->USART_HardwareFlowControl != USART_HardwareFlowControl_None)
  {
  }

  usartxbase = (uint32_t)USARTx;
  tmpreg = USARTx->CTLR2;
    1034:	01055703          	lhu	a4,16(a0)
D:\1.intelligent vehicle\new try\seefree\Seekfree_CH32V103R8T6_Opensource_Library\obj/../Libraries/wch_libraries/Peripheral/ch32v10x_usart.c:119
  tmpreg &= CTLR2_STOP_CLEAR_Mask;
  tmpreg |= (uint32_t)USART_InitStruct->USART_StopBits;  
    1038:	77f5                	lui	a5,0xffffd
    103a:	17fd                	addi	a5,a5,-1
    103c:	8ff9                	and	a5,a5,a4
    103e:	0065d703          	lhu	a4,6(a1)
    1042:	8fd9                	or	a5,a5,a4
D:\1.intelligent vehicle\new try\seefree\Seekfree_CH32V103R8T6_Opensource_Library\obj/../Libraries/wch_libraries/Peripheral/ch32v10x_usart.c:121
	
  USARTx->CTLR2 = (uint16_t)tmpreg;
    1044:	00f51823          	sh	a5,16(a0)
D:\1.intelligent vehicle\new try\seefree\Seekfree_CH32V103R8T6_Opensource_Library\obj/../Libraries/wch_libraries/Peripheral/ch32v10x_usart.c:122
  tmpreg = USARTx->CTLR1;
    1048:	00c55703          	lhu	a4,12(a0)
D:\1.intelligent vehicle\new try\seefree\Seekfree_CH32V103R8T6_Opensource_Library\obj/../Libraries/wch_libraries/Peripheral/ch32v10x_usart.c:124
  tmpreg &= CTLR1_CLEAR_Mask;
  tmpreg |= (uint32_t)USART_InitStruct->USART_WordLength | USART_InitStruct->USART_Parity |
    104c:	77fd                	lui	a5,0xfffff
    104e:	9f378793          	addi	a5,a5,-1549 # ffffe9f3 <_eusrstack+0xdfff99f3>
    1052:	8ff9                	and	a5,a5,a4
    1054:	0045d703          	lhu	a4,4(a1)
    1058:	8fd9                	or	a5,a5,a4
    105a:	0085d703          	lhu	a4,8(a1)
    105e:	8fd9                	or	a5,a5,a4
    1060:	00a5d703          	lhu	a4,10(a1)
    1064:	8fd9                	or	a5,a5,a4
D:\1.intelligent vehicle\new try\seefree\Seekfree_CH32V103R8T6_Opensource_Library\obj/../Libraries/wch_libraries/Peripheral/ch32v10x_usart.c:126
            USART_InitStruct->USART_Mode;
  USARTx->CTLR1 = (uint16_t)tmpreg;
    1066:	00f51623          	sh	a5,12(a0)
D:\1.intelligent vehicle\new try\seefree\Seekfree_CH32V103R8T6_Opensource_Library\obj/../Libraries/wch_libraries/Peripheral/ch32v10x_usart.c:128
 
  tmpreg = USARTx->CTLR3;
    106a:	01455783          	lhu	a5,20(a0)
    106e:	07c2                	slli	a5,a5,0x10
    1070:	83c1                	srli	a5,a5,0x10
D:\1.intelligent vehicle\new try\seefree\Seekfree_CH32V103R8T6_Opensource_Library\obj/../Libraries/wch_libraries/Peripheral/ch32v10x_usart.c:130
  tmpreg &= CTLR3_CLEAR_Mask;
  tmpreg |= USART_InitStruct->USART_HardwareFlowControl;
    1072:	cff7f793          	andi	a5,a5,-769
    1076:	00c5d703          	lhu	a4,12(a1)
    107a:	8fd9                	or	a5,a5,a4
D:\1.intelligent vehicle\new try\seefree\Seekfree_CH32V103R8T6_Opensource_Library\obj/../Libraries/wch_libraries/Peripheral/ch32v10x_usart.c:131
  USARTx->CTLR3 = (uint16_t)tmpreg;
    107c:	00f51a23          	sh	a5,20(a0)
D:\1.intelligent vehicle\new try\seefree\Seekfree_CH32V103R8T6_Opensource_Library\obj/../Libraries/wch_libraries/Peripheral/ch32v10x_usart.c:133

  RCC_GetClocksFreq(&RCC_ClocksStatus);
    1080:	0068                	addi	a0,sp,12
    1082:	3a2d                	jal	9bc <RCC_GetClocksFreq>
D:\1.intelligent vehicle\new try\seefree\Seekfree_CH32V103R8T6_Opensource_Library\obj/../Libraries/wch_libraries/Peripheral/ch32v10x_usart.c:135
	
  if (usartxbase == USART1_BASE)
    1084:	400147b7          	lui	a5,0x40014
    1088:	80078793          	addi	a5,a5,-2048 # 40013800 <_eusrstack+0x2000e800>
    108c:	06f40163          	beq	s0,a5,10ee <USART_Init+0xc6>
D:\1.intelligent vehicle\new try\seefree\Seekfree_CH32V103R8T6_Opensource_Library\obj/../Libraries/wch_libraries/Peripheral/ch32v10x_usart.c:141
  {
    apbclock = RCC_ClocksStatus.PCLK2_Frequency;
  }
  else
  {
    apbclock = RCC_ClocksStatus.PCLK1_Frequency;
    1090:	4752                	lw	a4,20(sp)
D:\1.intelligent vehicle\new try\seefree\Seekfree_CH32V103R8T6_Opensource_Library\obj/../Libraries/wch_libraries/Peripheral/ch32v10x_usart.c:144
  }
  
  if ((USARTx->CTLR1 & CTLR1_OVER8_Set) != 0)
    1092:	00c45783          	lhu	a5,12(s0)
    1096:	07c2                	slli	a5,a5,0x10
    1098:	87c1                	srai	a5,a5,0x10
    109a:	0407cc63          	bltz	a5,10f2 <USART_Init+0xca>
D:\1.intelligent vehicle\new try\seefree\Seekfree_CH32V103R8T6_Opensource_Library\obj/../Libraries/wch_libraries/Peripheral/ch32v10x_usart.c:150
  {
    integerdivider = ((25 * apbclock) / (2 * (USART_InitStruct->USART_BaudRate)));    
  }
  else 
  {
    integerdivider = ((25 * apbclock) / (4 * (USART_InitStruct->USART_BaudRate)));    
    109e:	00171793          	slli	a5,a4,0x1
    10a2:	97ba                	add	a5,a5,a4
    10a4:	078e                	slli	a5,a5,0x3
    10a6:	97ba                	add	a5,a5,a4
    10a8:	4098                	lw	a4,0(s1)
    10aa:	070a                	slli	a4,a4,0x2
    10ac:	02e7d7b3          	divu	a5,a5,a4
D:\1.intelligent vehicle\new try\seefree\Seekfree_CH32V103R8T6_Opensource_Library\obj/../Libraries/wch_libraries/Peripheral/ch32v10x_usart.c:152
  }
  tmpreg = (integerdivider / 100) << 4;
    10b0:	06400713          	li	a4,100
    10b4:	02e7d6b3          	divu	a3,a5,a4
    10b8:	0692                	slli	a3,a3,0x4
D:\1.intelligent vehicle\new try\seefree\Seekfree_CH32V103R8T6_Opensource_Library\obj/../Libraries/wch_libraries/Peripheral/ch32v10x_usart.c:154

  fractionaldivider = integerdivider - (100 * (tmpreg >> 4));
    10ba:	02e7f7b3          	remu	a5,a5,a4
D:\1.intelligent vehicle\new try\seefree\Seekfree_CH32V103R8T6_Opensource_Library\obj/../Libraries/wch_libraries/Peripheral/ch32v10x_usart.c:156

  if ((USARTx->CTLR1 & CTLR1_OVER8_Set) != 0)
    10be:	00c45703          	lhu	a4,12(s0)
    10c2:	0742                	slli	a4,a4,0x10
    10c4:	8741                	srai	a4,a4,0x10
    10c6:	04074063          	bltz	a4,1106 <USART_Init+0xde>
D:\1.intelligent vehicle\new try\seefree\Seekfree_CH32V103R8T6_Opensource_Library\obj/../Libraries/wch_libraries/Peripheral/ch32v10x_usart.c:162
  {
    tmpreg |= ((((fractionaldivider * 8) + 50) / 100)) & ((uint8_t)0x07);
  }
  else 
  {
    tmpreg |= ((((fractionaldivider * 16) + 50) / 100)) & ((uint8_t)0x0F);
    10ca:	0792                	slli	a5,a5,0x4
    10cc:	03278793          	addi	a5,a5,50
    10d0:	06400713          	li	a4,100
    10d4:	02e7d7b3          	divu	a5,a5,a4
    10d8:	8bbd                	andi	a5,a5,15
    10da:	8fd5                	or	a5,a5,a3
D:\1.intelligent vehicle\new try\seefree\Seekfree_CH32V103R8T6_Opensource_Library\obj/../Libraries/wch_libraries/Peripheral/ch32v10x_usart.c:165
  }
  
  USARTx->BRR = (uint16_t)tmpreg;
    10dc:	07c2                	slli	a5,a5,0x10
    10de:	83c1                	srli	a5,a5,0x10
    10e0:	00f41423          	sh	a5,8(s0)
D:\1.intelligent vehicle\new try\seefree\Seekfree_CH32V103R8T6_Opensource_Library\obj/../Libraries/wch_libraries/Peripheral/ch32v10x_usart.c:166
}
    10e4:	50b2                	lw	ra,44(sp)
    10e6:	5422                	lw	s0,40(sp)
    10e8:	5492                	lw	s1,36(sp)
    10ea:	6145                	addi	sp,sp,48
    10ec:	8082                	ret
D:\1.intelligent vehicle\new try\seefree\Seekfree_CH32V103R8T6_Opensource_Library\obj/../Libraries/wch_libraries/Peripheral/ch32v10x_usart.c:137
    apbclock = RCC_ClocksStatus.PCLK2_Frequency;
    10ee:	4762                	lw	a4,24(sp)
    10f0:	b74d                	j	1092 <USART_Init+0x6a>
D:\1.intelligent vehicle\new try\seefree\Seekfree_CH32V103R8T6_Opensource_Library\obj/../Libraries/wch_libraries/Peripheral/ch32v10x_usart.c:146
    integerdivider = ((25 * apbclock) / (2 * (USART_InitStruct->USART_BaudRate)));    
    10f2:	00171793          	slli	a5,a4,0x1
    10f6:	97ba                	add	a5,a5,a4
    10f8:	078e                	slli	a5,a5,0x3
    10fa:	97ba                	add	a5,a5,a4
    10fc:	4098                	lw	a4,0(s1)
    10fe:	0706                	slli	a4,a4,0x1
    1100:	02e7d7b3          	divu	a5,a5,a4
    1104:	b775                	j	10b0 <USART_Init+0x88>
D:\1.intelligent vehicle\new try\seefree\Seekfree_CH32V103R8T6_Opensource_Library\obj/../Libraries/wch_libraries/Peripheral/ch32v10x_usart.c:158
    tmpreg |= ((((fractionaldivider * 8) + 50) / 100)) & ((uint8_t)0x07);
    1106:	00379713          	slli	a4,a5,0x3
    110a:	03270713          	addi	a4,a4,50 # 8032 <_data_lma+0x2142>
    110e:	06400793          	li	a5,100
    1112:	02f75733          	divu	a4,a4,a5
    1116:	8b1d                	andi	a4,a4,7
    1118:	00d767b3          	or	a5,a4,a3
    111c:	b7c1                	j	10dc <USART_Init+0xb4>

0000111e <USART_Cmd>:
USART_Cmd():
D:\1.intelligent vehicle\new try\seefree\Seekfree_CH32V103R8T6_Opensource_Library\obj/../Libraries/wch_libraries/Peripheral/ch32v10x_usart.c:230
*                  NewState: ENABLE or DISABLE.
* Return         : None
*******************************************************************************/
void USART_Cmd(USART_TypeDef* USARTx, FunctionalState NewState)
{
  if (NewState != DISABLE)
    111e:	c981                	beqz	a1,112e <USART_Cmd+0x10>
D:\1.intelligent vehicle\new try\seefree\Seekfree_CH32V103R8T6_Opensource_Library\obj/../Libraries/wch_libraries/Peripheral/ch32v10x_usart.c:232
  {
    USARTx->CTLR1 |= CTLR1_UE_Set;
    1120:	00c55783          	lhu	a5,12(a0)
    1124:	6709                	lui	a4,0x2
    1126:	8fd9                	or	a5,a5,a4
    1128:	00f51623          	sh	a5,12(a0)
    112c:	8082                	ret
D:\1.intelligent vehicle\new try\seefree\Seekfree_CH32V103R8T6_Opensource_Library\obj/../Libraries/wch_libraries/Peripheral/ch32v10x_usart.c:236
  }
  else
  {
    USARTx->CTLR1 &= CTLR1_UE_Reset;
    112e:	00c55703          	lhu	a4,12(a0)
    1132:	77f9                	lui	a5,0xffffe
    1134:	17fd                	addi	a5,a5,-1
    1136:	8ff9                	and	a5,a5,a4
    1138:	00f51623          	sh	a5,12(a0)
D:\1.intelligent vehicle\new try\seefree\Seekfree_CH32V103R8T6_Opensource_Library\obj/../Libraries/wch_libraries/Peripheral/ch32v10x_usart.c:238
  }
}
    113c:	8082                	ret

0000113e <USART_ITConfig>:
USART_ITConfig():
D:\1.intelligent vehicle\new try\seefree\Seekfree_CH32V103R8T6_Opensource_Library\obj/../Libraries/wch_libraries/Peripheral/ch32v10x_usart.c:266
  if (USART_IT == USART_IT_CTS)
  {
  }   
  
  usartxbase = (uint32_t)USARTx;
  usartreg = (((uint8_t)USART_IT) >> 0x05);
    113e:	0ff5f793          	andi	a5,a1,255
    1142:	8395                	srli	a5,a5,0x5
D:\1.intelligent vehicle\new try\seefree\Seekfree_CH32V103R8T6_Opensource_Library\obj/../Libraries/wch_libraries/Peripheral/ch32v10x_usart.c:268
  itpos = USART_IT & IT_Mask;
  itmask = (((uint32_t)0x01) << itpos);
    1144:	4705                	li	a4,1
    1146:	00b715b3          	sll	a1,a4,a1
D:\1.intelligent vehicle\new try\seefree\Seekfree_CH32V103R8T6_Opensource_Library\obj/../Libraries/wch_libraries/Peripheral/ch32v10x_usart.c:270
    
  if (usartreg == 0x01) 
    114a:	00e78c63          	beq	a5,a4,1162 <USART_ITConfig+0x24>
D:\1.intelligent vehicle\new try\seefree\Seekfree_CH32V103R8T6_Opensource_Library\obj/../Libraries/wch_libraries/Peripheral/ch32v10x_usart.c:274
  {
    usartxbase += 0x0C;
  }
  else if (usartreg == 0x02) 
    114e:	4689                	li	a3,2
D:\1.intelligent vehicle\new try\seefree\Seekfree_CH32V103R8T6_Opensource_Library\obj/../Libraries/wch_libraries/Peripheral/ch32v10x_usart.c:280
  {
    usartxbase += 0x10;
  }
  else 
  {
    usartxbase += 0x14; 
    1150:	01450713          	addi	a4,a0,20
D:\1.intelligent vehicle\new try\seefree\Seekfree_CH32V103R8T6_Opensource_Library\obj/../Libraries/wch_libraries/Peripheral/ch32v10x_usart.c:274
  else if (usartreg == 0x02) 
    1154:	00d78a63          	beq	a5,a3,1168 <USART_ITConfig+0x2a>
D:\1.intelligent vehicle\new try\seefree\Seekfree_CH32V103R8T6_Opensource_Library\obj/../Libraries/wch_libraries/Peripheral/ch32v10x_usart.c:283
  }
	
  if (NewState != DISABLE)
    1158:	ca19                	beqz	a2,116e <USART_ITConfig+0x30>
D:\1.intelligent vehicle\new try\seefree\Seekfree_CH32V103R8T6_Opensource_Library\obj/../Libraries/wch_libraries/Peripheral/ch32v10x_usart.c:285
  {
    *(__IO uint32_t*)usartxbase  |= itmask;
    115a:	431c                	lw	a5,0(a4)
    115c:	8ddd                	or	a1,a1,a5
    115e:	c30c                	sw	a1,0(a4)
    1160:	8082                	ret
D:\1.intelligent vehicle\new try\seefree\Seekfree_CH32V103R8T6_Opensource_Library\obj/../Libraries/wch_libraries/Peripheral/ch32v10x_usart.c:272
    usartxbase += 0x0C;
    1162:	00c50713          	addi	a4,a0,12
    1166:	bfcd                	j	1158 <USART_ITConfig+0x1a>
D:\1.intelligent vehicle\new try\seefree\Seekfree_CH32V103R8T6_Opensource_Library\obj/../Libraries/wch_libraries/Peripheral/ch32v10x_usart.c:276
    usartxbase += 0x10;
    1168:	01050713          	addi	a4,a0,16
    116c:	b7f5                	j	1158 <USART_ITConfig+0x1a>
D:\1.intelligent vehicle\new try\seefree\Seekfree_CH32V103R8T6_Opensource_Library\obj/../Libraries/wch_libraries/Peripheral/ch32v10x_usart.c:289
  }
  else
  {
    *(__IO uint32_t*)usartxbase &= ~itmask;
    116e:	431c                	lw	a5,0(a4)
    1170:	fff5c593          	not	a1,a1
    1174:	8dfd                	and	a1,a1,a5
    1176:	c30c                	sw	a1,0(a4)
D:\1.intelligent vehicle\new try\seefree\Seekfree_CH32V103R8T6_Opensource_Library\obj/../Libraries/wch_libraries/Peripheral/ch32v10x_usart.c:291
  }
}
    1178:	8082                	ret

0000117a <USART_SendData>:
USART_SendData():
D:\1.intelligent vehicle\new try\seefree\Seekfree_CH32V103R8T6_Opensource_Library\obj/../Libraries/wch_libraries/Peripheral/ch32v10x_usart.c:405
*                  Data: the data to transmit..
* Return         : None
*******************************************************************************/
void USART_SendData(USART_TypeDef* USARTx, uint16_t Data)
{
  USARTx->DATAR = (Data & (uint16_t)0x01FF);
    117a:	1ff5f593          	andi	a1,a1,511
    117e:	00b51223          	sh	a1,4(a0)
D:\1.intelligent vehicle\new try\seefree\Seekfree_CH32V103R8T6_Opensource_Library\obj/../Libraries/wch_libraries/Peripheral/ch32v10x_usart.c:406
}
    1182:	8082                	ret

00001184 <USART_ReceiveData>:
USART_ReceiveData():
D:\1.intelligent vehicle\new try\seefree\Seekfree_CH32V103R8T6_Opensource_Library\obj/../Libraries/wch_libraries/Peripheral/ch32v10x_usart.c:416
* Input          : USARTx: where x can be 1, 2, 3 to select the USART peripheral.
* Return         : The received data.
*******************************************************************************/
uint16_t USART_ReceiveData(USART_TypeDef* USARTx)
{
  return (uint16_t)(USARTx->DATAR & (uint16_t)0x01FF);
    1184:	00455503          	lhu	a0,4(a0)
D:\1.intelligent vehicle\new try\seefree\Seekfree_CH32V103R8T6_Opensource_Library\obj/../Libraries/wch_libraries/Peripheral/ch32v10x_usart.c:417
}
    1188:	1ff57513          	andi	a0,a0,511
    118c:	8082                	ret

0000118e <USART_GetFlagStatus>:
USART_GetFlagStatus():
D:\1.intelligent vehicle\new try\seefree\Seekfree_CH32V103R8T6_Opensource_Library\obj/../Libraries/wch_libraries/Peripheral/ch32v10x_usart.c:610

  if (USART_FLAG == USART_FLAG_CTS)
  {
  }  
  
  if ((USARTx->STATR & USART_FLAG) != (uint16_t)RESET)
    118e:	00055503          	lhu	a0,0(a0)
    1192:	8d6d                	and	a0,a0,a1
D:\1.intelligent vehicle\new try\seefree\Seekfree_CH32V103R8T6_Opensource_Library\obj/../Libraries/wch_libraries/Peripheral/ch32v10x_usart.c:619
  else
  {
    bitstatus = RESET;
  }
  return bitstatus;
}
    1194:	00a03533          	snez	a0,a0
    1198:	8082                	ret

0000119a <USART_GetITStatus>:
USART_GetITStatus():
D:\1.intelligent vehicle\new try\seefree\Seekfree_CH32V103R8T6_Opensource_Library\obj/../Libraries/wch_libraries/Peripheral/ch32v10x_usart.c:668

  if (USART_IT == USART_IT_CTS)
  {
  }   
  
  usartreg = (((uint8_t)USART_IT) >> 0x05);
    119a:	0ff5f793          	andi	a5,a1,255
    119e:	8395                	srli	a5,a5,0x5
D:\1.intelligent vehicle\new try\seefree\Seekfree_CH32V103R8T6_Opensource_Library\obj/../Libraries/wch_libraries/Peripheral/ch32v10x_usart.c:670
  itmask = USART_IT & IT_Mask;
  itmask = (uint32_t)0x01 << itmask;
    11a0:	4685                	li	a3,1
    11a2:	00b69733          	sll	a4,a3,a1
D:\1.intelligent vehicle\new try\seefree\Seekfree_CH32V103R8T6_Opensource_Library\obj/../Libraries/wch_libraries/Peripheral/ch32v10x_usart.c:672
  
  if (usartreg == 0x01) 
    11a6:	02d78863          	beq	a5,a3,11d6 <USART_GetITStatus+0x3c>
D:\1.intelligent vehicle\new try\seefree\Seekfree_CH32V103R8T6_Opensource_Library\obj/../Libraries/wch_libraries/Peripheral/ch32v10x_usart.c:676
  {
    itmask &= USARTx->CTLR1;
  }
  else if (usartreg == 0x02) 
    11aa:	4689                	li	a3,2
    11ac:	02d78963          	beq	a5,a3,11de <USART_GetITStatus+0x44>
D:\1.intelligent vehicle\new try\seefree\Seekfree_CH32V103R8T6_Opensource_Library\obj/../Libraries/wch_libraries/Peripheral/ch32v10x_usart.c:682
  {
    itmask &= USARTx->CTLR2;
  }
  else 
  {
    itmask &= USARTx->CTLR3;
    11b0:	01455783          	lhu	a5,20(a0)
    11b4:	8f7d                	and	a4,a4,a5
D:\1.intelligent vehicle\new try\seefree\Seekfree_CH32V103R8T6_Opensource_Library\obj/../Libraries/wch_libraries/Peripheral/ch32v10x_usart.c:687
  }
  
  bitpos = USART_IT >> 0x08;
  bitpos = (uint32_t)0x01 << bitpos;
  bitpos &= USARTx->STATR;
    11b6:	00055503          	lhu	a0,0(a0)
    11ba:	01051793          	slli	a5,a0,0x10
    11be:	83c1                	srli	a5,a5,0x10
D:\1.intelligent vehicle\new try\seefree\Seekfree_CH32V103R8T6_Opensource_Library\obj/../Libraries/wch_libraries/Peripheral/ch32v10x_usart.c:695
  {
    bitstatus = SET;
  }
  else
  {
    bitstatus = RESET;
    11c0:	4501                	li	a0,0
D:\1.intelligent vehicle\new try\seefree\Seekfree_CH32V103R8T6_Opensource_Library\obj/../Libraries/wch_libraries/Peripheral/ch32v10x_usart.c:689
  if ((itmask != (uint16_t)RESET)&&(bitpos != (uint16_t)RESET))
    11c2:	cb09                	beqz	a4,11d4 <USART_GetITStatus+0x3a>
D:\1.intelligent vehicle\new try\seefree\Seekfree_CH32V103R8T6_Opensource_Library\obj/../Libraries/wch_libraries/Peripheral/ch32v10x_usart.c:685 (discriminator 1)
  bitpos = USART_IT >> 0x08;
    11c4:	81a1                	srli	a1,a1,0x8
D:\1.intelligent vehicle\new try\seefree\Seekfree_CH32V103R8T6_Opensource_Library\obj/../Libraries/wch_libraries/Peripheral/ch32v10x_usart.c:686 (discriminator 1)
  bitpos = (uint32_t)0x01 << bitpos;
    11c6:	4505                	li	a0,1
    11c8:	00b515b3          	sll	a1,a0,a1
D:\1.intelligent vehicle\new try\seefree\Seekfree_CH32V103R8T6_Opensource_Library\obj/../Libraries/wch_libraries/Peripheral/ch32v10x_usart.c:687 (discriminator 1)
  bitpos &= USARTx->STATR;
    11cc:	00b7f533          	and	a0,a5,a1
D:\1.intelligent vehicle\new try\seefree\Seekfree_CH32V103R8T6_Opensource_Library\obj/../Libraries/wch_libraries/Peripheral/ch32v10x_usart.c:689 (discriminator 1)
  if ((itmask != (uint16_t)RESET)&&(bitpos != (uint16_t)RESET))
    11d0:	00a03533          	snez	a0,a0
D:\1.intelligent vehicle\new try\seefree\Seekfree_CH32V103R8T6_Opensource_Library\obj/../Libraries/wch_libraries/Peripheral/ch32v10x_usart.c:699
  }
  
  return bitstatus;  
}
    11d4:	8082                	ret
D:\1.intelligent vehicle\new try\seefree\Seekfree_CH32V103R8T6_Opensource_Library\obj/../Libraries/wch_libraries/Peripheral/ch32v10x_usart.c:674
    itmask &= USARTx->CTLR1;
    11d6:	00c55783          	lhu	a5,12(a0)
    11da:	8f7d                	and	a4,a4,a5
    11dc:	bfe9                	j	11b6 <USART_GetITStatus+0x1c>
D:\1.intelligent vehicle\new try\seefree\Seekfree_CH32V103R8T6_Opensource_Library\obj/../Libraries/wch_libraries/Peripheral/ch32v10x_usart.c:678
    itmask &= USARTx->CTLR2;
    11de:	01055783          	lhu	a5,16(a0)
    11e2:	8f7d                	and	a4,a4,a5
    11e4:	bfc9                	j	11b6 <USART_GetITStatus+0x1c>

000011e6 <USART_ClearITPendingBit>:
USART_ClearITPendingBit():
D:\1.intelligent vehicle\new try\seefree\Seekfree_CH32V103R8T6_Opensource_Library\obj/../Libraries/wch_libraries/Peripheral/ch32v10x_usart.c:721
  if (USART_IT == USART_IT_CTS)
  {
  }   
  
  bitpos = USART_IT >> 0x08;
  itmask = ((uint16_t)0x01 << (uint16_t)bitpos);
    11e6:	81a1                	srli	a1,a1,0x8
    11e8:	4785                	li	a5,1
    11ea:	00b797b3          	sll	a5,a5,a1
D:\1.intelligent vehicle\new try\seefree\Seekfree_CH32V103R8T6_Opensource_Library\obj/../Libraries/wch_libraries/Peripheral/ch32v10x_usart.c:722
  USARTx->STATR = (uint16_t)~itmask;
    11ee:	fff7c793          	not	a5,a5
    11f2:	07c2                	slli	a5,a5,0x10
    11f4:	83c1                	srli	a5,a5,0x10
    11f6:	00f51023          	sh	a5,0(a0)
D:\1.intelligent vehicle\new try\seefree\Seekfree_CH32V103R8T6_Opensource_Library\obj/../Libraries/wch_libraries/Peripheral/ch32v10x_usart.c:723
}
    11fa:	8082                	ret

000011fc <lcd_writeIndex>:
lcd_writeIndex():
D:\1.intelligent vehicle\new try\seefree\Seekfree_CH32V103R8T6_Opensource_Library\obj/../Libraries/seekfree_peripheral/SEEKFREE_18TFT.c:47
#include "SEEKFREE_18TFT.h"



void  lcd_writeIndex(uint8 dat)         //写命令
{
    11fc:	1101                	addi	sp,sp,-32
    11fe:	ce06                	sw	ra,28(sp)
    1200:	cc22                	sw	s0,24(sp)
    1202:	ca26                	sw	s1,20(sp)
    1204:	00a107a3          	sb	a0,15(sp)
D:\1.intelligent vehicle\new try\seefree\Seekfree_CH32V103R8T6_Opensource_Library\obj/../Libraries/seekfree_peripheral/SEEKFREE_18TFT.c:48
    TFT_CS(0);
    1208:	6799                	lui	a5,0x6
    120a:	c5c7a403          	lw	s0,-932(a5) # 5c5c <GPION+0x8>
    120e:	64a1                	lui	s1,0x8
    1210:	c844                	sw	s1,20(s0)
D:\1.intelligent vehicle\new try\seefree\Seekfree_CH32V103R8T6_Opensource_Library\obj/../Libraries/seekfree_peripheral/SEEKFREE_18TFT.c:49
    TFT_DC(0);
    1212:	6791                	lui	a5,0x4
    1214:	c85c                	sw	a5,20(s0)
D:\1.intelligent vehicle\new try\seefree\Seekfree_CH32V103R8T6_Opensource_Library\obj/../Libraries/seekfree_peripheral/SEEKFREE_18TFT.c:50
    spi_mosi(TFT_SPIN, &dat, NULL, 1);
    1216:	4685                	li	a3,1
    1218:	4601                	li	a2,0
    121a:	00f10593          	addi	a1,sp,15
    121e:	4501                	li	a0,0
    1220:	5f0010ef          	jal	ra,2810 <spi_mosi>
D:\1.intelligent vehicle\new try\seefree\Seekfree_CH32V103R8T6_Opensource_Library\obj/../Libraries/seekfree_peripheral/SEEKFREE_18TFT.c:51
    TFT_CS(1);
    1224:	c804                	sw	s1,16(s0)
D:\1.intelligent vehicle\new try\seefree\Seekfree_CH32V103R8T6_Opensource_Library\obj/../Libraries/seekfree_peripheral/SEEKFREE_18TFT.c:53

}
    1226:	40f2                	lw	ra,28(sp)
    1228:	4462                	lw	s0,24(sp)
    122a:	44d2                	lw	s1,20(sp)
    122c:	6105                	addi	sp,sp,32
    122e:	8082                	ret

00001230 <lcd_writeData>:
lcd_writeData():
D:\1.intelligent vehicle\new try\seefree\Seekfree_CH32V103R8T6_Opensource_Library\obj/../Libraries/seekfree_peripheral/SEEKFREE_18TFT.c:56

void lcd_writeData(uint8 dat)           //写数据
{
    1230:	1101                	addi	sp,sp,-32
    1232:	ce06                	sw	ra,28(sp)
    1234:	cc22                	sw	s0,24(sp)
    1236:	ca26                	sw	s1,20(sp)
    1238:	00a107a3          	sb	a0,15(sp)
D:\1.intelligent vehicle\new try\seefree\Seekfree_CH32V103R8T6_Opensource_Library\obj/../Libraries/seekfree_peripheral/SEEKFREE_18TFT.c:57
    TFT_CS(0);
    123c:	6799                	lui	a5,0x6
    123e:	c5c7a403          	lw	s0,-932(a5) # 5c5c <GPION+0x8>
    1242:	64a1                	lui	s1,0x8
    1244:	c844                	sw	s1,20(s0)
D:\1.intelligent vehicle\new try\seefree\Seekfree_CH32V103R8T6_Opensource_Library\obj/../Libraries/seekfree_peripheral/SEEKFREE_18TFT.c:58
    TFT_DC(1);
    1246:	6791                	lui	a5,0x4
    1248:	c81c                	sw	a5,16(s0)
D:\1.intelligent vehicle\new try\seefree\Seekfree_CH32V103R8T6_Opensource_Library\obj/../Libraries/seekfree_peripheral/SEEKFREE_18TFT.c:59
    spi_mosi(TFT_SPIN, &dat, &dat, 1);
    124a:	4685                	li	a3,1
    124c:	00f10613          	addi	a2,sp,15
    1250:	85b2                	mv	a1,a2
    1252:	4501                	li	a0,0
    1254:	5bc010ef          	jal	ra,2810 <spi_mosi>
D:\1.intelligent vehicle\new try\seefree\Seekfree_CH32V103R8T6_Opensource_Library\obj/../Libraries/seekfree_peripheral/SEEKFREE_18TFT.c:60
    TFT_CS(1);
    1258:	c804                	sw	s1,16(s0)
D:\1.intelligent vehicle\new try\seefree\Seekfree_CH32V103R8T6_Opensource_Library\obj/../Libraries/seekfree_peripheral/SEEKFREE_18TFT.c:61
}
    125a:	40f2                	lw	ra,28(sp)
    125c:	4462                	lw	s0,24(sp)
    125e:	44d2                	lw	s1,20(sp)
    1260:	6105                	addi	sp,sp,32
    1262:	8082                	ret

00001264 <lcd_writedata_16bit>:
lcd_writedata_16bit():
D:\1.intelligent vehicle\new try\seefree\Seekfree_CH32V103R8T6_Opensource_Library\obj/../Libraries/seekfree_peripheral/SEEKFREE_18TFT.c:64

void lcd_writedata_16bit(uint16 dat)    //向液晶屏写一个16位数据
{
    1264:	1101                	addi	sp,sp,-32
    1266:	ce06                	sw	ra,28(sp)
    1268:	cc22                	sw	s0,24(sp)
    126a:	ca26                	sw	s1,20(sp)
D:\1.intelligent vehicle\new try\seefree\Seekfree_CH32V103R8T6_Opensource_Library\obj/../Libraries/seekfree_peripheral/SEEKFREE_18TFT.c:66
    uint8 dat1[2];
    TFT_CS(0);
    126c:	6799                	lui	a5,0x6
    126e:	c5c7a403          	lw	s0,-932(a5) # 5c5c <GPION+0x8>
    1272:	64a1                	lui	s1,0x8
    1274:	c844                	sw	s1,20(s0)
D:\1.intelligent vehicle\new try\seefree\Seekfree_CH32V103R8T6_Opensource_Library\obj/../Libraries/seekfree_peripheral/SEEKFREE_18TFT.c:67
    dat1[0] = dat >> 8;
    1276:	00855793          	srli	a5,a0,0x8
    127a:	00f10623          	sb	a5,12(sp)
D:\1.intelligent vehicle\new try\seefree\Seekfree_CH32V103R8T6_Opensource_Library\obj/../Libraries/seekfree_peripheral/SEEKFREE_18TFT.c:68
    dat1[1] = (uint8)dat;
    127e:	00a106a3          	sb	a0,13(sp)
D:\1.intelligent vehicle\new try\seefree\Seekfree_CH32V103R8T6_Opensource_Library\obj/../Libraries/seekfree_peripheral/SEEKFREE_18TFT.c:70
    
    TFT_DC(1);
    1282:	6791                	lui	a5,0x4
    1284:	c81c                	sw	a5,16(s0)
D:\1.intelligent vehicle\new try\seefree\Seekfree_CH32V103R8T6_Opensource_Library\obj/../Libraries/seekfree_peripheral/SEEKFREE_18TFT.c:71
    spi_mosi(TFT_SPIN, dat1, dat1, 2);  //写入数据  高位在前  低位在后
    1286:	4689                	li	a3,2
    1288:	0070                	addi	a2,sp,12
    128a:	85b2                	mv	a1,a2
    128c:	4501                	li	a0,0
    128e:	582010ef          	jal	ra,2810 <spi_mosi>
D:\1.intelligent vehicle\new try\seefree\Seekfree_CH32V103R8T6_Opensource_Library\obj/../Libraries/seekfree_peripheral/SEEKFREE_18TFT.c:72
    TFT_CS(1);
    1292:	c804                	sw	s1,16(s0)
D:\1.intelligent vehicle\new try\seefree\Seekfree_CH32V103R8T6_Opensource_Library\obj/../Libraries/seekfree_peripheral/SEEKFREE_18TFT.c:73
}
    1294:	40f2                	lw	ra,28(sp)
    1296:	4462                	lw	s0,24(sp)
    1298:	44d2                	lw	s1,20(sp)
    129a:	6105                	addi	sp,sp,32
    129c:	8082                	ret

0000129e <lcd_set_region>:
lcd_set_region():
D:\1.intelligent vehicle\new try\seefree\Seekfree_CH32V103R8T6_Opensource_Library\obj/../Libraries/seekfree_peripheral/SEEKFREE_18TFT.c:86
//  @return     void
//  @since      v1.0
//  Sample usage:               lcd_set_region(0,0,10,10);// x、y的起点都是0，终点都是10
//-------------------------------------------------------------------------------------------------------------------
void lcd_set_region(unsigned int x_start,unsigned int y_start,unsigned int x_end,unsigned int y_end)
{
    129e:	1101                	addi	sp,sp,-32
    12a0:	ce06                	sw	ra,28(sp)
    12a2:	cc22                	sw	s0,24(sp)
    12a4:	ca26                	sw	s1,20(sp)
    12a6:	c84a                	sw	s2,16(sp)
    12a8:	c64e                	sw	s3,12(sp)
D:\1.intelligent vehicle\new try\seefree\Seekfree_CH32V103R8T6_Opensource_Library\obj/../Libraries/seekfree_peripheral/SEEKFREE_18TFT.c:87
    assert(TFT_X_MAX>x_start);//参数断言，进入断言标志参数超出范围
    12aa:	09f00793          	li	a5,159
    12ae:	06a7ee63          	bltu	a5,a0,132a <lcd_set_region+0x8c>
    12b2:	842a                	mv	s0,a0
    12b4:	84ae                	mv	s1,a1
    12b6:	8932                	mv	s2,a2
    12b8:	89b6                	mv	s3,a3
D:\1.intelligent vehicle\new try\seefree\Seekfree_CH32V103R8T6_Opensource_Library\obj/../Libraries/seekfree_peripheral/SEEKFREE_18TFT.c:88
    assert(TFT_Y_MAX>y_start);
    12ba:	07f00793          	li	a5,127
    12be:	08b7e563          	bltu	a5,a1,1348 <lcd_set_region+0xaa>
D:\1.intelligent vehicle\new try\seefree\Seekfree_CH32V103R8T6_Opensource_Library\obj/../Libraries/seekfree_peripheral/SEEKFREE_18TFT.c:90
    
    assert(TFT_X_MAX>x_end);
    12c2:	09f00793          	li	a5,159
    12c6:	0ac7e063          	bltu	a5,a2,1366 <lcd_set_region+0xc8>
D:\1.intelligent vehicle\new try\seefree\Seekfree_CH32V103R8T6_Opensource_Library\obj/../Libraries/seekfree_peripheral/SEEKFREE_18TFT.c:91
    assert(TFT_Y_MAX>y_end);
    12ca:	07f00793          	li	a5,127
    12ce:	0ad7eb63          	bltu	a5,a3,1384 <lcd_set_region+0xe6>
D:\1.intelligent vehicle\new try\seefree\Seekfree_CH32V103R8T6_Opensource_Library\obj/../Libraries/seekfree_peripheral/SEEKFREE_18TFT.c:107
    lcd_writeData(y_start+1);
    lcd_writeData(0x00);
    lcd_writeData(y_end+1);

#elif(2 == TFT_DISPLAY_DIR || 3 == TFT_DISPLAY_DIR)
    lcd_writeIndex(0x2a);
    12d2:	02a00513          	li	a0,42
    12d6:	371d                	jal	11fc <lcd_writeIndex>
D:\1.intelligent vehicle\new try\seefree\Seekfree_CH32V103R8T6_Opensource_Library\obj/../Libraries/seekfree_peripheral/SEEKFREE_18TFT.c:108
    lcd_writeData(0x00);
    12d8:	4501                	li	a0,0
    12da:	3f99                	jal	1230 <lcd_writeData>
D:\1.intelligent vehicle\new try\seefree\Seekfree_CH32V103R8T6_Opensource_Library\obj/../Libraries/seekfree_peripheral/SEEKFREE_18TFT.c:109
    lcd_writeData(x_start+1);
    12dc:	00140513          	addi	a0,s0,1
    12e0:	0ff57513          	andi	a0,a0,255
    12e4:	37b1                	jal	1230 <lcd_writeData>
D:\1.intelligent vehicle\new try\seefree\Seekfree_CH32V103R8T6_Opensource_Library\obj/../Libraries/seekfree_peripheral/SEEKFREE_18TFT.c:110
    lcd_writeData(0x0);
    12e6:	4501                	li	a0,0
    12e8:	37a1                	jal	1230 <lcd_writeData>
D:\1.intelligent vehicle\new try\seefree\Seekfree_CH32V103R8T6_Opensource_Library\obj/../Libraries/seekfree_peripheral/SEEKFREE_18TFT.c:111
    lcd_writeData(x_end+1);
    12ea:	00190513          	addi	a0,s2,1
    12ee:	0ff57513          	andi	a0,a0,255
    12f2:	3f3d                	jal	1230 <lcd_writeData>
D:\1.intelligent vehicle\new try\seefree\Seekfree_CH32V103R8T6_Opensource_Library\obj/../Libraries/seekfree_peripheral/SEEKFREE_18TFT.c:113

    lcd_writeIndex(0x2b);
    12f4:	02b00513          	li	a0,43
    12f8:	3711                	jal	11fc <lcd_writeIndex>
D:\1.intelligent vehicle\new try\seefree\Seekfree_CH32V103R8T6_Opensource_Library\obj/../Libraries/seekfree_peripheral/SEEKFREE_18TFT.c:114
    lcd_writeData(0x00);
    12fa:	4501                	li	a0,0
    12fc:	3f15                	jal	1230 <lcd_writeData>
D:\1.intelligent vehicle\new try\seefree\Seekfree_CH32V103R8T6_Opensource_Library\obj/../Libraries/seekfree_peripheral/SEEKFREE_18TFT.c:115
    lcd_writeData(y_start+2);
    12fe:	00248513          	addi	a0,s1,2 # 8002 <_data_lma+0x2112>
    1302:	0ff57513          	andi	a0,a0,255
    1306:	372d                	jal	1230 <lcd_writeData>
D:\1.intelligent vehicle\new try\seefree\Seekfree_CH32V103R8T6_Opensource_Library\obj/../Libraries/seekfree_peripheral/SEEKFREE_18TFT.c:116
    lcd_writeData(0x00);
    1308:	4501                	li	a0,0
    130a:	371d                	jal	1230 <lcd_writeData>
D:\1.intelligent vehicle\new try\seefree\Seekfree_CH32V103R8T6_Opensource_Library\obj/../Libraries/seekfree_peripheral/SEEKFREE_18TFT.c:117
    lcd_writeData(y_end+2);
    130c:	00298513          	addi	a0,s3,2
    1310:	0ff57513          	andi	a0,a0,255
    1314:	3f31                	jal	1230 <lcd_writeData>
D:\1.intelligent vehicle\new try\seefree\Seekfree_CH32V103R8T6_Opensource_Library\obj/../Libraries/seekfree_peripheral/SEEKFREE_18TFT.c:121

#endif
    
    lcd_writeIndex(0x2c);
    1316:	02c00513          	li	a0,44
    131a:	35cd                	jal	11fc <lcd_writeIndex>
D:\1.intelligent vehicle\new try\seefree\Seekfree_CH32V103R8T6_Opensource_Library\obj/../Libraries/seekfree_peripheral/SEEKFREE_18TFT.c:122
}
    131c:	40f2                	lw	ra,28(sp)
    131e:	4462                	lw	s0,24(sp)
    1320:	44d2                	lw	s1,20(sp)
    1322:	4942                	lw	s2,16(sp)
    1324:	49b2                	lw	s3,12(sp)
    1326:	6105                	addi	sp,sp,32
    1328:	8082                	ret
D:\1.intelligent vehicle\new try\seefree\Seekfree_CH32V103R8T6_Opensource_Library\obj/../Libraries/seekfree_peripheral/SEEKFREE_18TFT.c:87 (discriminator 1)
    assert(TFT_X_MAX>x_start);//参数断言，进入断言标志参数超出范围
    132a:	000056b7          	lui	a3,0x5
    132e:	5e868693          	addi	a3,a3,1512 # 55e8 <__func__.3213+0x10>
    1332:	6615                	lui	a2,0x5
    1334:	5d860613          	addi	a2,a2,1496 # 55d8 <__func__.3213>
    1338:	05700593          	li	a1,87
    133c:	00005537          	lui	a0,0x5
    1340:	5fc50513          	addi	a0,a0,1532 # 55fc <__func__.3213+0x24>
    1344:	050030ef          	jal	ra,4394 <__assert_func>
D:\1.intelligent vehicle\new try\seefree\Seekfree_CH32V103R8T6_Opensource_Library\obj/../Libraries/seekfree_peripheral/SEEKFREE_18TFT.c:88 (discriminator 1)
    assert(TFT_Y_MAX>y_start);
    1348:	000056b7          	lui	a3,0x5
    134c:	63068693          	addi	a3,a3,1584 # 5630 <__func__.3213+0x58>
    1350:	6615                	lui	a2,0x5
    1352:	5d860613          	addi	a2,a2,1496 # 55d8 <__func__.3213>
    1356:	05800593          	li	a1,88
    135a:	00005537          	lui	a0,0x5
    135e:	5fc50513          	addi	a0,a0,1532 # 55fc <__func__.3213+0x24>
    1362:	032030ef          	jal	ra,4394 <__assert_func>
D:\1.intelligent vehicle\new try\seefree\Seekfree_CH32V103R8T6_Opensource_Library\obj/../Libraries/seekfree_peripheral/SEEKFREE_18TFT.c:90 (discriminator 1)
    assert(TFT_X_MAX>x_end);
    1366:	000056b7          	lui	a3,0x5
    136a:	64468693          	addi	a3,a3,1604 # 5644 <__func__.3213+0x6c>
    136e:	6615                	lui	a2,0x5
    1370:	5d860613          	addi	a2,a2,1496 # 55d8 <__func__.3213>
    1374:	05a00593          	li	a1,90
    1378:	00005537          	lui	a0,0x5
    137c:	5fc50513          	addi	a0,a0,1532 # 55fc <__func__.3213+0x24>
    1380:	014030ef          	jal	ra,4394 <__assert_func>
D:\1.intelligent vehicle\new try\seefree\Seekfree_CH32V103R8T6_Opensource_Library\obj/../Libraries/seekfree_peripheral/SEEKFREE_18TFT.c:91 (discriminator 1)
    assert(TFT_Y_MAX>y_end);
    1384:	000056b7          	lui	a3,0x5
    1388:	65468693          	addi	a3,a3,1620 # 5654 <__func__.3213+0x7c>
    138c:	6615                	lui	a2,0x5
    138e:	5d860613          	addi	a2,a2,1496 # 55d8 <__func__.3213>
    1392:	05b00593          	li	a1,91
    1396:	00005537          	lui	a0,0x5
    139a:	5fc50513          	addi	a0,a0,1532 # 55fc <__func__.3213+0x24>
    139e:	7f7020ef          	jal	ra,4394 <__assert_func>

000013a2 <lcd_clear>:
lcd_clear():
D:\1.intelligent vehicle\new try\seefree\Seekfree_CH32V103R8T6_Opensource_Library\obj/../Libraries/seekfree_peripheral/SEEKFREE_18TFT.c:132
//  @return     void
//  @since      v1.0
//  Sample usage:               lcd_clear(YELLOW);// 全屏设置为黄色
//-------------------------------------------------------------------------------------------------------------------
void lcd_clear(uint16 color)
{
    13a2:	1101                	addi	sp,sp,-32
    13a4:	ce06                	sw	ra,28(sp)
    13a6:	cc22                	sw	s0,24(sp)
    13a8:	ca26                	sw	s1,20(sp)
    13aa:	c84a                	sw	s2,16(sp)
    13ac:	c64e                	sw	s3,12(sp)
    13ae:	84aa                	mv	s1,a0
D:\1.intelligent vehicle\new try\seefree\Seekfree_CH32V103R8T6_Opensource_Library\obj/../Libraries/seekfree_peripheral/SEEKFREE_18TFT.c:134
    uint8 i,j;
    lcd_set_region(0,0,TFT_X_MAX-1,TFT_Y_MAX-1);
    13b0:	07f00693          	li	a3,127
    13b4:	09f00613          	li	a2,159
    13b8:	4581                	li	a1,0
    13ba:	4501                	li	a0,0
    13bc:	35cd                	jal	129e <lcd_set_region>
    13be:	08000913          	li	s2,128
D:\1.intelligent vehicle\new try\seefree\Seekfree_CH32V103R8T6_Opensource_Library\obj/../Libraries/seekfree_peripheral/SEEKFREE_18TFT.c:132
{
    13c2:	0a000993          	li	s3,160
    13c6:	a021                	j	13ce <lcd_clear+0x2c>
    13c8:	197d                	addi	s2,s2,-1
D:\1.intelligent vehicle\new try\seefree\Seekfree_CH32V103R8T6_Opensource_Library\obj/../Libraries/seekfree_peripheral/SEEKFREE_18TFT.c:135 (discriminator 2)
    for (i=0;i<TFT_Y_MAX;i++)
    13ca:	00090a63          	beqz	s2,13de <lcd_clear+0x3c>
D:\1.intelligent vehicle\new try\seefree\Seekfree_CH32V103R8T6_Opensource_Library\obj/../Libraries/seekfree_peripheral/SEEKFREE_18TFT.c:132
{
    13ce:	844e                	mv	s0,s3
D:\1.intelligent vehicle\new try\seefree\Seekfree_CH32V103R8T6_Opensource_Library\obj/../Libraries/seekfree_peripheral/SEEKFREE_18TFT.c:137 (discriminator 3)
        for (j=0;j<TFT_X_MAX;j++)
            lcd_writedata_16bit(color);
    13d0:	8526                	mv	a0,s1
    13d2:	3d49                	jal	1264 <lcd_writedata_16bit>
    13d4:	147d                	addi	s0,s0,-1
    13d6:	0ff47413          	andi	s0,s0,255
D:\1.intelligent vehicle\new try\seefree\Seekfree_CH32V103R8T6_Opensource_Library\obj/../Libraries/seekfree_peripheral/SEEKFREE_18TFT.c:136 (discriminator 3)
        for (j=0;j<TFT_X_MAX;j++)
    13da:	f87d                	bnez	s0,13d0 <lcd_clear+0x2e>
    13dc:	b7f5                	j	13c8 <lcd_clear+0x26>
D:\1.intelligent vehicle\new try\seefree\Seekfree_CH32V103R8T6_Opensource_Library\obj/../Libraries/seekfree_peripheral/SEEKFREE_18TFT.c:138
}
    13de:	40f2                	lw	ra,28(sp)
    13e0:	4462                	lw	s0,24(sp)
    13e2:	44d2                	lw	s1,20(sp)
    13e4:	4942                	lw	s2,16(sp)
    13e6:	49b2                	lw	s3,12(sp)
    13e8:	6105                	addi	sp,sp,32
    13ea:	8082                	ret

000013ec <lcd_init>:
lcd_init():
D:\1.intelligent vehicle\new try\seefree\Seekfree_CH32V103R8T6_Opensource_Library\obj/../Libraries/seekfree_peripheral/SEEKFREE_18TFT.c:148
//  @return     void
//  @since      v1.0
//  Sample usage:               
//-------------------------------------------------------------------------------------------------------------------
void lcd_init(void)
{
    13ec:	1101                	addi	sp,sp,-32
    13ee:	ce06                	sw	ra,28(sp)
    13f0:	cc22                	sw	s0,24(sp)
    13f2:	ca26                	sw	s1,20(sp)
    13f4:	c84a                	sw	s2,16(sp)
    13f6:	c64e                	sw	s3,12(sp)
D:\1.intelligent vehicle\new try\seefree\Seekfree_CH32V103R8T6_Opensource_Library\obj/../Libraries/seekfree_peripheral/SEEKFREE_18TFT.c:149
    spi_init(TFT_SPIN, TFT_SCL, TFT_SDA, TFT_SDA_IN, TFT_CS_PIN, 0, FPCLK_DIV_2);//硬件SPI初始化
    13f8:	4801                	li	a6,0
    13fa:	4781                	li	a5,0
    13fc:	04f00713          	li	a4,79
    1400:	02300693          	li	a3,35
    1404:	4605                	li	a2,1
    1406:	4581                	li	a1,0
    1408:	4501                	li	a0,0
    140a:	30a010ef          	jal	ra,2714 <spi_init>
D:\1.intelligent vehicle\new try\seefree\Seekfree_CH32V103R8T6_Opensource_Library\obj/../Libraries/seekfree_peripheral/SEEKFREE_18TFT.c:151
    
    gpio_init(TFT_CS_PIN, GPO, 1, GPIO_PIN_CONFIG);
    140e:	31000693          	li	a3,784
    1412:	4605                	li	a2,1
    1414:	4585                	li	a1,1
    1416:	04f00513          	li	a0,79
    141a:	79e000ef          	jal	ra,1bb8 <gpio_init>
D:\1.intelligent vehicle\new try\seefree\Seekfree_CH32V103R8T6_Opensource_Library\obj/../Libraries/seekfree_peripheral/SEEKFREE_18TFT.c:152
    gpio_init(TFT_REST_PIN, GPO, 0, GPIO_PIN_CONFIG);
    141e:	31000693          	li	a3,784
    1422:	4601                	li	a2,0
    1424:	4585                	li	a1,1
    1426:	04d00513          	li	a0,77
    142a:	78e000ef          	jal	ra,1bb8 <gpio_init>
D:\1.intelligent vehicle\new try\seefree\Seekfree_CH32V103R8T6_Opensource_Library\obj/../Libraries/seekfree_peripheral/SEEKFREE_18TFT.c:153
    gpio_init(TFT_DC_PIN, GPO, 0, GPIO_PIN_CONFIG);
    142e:	31000693          	li	a3,784
    1432:	4601                	li	a2,0
    1434:	4585                	li	a1,1
    1436:	04e00513          	li	a0,78
    143a:	77e000ef          	jal	ra,1bb8 <gpio_init>
D:\1.intelligent vehicle\new try\seefree\Seekfree_CH32V103R8T6_Opensource_Library\obj/../Libraries/seekfree_peripheral/SEEKFREE_18TFT.c:155
    
    TFT_REST(0);
    143e:	6799                	lui	a5,0x6
    1440:	c5c7a983          	lw	s3,-932(a5) # 5c5c <GPION+0x8>
    1444:	6909                	lui	s2,0x2
    1446:	0129aa23          	sw	s2,20(s3)
D:\1.intelligent vehicle\new try\seefree\Seekfree_CH32V103R8T6_Opensource_Library\obj/../Libraries/seekfree_peripheral/SEEKFREE_18TFT.c:156
    systick_delay_ms(10);
    144a:	8501a503          	lw	a0,-1968(gp) # 200000c0 <sys_clk>
    144e:	f4090413          	addi	s0,s2,-192 # 1f40 <pwm_gpio_init+0x114>
    1452:	02855533          	divu	a0,a0,s0
    1456:	00251793          	slli	a5,a0,0x2
    145a:	953e                	add	a0,a0,a5
    145c:	0506                	slli	a0,a0,0x1
    145e:	4581                	li	a1,0
    1460:	3ea010ef          	jal	ra,284a <systick_delay>
D:\1.intelligent vehicle\new try\seefree\Seekfree_CH32V103R8T6_Opensource_Library\obj/../Libraries/seekfree_peripheral/SEEKFREE_18TFT.c:157
    TFT_REST(1);
    1464:	0129a823          	sw	s2,16(s3)
D:\1.intelligent vehicle\new try\seefree\Seekfree_CH32V103R8T6_Opensource_Library\obj/../Libraries/seekfree_peripheral/SEEKFREE_18TFT.c:158
    systick_delay_ms(120);
    1468:	8501a503          	lw	a0,-1968(gp) # 200000c0 <sys_clk>
    146c:	02855533          	divu	a0,a0,s0
    1470:	00451793          	slli	a5,a0,0x4
    1474:	40a78533          	sub	a0,a5,a0
    1478:	050e                	slli	a0,a0,0x3
    147a:	4581                	li	a1,0
    147c:	3ce010ef          	jal	ra,284a <systick_delay>
D:\1.intelligent vehicle\new try\seefree\Seekfree_CH32V103R8T6_Opensource_Library\obj/../Libraries/seekfree_peripheral/SEEKFREE_18TFT.c:159
    lcd_writeIndex(0x11);
    1480:	4545                	li	a0,17
    1482:	3bad                	jal	11fc <lcd_writeIndex>
D:\1.intelligent vehicle\new try\seefree\Seekfree_CH32V103R8T6_Opensource_Library\obj/../Libraries/seekfree_peripheral/SEEKFREE_18TFT.c:160
    systick_delay_ms(120);
    1484:	8501a503          	lw	a0,-1968(gp) # 200000c0 <sys_clk>
    1488:	02855533          	divu	a0,a0,s0
    148c:	00451793          	slli	a5,a0,0x4
    1490:	40a78533          	sub	a0,a5,a0
    1494:	050e                	slli	a0,a0,0x3
    1496:	4581                	li	a1,0
    1498:	3b2010ef          	jal	ra,284a <systick_delay>
D:\1.intelligent vehicle\new try\seefree\Seekfree_CH32V103R8T6_Opensource_Library\obj/../Libraries/seekfree_peripheral/SEEKFREE_18TFT.c:162

    lcd_writeIndex(0xB1); 
    149c:	0b100513          	li	a0,177
    14a0:	3bb1                	jal	11fc <lcd_writeIndex>
D:\1.intelligent vehicle\new try\seefree\Seekfree_CH32V103R8T6_Opensource_Library\obj/../Libraries/seekfree_peripheral/SEEKFREE_18TFT.c:163
    lcd_writeData(0x01); 
    14a2:	4505                	li	a0,1
    14a4:	3371                	jal	1230 <lcd_writeData>
D:\1.intelligent vehicle\new try\seefree\Seekfree_CH32V103R8T6_Opensource_Library\obj/../Libraries/seekfree_peripheral/SEEKFREE_18TFT.c:164
    lcd_writeData(0x2C); 
    14a6:	02c00513          	li	a0,44
    14aa:	3359                	jal	1230 <lcd_writeData>
D:\1.intelligent vehicle\new try\seefree\Seekfree_CH32V103R8T6_Opensource_Library\obj/../Libraries/seekfree_peripheral/SEEKFREE_18TFT.c:165
    lcd_writeData(0x2D); 
    14ac:	02d00513          	li	a0,45
    14b0:	3341                	jal	1230 <lcd_writeData>
D:\1.intelligent vehicle\new try\seefree\Seekfree_CH32V103R8T6_Opensource_Library\obj/../Libraries/seekfree_peripheral/SEEKFREE_18TFT.c:167
    
    lcd_writeIndex(0xB2); 
    14b2:	0b200513          	li	a0,178
    14b6:	3399                	jal	11fc <lcd_writeIndex>
D:\1.intelligent vehicle\new try\seefree\Seekfree_CH32V103R8T6_Opensource_Library\obj/../Libraries/seekfree_peripheral/SEEKFREE_18TFT.c:168
    lcd_writeData(0x01); 
    14b8:	4505                	li	a0,1
    14ba:	3b9d                	jal	1230 <lcd_writeData>
D:\1.intelligent vehicle\new try\seefree\Seekfree_CH32V103R8T6_Opensource_Library\obj/../Libraries/seekfree_peripheral/SEEKFREE_18TFT.c:169
    lcd_writeData(0x2C); 
    14bc:	02c00513          	li	a0,44
    14c0:	3b85                	jal	1230 <lcd_writeData>
D:\1.intelligent vehicle\new try\seefree\Seekfree_CH32V103R8T6_Opensource_Library\obj/../Libraries/seekfree_peripheral/SEEKFREE_18TFT.c:170
    lcd_writeData(0x2D); 
    14c2:	02d00513          	li	a0,45
    14c6:	33ad                	jal	1230 <lcd_writeData>
D:\1.intelligent vehicle\new try\seefree\Seekfree_CH32V103R8T6_Opensource_Library\obj/../Libraries/seekfree_peripheral/SEEKFREE_18TFT.c:172
    
    lcd_writeIndex(0xB3); 
    14c8:	0b300513          	li	a0,179
    14cc:	3b05                	jal	11fc <lcd_writeIndex>
D:\1.intelligent vehicle\new try\seefree\Seekfree_CH32V103R8T6_Opensource_Library\obj/../Libraries/seekfree_peripheral/SEEKFREE_18TFT.c:173
    lcd_writeData(0x01); 
    14ce:	4505                	li	a0,1
    14d0:	3385                	jal	1230 <lcd_writeData>
D:\1.intelligent vehicle\new try\seefree\Seekfree_CH32V103R8T6_Opensource_Library\obj/../Libraries/seekfree_peripheral/SEEKFREE_18TFT.c:174
    lcd_writeData(0x2C); 
    14d2:	02c00513          	li	a0,44
    14d6:	3ba9                	jal	1230 <lcd_writeData>
D:\1.intelligent vehicle\new try\seefree\Seekfree_CH32V103R8T6_Opensource_Library\obj/../Libraries/seekfree_peripheral/SEEKFREE_18TFT.c:175
    lcd_writeData(0x2D); 
    14d8:	02d00513          	li	a0,45
    14dc:	3b91                	jal	1230 <lcd_writeData>
D:\1.intelligent vehicle\new try\seefree\Seekfree_CH32V103R8T6_Opensource_Library\obj/../Libraries/seekfree_peripheral/SEEKFREE_18TFT.c:176
    lcd_writeData(0x01); 
    14de:	4505                	li	a0,1
    14e0:	3b81                	jal	1230 <lcd_writeData>
D:\1.intelligent vehicle\new try\seefree\Seekfree_CH32V103R8T6_Opensource_Library\obj/../Libraries/seekfree_peripheral/SEEKFREE_18TFT.c:177
    lcd_writeData(0x2C); 
    14e2:	02c00513          	li	a0,44
    14e6:	33a9                	jal	1230 <lcd_writeData>
D:\1.intelligent vehicle\new try\seefree\Seekfree_CH32V103R8T6_Opensource_Library\obj/../Libraries/seekfree_peripheral/SEEKFREE_18TFT.c:178
    lcd_writeData(0x2D); 
    14e8:	02d00513          	li	a0,45
    14ec:	3391                	jal	1230 <lcd_writeData>
D:\1.intelligent vehicle\new try\seefree\Seekfree_CH32V103R8T6_Opensource_Library\obj/../Libraries/seekfree_peripheral/SEEKFREE_18TFT.c:180
    
    lcd_writeIndex(0xB4);
    14ee:	0b400513          	li	a0,180
    14f2:	3329                	jal	11fc <lcd_writeIndex>
D:\1.intelligent vehicle\new try\seefree\Seekfree_CH32V103R8T6_Opensource_Library\obj/../Libraries/seekfree_peripheral/SEEKFREE_18TFT.c:181
    lcd_writeData(0x07); 
    14f4:	451d                	li	a0,7
    14f6:	3b2d                	jal	1230 <lcd_writeData>
D:\1.intelligent vehicle\new try\seefree\Seekfree_CH32V103R8T6_Opensource_Library\obj/../Libraries/seekfree_peripheral/SEEKFREE_18TFT.c:183

    lcd_writeIndex(0xC0); 
    14f8:	0c000513          	li	a0,192
    14fc:	3301                	jal	11fc <lcd_writeIndex>
D:\1.intelligent vehicle\new try\seefree\Seekfree_CH32V103R8T6_Opensource_Library\obj/../Libraries/seekfree_peripheral/SEEKFREE_18TFT.c:184
    lcd_writeData(0xA2); 
    14fe:	0a200513          	li	a0,162
    1502:	333d                	jal	1230 <lcd_writeData>
D:\1.intelligent vehicle\new try\seefree\Seekfree_CH32V103R8T6_Opensource_Library\obj/../Libraries/seekfree_peripheral/SEEKFREE_18TFT.c:185
    lcd_writeData(0x02); 
    1504:	4509                	li	a0,2
    1506:	332d                	jal	1230 <lcd_writeData>
D:\1.intelligent vehicle\new try\seefree\Seekfree_CH32V103R8T6_Opensource_Library\obj/../Libraries/seekfree_peripheral/SEEKFREE_18TFT.c:186
    lcd_writeData(0x84); 
    1508:	08400513          	li	a0,132
    150c:	3315                	jal	1230 <lcd_writeData>
D:\1.intelligent vehicle\new try\seefree\Seekfree_CH32V103R8T6_Opensource_Library\obj/../Libraries/seekfree_peripheral/SEEKFREE_18TFT.c:187
    lcd_writeIndex(0xC1); 
    150e:	0c100513          	li	a0,193
    1512:	31ed                	jal	11fc <lcd_writeIndex>
D:\1.intelligent vehicle\new try\seefree\Seekfree_CH32V103R8T6_Opensource_Library\obj/../Libraries/seekfree_peripheral/SEEKFREE_18TFT.c:188
    lcd_writeData(0xC5); 
    1514:	0c500513          	li	a0,197
    1518:	3b21                	jal	1230 <lcd_writeData>
D:\1.intelligent vehicle\new try\seefree\Seekfree_CH32V103R8T6_Opensource_Library\obj/../Libraries/seekfree_peripheral/SEEKFREE_18TFT.c:190
    
    lcd_writeIndex(0xC2); 
    151a:	0c200513          	li	a0,194
    151e:	39f9                	jal	11fc <lcd_writeIndex>
D:\1.intelligent vehicle\new try\seefree\Seekfree_CH32V103R8T6_Opensource_Library\obj/../Libraries/seekfree_peripheral/SEEKFREE_18TFT.c:191
    lcd_writeData(0x0A); 
    1520:	4529                	li	a0,10
    1522:	3339                	jal	1230 <lcd_writeData>
D:\1.intelligent vehicle\new try\seefree\Seekfree_CH32V103R8T6_Opensource_Library\obj/../Libraries/seekfree_peripheral/SEEKFREE_18TFT.c:192
    lcd_writeData(0x00); 
    1524:	4501                	li	a0,0
    1526:	3329                	jal	1230 <lcd_writeData>
D:\1.intelligent vehicle\new try\seefree\Seekfree_CH32V103R8T6_Opensource_Library\obj/../Libraries/seekfree_peripheral/SEEKFREE_18TFT.c:194
    
    lcd_writeIndex(0xC3); 
    1528:	0c300513          	li	a0,195
    152c:	39c1                	jal	11fc <lcd_writeIndex>
D:\1.intelligent vehicle\new try\seefree\Seekfree_CH32V103R8T6_Opensource_Library\obj/../Libraries/seekfree_peripheral/SEEKFREE_18TFT.c:195
    lcd_writeData(0x8A); 
    152e:	08a00513          	li	a0,138
    1532:	39fd                	jal	1230 <lcd_writeData>
D:\1.intelligent vehicle\new try\seefree\Seekfree_CH32V103R8T6_Opensource_Library\obj/../Libraries/seekfree_peripheral/SEEKFREE_18TFT.c:196
    lcd_writeData(0x2A); 
    1534:	02a00513          	li	a0,42
    1538:	39e5                	jal	1230 <lcd_writeData>
D:\1.intelligent vehicle\new try\seefree\Seekfree_CH32V103R8T6_Opensource_Library\obj/../Libraries/seekfree_peripheral/SEEKFREE_18TFT.c:197
    lcd_writeIndex(0xC4); 
    153a:	0c400513          	li	a0,196
    153e:	397d                	jal	11fc <lcd_writeIndex>
D:\1.intelligent vehicle\new try\seefree\Seekfree_CH32V103R8T6_Opensource_Library\obj/../Libraries/seekfree_peripheral/SEEKFREE_18TFT.c:198
    lcd_writeData(0x8A); 
    1540:	08a00513          	li	a0,138
    1544:	31f5                	jal	1230 <lcd_writeData>
D:\1.intelligent vehicle\new try\seefree\Seekfree_CH32V103R8T6_Opensource_Library\obj/../Libraries/seekfree_peripheral/SEEKFREE_18TFT.c:199
    lcd_writeData(0xEE); 
    1546:	0ee00513          	li	a0,238
    154a:	31dd                	jal	1230 <lcd_writeData>
D:\1.intelligent vehicle\new try\seefree\Seekfree_CH32V103R8T6_Opensource_Library\obj/../Libraries/seekfree_peripheral/SEEKFREE_18TFT.c:201
    
    lcd_writeIndex(0xC5);
    154c:	0c500513          	li	a0,197
    1550:	3175                	jal	11fc <lcd_writeIndex>
D:\1.intelligent vehicle\new try\seefree\Seekfree_CH32V103R8T6_Opensource_Library\obj/../Libraries/seekfree_peripheral/SEEKFREE_18TFT.c:202
    lcd_writeData(0x0E); 
    1552:	4539                	li	a0,14
    1554:	39f1                	jal	1230 <lcd_writeData>
D:\1.intelligent vehicle\new try\seefree\Seekfree_CH32V103R8T6_Opensource_Library\obj/../Libraries/seekfree_peripheral/SEEKFREE_18TFT.c:204
    
    lcd_writeIndex(0x36);
    1556:	03600513          	li	a0,54
    155a:	314d                	jal	11fc <lcd_writeIndex>
D:\1.intelligent vehicle\new try\seefree\Seekfree_CH32V103R8T6_Opensource_Library\obj/../Libraries/seekfree_peripheral/SEEKFREE_18TFT.c:210
    switch(TFT_DISPLAY_DIR)//y x v
    {
        case 0: lcd_writeData(1<<7 | 1<<6 | 0<<5);  break;  //竖屏模式
        case 1: lcd_writeData(0<<7 | 0<<6 | 0<<5);  break;  //竖屏模式  旋转180
        case 2: lcd_writeData(1<<7 | 0<<6 | 1<<5);  break;  //横屏模式
        case 3: lcd_writeData(0<<7 | 1<<6 | 1<<5);  break;  //横屏模式  旋转180
    155c:	06000513          	li	a0,96
    1560:	39c1                	jal	1230 <lcd_writeData>
D:\1.intelligent vehicle\new try\seefree\Seekfree_CH32V103R8T6_Opensource_Library\obj/../Libraries/seekfree_peripheral/SEEKFREE_18TFT.c:213
    }

    lcd_writeIndex(0xe0); 
    1562:	0e000513          	li	a0,224
    1566:	3959                	jal	11fc <lcd_writeIndex>
D:\1.intelligent vehicle\new try\seefree\Seekfree_CH32V103R8T6_Opensource_Library\obj/../Libraries/seekfree_peripheral/SEEKFREE_18TFT.c:214
    lcd_writeData(0x0f); 
    1568:	453d                	li	a0,15
    156a:	31d9                	jal	1230 <lcd_writeData>
D:\1.intelligent vehicle\new try\seefree\Seekfree_CH32V103R8T6_Opensource_Library\obj/../Libraries/seekfree_peripheral/SEEKFREE_18TFT.c:215
    lcd_writeData(0x1a); 
    156c:	4569                	li	a0,26
    156e:	31c9                	jal	1230 <lcd_writeData>
D:\1.intelligent vehicle\new try\seefree\Seekfree_CH32V103R8T6_Opensource_Library\obj/../Libraries/seekfree_peripheral/SEEKFREE_18TFT.c:216
    lcd_writeData(0x0f); 
    1570:	453d                	li	a0,15
    1572:	397d                	jal	1230 <lcd_writeData>
D:\1.intelligent vehicle\new try\seefree\Seekfree_CH32V103R8T6_Opensource_Library\obj/../Libraries/seekfree_peripheral/SEEKFREE_18TFT.c:217
    lcd_writeData(0x18); 
    1574:	4561                	li	a0,24
    1576:	396d                	jal	1230 <lcd_writeData>
D:\1.intelligent vehicle\new try\seefree\Seekfree_CH32V103R8T6_Opensource_Library\obj/../Libraries/seekfree_peripheral/SEEKFREE_18TFT.c:218
    lcd_writeData(0x2f); 
    1578:	02f00513          	li	a0,47
    157c:	3955                	jal	1230 <lcd_writeData>
D:\1.intelligent vehicle\new try\seefree\Seekfree_CH32V103R8T6_Opensource_Library\obj/../Libraries/seekfree_peripheral/SEEKFREE_18TFT.c:219
    lcd_writeData(0x28); 
    157e:	02800513          	li	a0,40
    1582:	317d                	jal	1230 <lcd_writeData>
D:\1.intelligent vehicle\new try\seefree\Seekfree_CH32V103R8T6_Opensource_Library\obj/../Libraries/seekfree_peripheral/SEEKFREE_18TFT.c:220
    lcd_writeData(0x20); 
    1584:	02000513          	li	a0,32
    1588:	3165                	jal	1230 <lcd_writeData>
D:\1.intelligent vehicle\new try\seefree\Seekfree_CH32V103R8T6_Opensource_Library\obj/../Libraries/seekfree_peripheral/SEEKFREE_18TFT.c:221
    lcd_writeData(0x22); 
    158a:	02200513          	li	a0,34
    158e:	314d                	jal	1230 <lcd_writeData>
D:\1.intelligent vehicle\new try\seefree\Seekfree_CH32V103R8T6_Opensource_Library\obj/../Libraries/seekfree_peripheral/SEEKFREE_18TFT.c:222
    lcd_writeData(0x1f); 
    1590:	457d                	li	a0,31
    1592:	3979                	jal	1230 <lcd_writeData>
D:\1.intelligent vehicle\new try\seefree\Seekfree_CH32V103R8T6_Opensource_Library\obj/../Libraries/seekfree_peripheral/SEEKFREE_18TFT.c:223
    lcd_writeData(0x1b); 
    1594:	456d                	li	a0,27
    1596:	3969                	jal	1230 <lcd_writeData>
D:\1.intelligent vehicle\new try\seefree\Seekfree_CH32V103R8T6_Opensource_Library\obj/../Libraries/seekfree_peripheral/SEEKFREE_18TFT.c:224
    lcd_writeData(0x23); 
    1598:	02300513          	li	a0,35
    159c:	3951                	jal	1230 <lcd_writeData>
D:\1.intelligent vehicle\new try\seefree\Seekfree_CH32V103R8T6_Opensource_Library\obj/../Libraries/seekfree_peripheral/SEEKFREE_18TFT.c:225
    lcd_writeData(0x37); 
    159e:	03700513          	li	a0,55
    15a2:	3179                	jal	1230 <lcd_writeData>
D:\1.intelligent vehicle\new try\seefree\Seekfree_CH32V103R8T6_Opensource_Library\obj/../Libraries/seekfree_peripheral/SEEKFREE_18TFT.c:226
    lcd_writeData(0x00);
    15a4:	4501                	li	a0,0
    15a6:	3169                	jal	1230 <lcd_writeData>
D:\1.intelligent vehicle\new try\seefree\Seekfree_CH32V103R8T6_Opensource_Library\obj/../Libraries/seekfree_peripheral/SEEKFREE_18TFT.c:227
    lcd_writeData(0x07); 
    15a8:	451d                	li	a0,7
    15aa:	3159                	jal	1230 <lcd_writeData>
D:\1.intelligent vehicle\new try\seefree\Seekfree_CH32V103R8T6_Opensource_Library\obj/../Libraries/seekfree_peripheral/SEEKFREE_18TFT.c:228
    lcd_writeData(0x02); 
    15ac:	4509                	li	a0,2
    15ae:	3149                	jal	1230 <lcd_writeData>
D:\1.intelligent vehicle\new try\seefree\Seekfree_CH32V103R8T6_Opensource_Library\obj/../Libraries/seekfree_peripheral/SEEKFREE_18TFT.c:229
    lcd_writeData(0x10); 
    15b0:	4541                	li	a0,16
    15b2:	39bd                	jal	1230 <lcd_writeData>
D:\1.intelligent vehicle\new try\seefree\Seekfree_CH32V103R8T6_Opensource_Library\obj/../Libraries/seekfree_peripheral/SEEKFREE_18TFT.c:231
    
    lcd_writeIndex(0xe1); 
    15b4:	0e100513          	li	a0,225
    15b8:	3191                	jal	11fc <lcd_writeIndex>
D:\1.intelligent vehicle\new try\seefree\Seekfree_CH32V103R8T6_Opensource_Library\obj/../Libraries/seekfree_peripheral/SEEKFREE_18TFT.c:232
    lcd_writeData(0x0f); 
    15ba:	453d                	li	a0,15
    15bc:	3995                	jal	1230 <lcd_writeData>
D:\1.intelligent vehicle\new try\seefree\Seekfree_CH32V103R8T6_Opensource_Library\obj/../Libraries/seekfree_peripheral/SEEKFREE_18TFT.c:233
    lcd_writeData(0x1b); 
    15be:	456d                	li	a0,27
    15c0:	3985                	jal	1230 <lcd_writeData>
D:\1.intelligent vehicle\new try\seefree\Seekfree_CH32V103R8T6_Opensource_Library\obj/../Libraries/seekfree_peripheral/SEEKFREE_18TFT.c:234
    lcd_writeData(0x0f); 
    15c2:	453d                	li	a0,15
    15c4:	31b5                	jal	1230 <lcd_writeData>
D:\1.intelligent vehicle\new try\seefree\Seekfree_CH32V103R8T6_Opensource_Library\obj/../Libraries/seekfree_peripheral/SEEKFREE_18TFT.c:235
    lcd_writeData(0x17); 
    15c6:	455d                	li	a0,23
    15c8:	31a5                	jal	1230 <lcd_writeData>
D:\1.intelligent vehicle\new try\seefree\Seekfree_CH32V103R8T6_Opensource_Library\obj/../Libraries/seekfree_peripheral/SEEKFREE_18TFT.c:236
    lcd_writeData(0x33); 
    15ca:	03300513          	li	a0,51
    15ce:	318d                	jal	1230 <lcd_writeData>
D:\1.intelligent vehicle\new try\seefree\Seekfree_CH32V103R8T6_Opensource_Library\obj/../Libraries/seekfree_peripheral/SEEKFREE_18TFT.c:237
    lcd_writeData(0x2c); 
    15d0:	02c00513          	li	a0,44
    15d4:	39b1                	jal	1230 <lcd_writeData>
D:\1.intelligent vehicle\new try\seefree\Seekfree_CH32V103R8T6_Opensource_Library\obj/../Libraries/seekfree_peripheral/SEEKFREE_18TFT.c:238
    lcd_writeData(0x29); 
    15d6:	02900513          	li	a0,41
    15da:	3999                	jal	1230 <lcd_writeData>
D:\1.intelligent vehicle\new try\seefree\Seekfree_CH32V103R8T6_Opensource_Library\obj/../Libraries/seekfree_peripheral/SEEKFREE_18TFT.c:239
    lcd_writeData(0x2e); 
    15dc:	02e00513          	li	a0,46
    15e0:	3981                	jal	1230 <lcd_writeData>
D:\1.intelligent vehicle\new try\seefree\Seekfree_CH32V103R8T6_Opensource_Library\obj/../Libraries/seekfree_peripheral/SEEKFREE_18TFT.c:240
    lcd_writeData(0x30); 
    15e2:	03000513          	li	a0,48
    15e6:	31a9                	jal	1230 <lcd_writeData>
D:\1.intelligent vehicle\new try\seefree\Seekfree_CH32V103R8T6_Opensource_Library\obj/../Libraries/seekfree_peripheral/SEEKFREE_18TFT.c:241
    lcd_writeData(0x30); 
    15e8:	03000513          	li	a0,48
    15ec:	3191                	jal	1230 <lcd_writeData>
D:\1.intelligent vehicle\new try\seefree\Seekfree_CH32V103R8T6_Opensource_Library\obj/../Libraries/seekfree_peripheral/SEEKFREE_18TFT.c:242
    lcd_writeData(0x39); 
    15ee:	03900513          	li	a0,57
    15f2:	393d                	jal	1230 <lcd_writeData>
D:\1.intelligent vehicle\new try\seefree\Seekfree_CH32V103R8T6_Opensource_Library\obj/../Libraries/seekfree_peripheral/SEEKFREE_18TFT.c:243
    lcd_writeData(0x3f); 
    15f4:	03f00513          	li	a0,63
    15f8:	3925                	jal	1230 <lcd_writeData>
D:\1.intelligent vehicle\new try\seefree\Seekfree_CH32V103R8T6_Opensource_Library\obj/../Libraries/seekfree_peripheral/SEEKFREE_18TFT.c:244
    lcd_writeData(0x00); 
    15fa:	4501                	li	a0,0
    15fc:	3915                	jal	1230 <lcd_writeData>
D:\1.intelligent vehicle\new try\seefree\Seekfree_CH32V103R8T6_Opensource_Library\obj/../Libraries/seekfree_peripheral/SEEKFREE_18TFT.c:245
    lcd_writeData(0x07); 
    15fe:	451d                	li	a0,7
    1600:	3905                	jal	1230 <lcd_writeData>
D:\1.intelligent vehicle\new try\seefree\Seekfree_CH32V103R8T6_Opensource_Library\obj/../Libraries/seekfree_peripheral/SEEKFREE_18TFT.c:246
    lcd_writeData(0x03); 
    1602:	450d                	li	a0,3
    1604:	3135                	jal	1230 <lcd_writeData>
D:\1.intelligent vehicle\new try\seefree\Seekfree_CH32V103R8T6_Opensource_Library\obj/../Libraries/seekfree_peripheral/SEEKFREE_18TFT.c:247
    lcd_writeData(0x10);  
    1606:	4541                	li	a0,16
    1608:	3125                	jal	1230 <lcd_writeData>
D:\1.intelligent vehicle\new try\seefree\Seekfree_CH32V103R8T6_Opensource_Library\obj/../Libraries/seekfree_peripheral/SEEKFREE_18TFT.c:249
    
    lcd_writeIndex(0x2a);
    160a:	02a00513          	li	a0,42
    160e:	36fd                	jal	11fc <lcd_writeIndex>
D:\1.intelligent vehicle\new try\seefree\Seekfree_CH32V103R8T6_Opensource_Library\obj/../Libraries/seekfree_peripheral/SEEKFREE_18TFT.c:250
    lcd_writeData(0x00);
    1610:	4501                	li	a0,0
    1612:	3939                	jal	1230 <lcd_writeData>
D:\1.intelligent vehicle\new try\seefree\Seekfree_CH32V103R8T6_Opensource_Library\obj/../Libraries/seekfree_peripheral/SEEKFREE_18TFT.c:251
    lcd_writeData(0x00+2);
    1614:	4509                	li	a0,2
    1616:	3929                	jal	1230 <lcd_writeData>
D:\1.intelligent vehicle\new try\seefree\Seekfree_CH32V103R8T6_Opensource_Library\obj/../Libraries/seekfree_peripheral/SEEKFREE_18TFT.c:252
    lcd_writeData(0x00);
    1618:	4501                	li	a0,0
    161a:	3919                	jal	1230 <lcd_writeData>
D:\1.intelligent vehicle\new try\seefree\Seekfree_CH32V103R8T6_Opensource_Library\obj/../Libraries/seekfree_peripheral/SEEKFREE_18TFT.c:253
    lcd_writeData(0x80+2);
    161c:	08200513          	li	a0,130
    1620:	3901                	jal	1230 <lcd_writeData>
D:\1.intelligent vehicle\new try\seefree\Seekfree_CH32V103R8T6_Opensource_Library\obj/../Libraries/seekfree_peripheral/SEEKFREE_18TFT.c:255
    
    lcd_writeIndex(0x2b);
    1622:	02b00513          	li	a0,43
    1626:	3ed9                	jal	11fc <lcd_writeIndex>
D:\1.intelligent vehicle\new try\seefree\Seekfree_CH32V103R8T6_Opensource_Library\obj/../Libraries/seekfree_peripheral/SEEKFREE_18TFT.c:256
    lcd_writeData(0x00);
    1628:	4501                	li	a0,0
    162a:	3119                	jal	1230 <lcd_writeData>
D:\1.intelligent vehicle\new try\seefree\Seekfree_CH32V103R8T6_Opensource_Library\obj/../Libraries/seekfree_peripheral/SEEKFREE_18TFT.c:257
    lcd_writeData(0x00+3);
    162c:	450d                	li	a0,3
    162e:	3109                	jal	1230 <lcd_writeData>
D:\1.intelligent vehicle\new try\seefree\Seekfree_CH32V103R8T6_Opensource_Library\obj/../Libraries/seekfree_peripheral/SEEKFREE_18TFT.c:258
    lcd_writeData(0x00);
    1630:	4501                	li	a0,0
    1632:	3efd                	jal	1230 <lcd_writeData>
D:\1.intelligent vehicle\new try\seefree\Seekfree_CH32V103R8T6_Opensource_Library\obj/../Libraries/seekfree_peripheral/SEEKFREE_18TFT.c:259
    lcd_writeData(0x80+3);
    1634:	08300513          	li	a0,131
    1638:	3ee5                	jal	1230 <lcd_writeData>
D:\1.intelligent vehicle\new try\seefree\Seekfree_CH32V103R8T6_Opensource_Library\obj/../Libraries/seekfree_peripheral/SEEKFREE_18TFT.c:261
    
    lcd_writeIndex(0xF0); 
    163a:	0f000513          	li	a0,240
    163e:	3e7d                	jal	11fc <lcd_writeIndex>
D:\1.intelligent vehicle\new try\seefree\Seekfree_CH32V103R8T6_Opensource_Library\obj/../Libraries/seekfree_peripheral/SEEKFREE_18TFT.c:262
    lcd_writeData(0x01); 
    1640:	4505                	li	a0,1
    1642:	36fd                	jal	1230 <lcd_writeData>
D:\1.intelligent vehicle\new try\seefree\Seekfree_CH32V103R8T6_Opensource_Library\obj/../Libraries/seekfree_peripheral/SEEKFREE_18TFT.c:263
    lcd_writeIndex(0xF6);
    1644:	0f600513          	li	a0,246
    1648:	3e55                	jal	11fc <lcd_writeIndex>
D:\1.intelligent vehicle\new try\seefree\Seekfree_CH32V103R8T6_Opensource_Library\obj/../Libraries/seekfree_peripheral/SEEKFREE_18TFT.c:264
    lcd_writeData(0x00); 
    164a:	4501                	li	a0,0
    164c:	36d5                	jal	1230 <lcd_writeData>
D:\1.intelligent vehicle\new try\seefree\Seekfree_CH32V103R8T6_Opensource_Library\obj/../Libraries/seekfree_peripheral/SEEKFREE_18TFT.c:266
    
    lcd_writeIndex(0x3A);
    164e:	03a00513          	li	a0,58
    1652:	366d                	jal	11fc <lcd_writeIndex>
D:\1.intelligent vehicle\new try\seefree\Seekfree_CH32V103R8T6_Opensource_Library\obj/../Libraries/seekfree_peripheral/SEEKFREE_18TFT.c:267
    lcd_writeData(0x05); 
    1654:	4515                	li	a0,5
    1656:	3ee9                	jal	1230 <lcd_writeData>
D:\1.intelligent vehicle\new try\seefree\Seekfree_CH32V103R8T6_Opensource_Library\obj/../Libraries/seekfree_peripheral/SEEKFREE_18TFT.c:268
    lcd_writeIndex(0x29);
    1658:	02900513          	li	a0,41
    165c:	3645                	jal	11fc <lcd_writeIndex>
D:\1.intelligent vehicle\new try\seefree\Seekfree_CH32V103R8T6_Opensource_Library\obj/../Libraries/seekfree_peripheral/SEEKFREE_18TFT.c:270

    lcd_clear(WHITE);//全白
    165e:	6541                	lui	a0,0x10
    1660:	157d                	addi	a0,a0,-1
    1662:	3381                	jal	13a2 <lcd_clear>
D:\1.intelligent vehicle\new try\seefree\Seekfree_CH32V103R8T6_Opensource_Library\obj/../Libraries/seekfree_peripheral/SEEKFREE_18TFT.c:271
}
    1664:	40f2                	lw	ra,28(sp)
    1666:	4462                	lw	s0,24(sp)
    1668:	44d2                	lw	s1,20(sp)
    166a:	4942                	lw	s2,16(sp)
    166c:	49b2                	lw	s3,12(sp)
    166e:	6105                	addi	sp,sp,32
    1670:	8082                	ret

00001672 <lcd_showchar>:
lcd_showchar():
D:\1.intelligent vehicle\new try\seefree\Seekfree_CH32V103R8T6_Opensource_Library\obj/../Libraries/seekfree_peripheral/SEEKFREE_18TFT.c:301
//  @return     void
//  @since      v1.0
//  Sample usage:               lcd_showchar(0,0,'x');//坐标0,0写一个字符x
//-------------------------------------------------------------------------------------------------------------------
void lcd_showchar(uint16 x,uint16 y,const int8 dat)
{
    1672:	7179                	addi	sp,sp,-48
    1674:	d606                	sw	ra,44(sp)
    1676:	d422                	sw	s0,40(sp)
    1678:	d226                	sw	s1,36(sp)
    167a:	d04a                	sw	s2,32(sp)
    167c:	ce4e                	sw	s3,28(sp)
    167e:	cc52                	sw	s4,24(sp)
    1680:	ca56                	sw	s5,20(sp)
    1682:	c85a                	sw	s6,16(sp)
    1684:	c65e                	sw	s7,12(sp)
    1686:	c462                	sw	s8,8(sp)
    1688:	c266                	sw	s9,4(sp)
    168a:	c06a                	sw	s10,0(sp)
    168c:	8baa                	mv	s7,a0
D:\1.intelligent vehicle\new try\seefree\Seekfree_CH32V103R8T6_Opensource_Library\obj/../Libraries/seekfree_peripheral/SEEKFREE_18TFT.c:305
    uint8 i,j;
    uint8 temp;
    
    for(i=0; i<16; i++)
    168e:	892e                	mv	s2,a1
    1690:	01058d13          	addi	s10,a1,16
    1694:	0612                	slli	a2,a2,0x4
    1696:	40b60b33          	sub	s6,a2,a1
D:\1.intelligent vehicle\new try\seefree\Seekfree_CH32V103R8T6_Opensource_Library\obj/../Libraries/seekfree_peripheral/SEEKFREE_18TFT.c:307
    {
        lcd_set_region(x,y+i,x+7,y+i);
    169a:	00750c93          	addi	s9,a0,7 # 10007 <_data_lma+0xa117>
D:\1.intelligent vehicle\new try\seefree\Seekfree_CH32V103R8T6_Opensource_Library\obj/../Libraries/seekfree_peripheral/SEEKFREE_18TFT.c:308
        temp = tft_ascii[dat-32][i];//减32因为是取模是从空格开始取得 空格在ascii中序号是32
    169e:	6a95                	lui	s5,0x5
    16a0:	664a8a93          	addi	s5,s5,1636 # 5664 <tft_ascii>
    16a4:	4c21                	li	s8,8
D:\1.intelligent vehicle\new try\seefree\Seekfree_CH32V103R8T6_Opensource_Library\obj/../Libraries/seekfree_peripheral/SEEKFREE_18TFT.c:312
        for(j=0; j<8; j++)
        {
            if(temp&0x01)   lcd_writedata_16bit(TFT_PENCOLOR);
            else            lcd_writedata_16bit(TFT_BGCOLOR);
    16a6:	69c1                	lui	s3,0x10
    16a8:	fff98a13          	addi	s4,s3,-1 # ffff <_data_lma+0xa10f>
D:\1.intelligent vehicle\new try\seefree\Seekfree_CH32V103R8T6_Opensource_Library\obj/../Libraries/seekfree_peripheral/SEEKFREE_18TFT.c:311
            if(temp&0x01)   lcd_writedata_16bit(TFT_PENCOLOR);
    16ac:	80098993          	addi	s3,s3,-2048
    16b0:	a01d                	j	16d6 <lcd_showchar+0x64>
D:\1.intelligent vehicle\new try\seefree\Seekfree_CH32V103R8T6_Opensource_Library\obj/../Libraries/seekfree_peripheral/SEEKFREE_18TFT.c:312
            else            lcd_writedata_16bit(TFT_BGCOLOR);
    16b2:	8552                	mv	a0,s4
    16b4:	bb1ff0ef          	jal	ra,1264 <lcd_writedata_16bit>
D:\1.intelligent vehicle\new try\seefree\Seekfree_CH32V103R8T6_Opensource_Library\obj/../Libraries/seekfree_peripheral/SEEKFREE_18TFT.c:313 (discriminator 2)
            temp>>=1;
    16b8:	8085                	srli	s1,s1,0x1
    16ba:	147d                	addi	s0,s0,-1
    16bc:	0ff47413          	andi	s0,s0,255
D:\1.intelligent vehicle\new try\seefree\Seekfree_CH32V103R8T6_Opensource_Library\obj/../Libraries/seekfree_peripheral/SEEKFREE_18TFT.c:309 (discriminator 2)
        for(j=0; j<8; j++)
    16c0:	c801                	beqz	s0,16d0 <lcd_showchar+0x5e>
D:\1.intelligent vehicle\new try\seefree\Seekfree_CH32V103R8T6_Opensource_Library\obj/../Libraries/seekfree_peripheral/SEEKFREE_18TFT.c:311
            if(temp&0x01)   lcd_writedata_16bit(TFT_PENCOLOR);
    16c2:	0014f793          	andi	a5,s1,1
    16c6:	d7f5                	beqz	a5,16b2 <lcd_showchar+0x40>
D:\1.intelligent vehicle\new try\seefree\Seekfree_CH32V103R8T6_Opensource_Library\obj/../Libraries/seekfree_peripheral/SEEKFREE_18TFT.c:311 (discriminator 1)
    16c8:	854e                	mv	a0,s3
    16ca:	b9bff0ef          	jal	ra,1264 <lcd_writedata_16bit>
    16ce:	b7ed                	j	16b8 <lcd_showchar+0x46>
    16d0:	0905                	addi	s2,s2,1
D:\1.intelligent vehicle\new try\seefree\Seekfree_CH32V103R8T6_Opensource_Library\obj/../Libraries/seekfree_peripheral/SEEKFREE_18TFT.c:305 (discriminator 2)
    for(i=0; i<16; i++)
    16d2:	01a90f63          	beq	s2,s10,16f0 <lcd_showchar+0x7e>
D:\1.intelligent vehicle\new try\seefree\Seekfree_CH32V103R8T6_Opensource_Library\obj/../Libraries/seekfree_peripheral/SEEKFREE_18TFT.c:307
        lcd_set_region(x,y+i,x+7,y+i);
    16d6:	86ca                	mv	a3,s2
    16d8:	8666                	mv	a2,s9
    16da:	85ca                	mv	a1,s2
    16dc:	855e                	mv	a0,s7
    16de:	bc1ff0ef          	jal	ra,129e <lcd_set_region>
D:\1.intelligent vehicle\new try\seefree\Seekfree_CH32V103R8T6_Opensource_Library\obj/../Libraries/seekfree_peripheral/SEEKFREE_18TFT.c:308
        temp = tft_ascii[dat-32][i];//减32因为是取模是从空格开始取得 空格在ascii中序号是32
    16e2:	016907b3          	add	a5,s2,s6
    16e6:	97d6                	add	a5,a5,s5
    16e8:	e007c483          	lbu	s1,-512(a5)
    16ec:	8462                	mv	s0,s8
    16ee:	bfd1                	j	16c2 <lcd_showchar+0x50>
D:\1.intelligent vehicle\new try\seefree\Seekfree_CH32V103R8T6_Opensource_Library\obj/../Libraries/seekfree_peripheral/SEEKFREE_18TFT.c:316
        }
    }
}
    16f0:	50b2                	lw	ra,44(sp)
    16f2:	5422                	lw	s0,40(sp)
    16f4:	5492                	lw	s1,36(sp)
    16f6:	5902                	lw	s2,32(sp)
    16f8:	49f2                	lw	s3,28(sp)
    16fa:	4a62                	lw	s4,24(sp)
    16fc:	4ad2                	lw	s5,20(sp)
    16fe:	4b42                	lw	s6,16(sp)
    1700:	4bb2                	lw	s7,12(sp)
    1702:	4c22                	lw	s8,8(sp)
    1704:	4c92                	lw	s9,4(sp)
    1706:	4d02                	lw	s10,0(sp)
    1708:	6145                	addi	sp,sp,48
    170a:	8082                	ret

0000170c <lcd_showstr>:
lcd_showstr():
D:\1.intelligent vehicle\new try\seefree\Seekfree_CH32V103R8T6_Opensource_Library\obj/../Libraries/seekfree_peripheral/SEEKFREE_18TFT.c:328
//  @return     void
//  @since      v1.0
//  Sample usage:               lcd_showstr(0,0,"seekfree");
//-------------------------------------------------------------------------------------------------------------------
void lcd_showstr(uint16 x,uint16 y,const int8 dat[])
{
    170c:	1101                	addi	sp,sp,-32
    170e:	ce06                	sw	ra,28(sp)
    1710:	cc22                	sw	s0,24(sp)
    1712:	ca26                	sw	s1,20(sp)
    1714:	c84a                	sw	s2,16(sp)
    1716:	c64e                	sw	s3,12(sp)
    1718:	89b2                	mv	s3,a2
D:\1.intelligent vehicle\new try\seefree\Seekfree_CH32V103R8T6_Opensource_Library\obj/../Libraries/seekfree_peripheral/SEEKFREE_18TFT.c:332
    uint16 j;

    j = 0;
    while(dat[j] != '\0')
    171a:	00060603          	lb	a2,0(a2)
    171e:	c615                	beqz	a2,174a <lcd_showstr+0x3e>
    1720:	842a                	mv	s0,a0
D:\1.intelligent vehicle\new try\seefree\Seekfree_CH32V103R8T6_Opensource_Library\obj/../Libraries/seekfree_peripheral/SEEKFREE_18TFT.c:334
    {
        lcd_showchar(x+8*j,y*16,dat[j]);
    1722:	0592                	slli	a1,a1,0x4
    1724:	01059913          	slli	s2,a1,0x10
    1728:	01095913          	srli	s2,s2,0x10
D:\1.intelligent vehicle\new try\seefree\Seekfree_CH32V103R8T6_Opensource_Library\obj/../Libraries/seekfree_peripheral/SEEKFREE_18TFT.c:331
    j = 0;
    172c:	4481                	li	s1,0
D:\1.intelligent vehicle\new try\seefree\Seekfree_CH32V103R8T6_Opensource_Library\obj/../Libraries/seekfree_peripheral/SEEKFREE_18TFT.c:334
        lcd_showchar(x+8*j,y*16,dat[j]);
    172e:	85ca                	mv	a1,s2
    1730:	8522                	mv	a0,s0
    1732:	3781                	jal	1672 <lcd_showchar>
D:\1.intelligent vehicle\new try\seefree\Seekfree_CH32V103R8T6_Opensource_Library\obj/../Libraries/seekfree_peripheral/SEEKFREE_18TFT.c:335
        j++;
    1734:	0485                	addi	s1,s1,1
    1736:	04c2                	slli	s1,s1,0x10
    1738:	80c1                	srli	s1,s1,0x10
D:\1.intelligent vehicle\new try\seefree\Seekfree_CH32V103R8T6_Opensource_Library\obj/../Libraries/seekfree_peripheral/SEEKFREE_18TFT.c:332
    while(dat[j] != '\0')
    173a:	009987b3          	add	a5,s3,s1
    173e:	00078603          	lb	a2,0(a5)
    1742:	0421                	addi	s0,s0,8
    1744:	0442                	slli	s0,s0,0x10
    1746:	8041                	srli	s0,s0,0x10
    1748:	f27d                	bnez	a2,172e <lcd_showstr+0x22>
D:\1.intelligent vehicle\new try\seefree\Seekfree_CH32V103R8T6_Opensource_Library\obj/../Libraries/seekfree_peripheral/SEEKFREE_18TFT.c:337
    }
}
    174a:	40f2                	lw	ra,28(sp)
    174c:	4462                	lw	s0,24(sp)
    174e:	44d2                	lw	s1,20(sp)
    1750:	4942                	lw	s2,16(sp)
    1752:	49b2                	lw	s3,12(sp)
    1754:	6105                	addi	sp,sp,32
    1756:	8082                	ret

00001758 <lcd_showint16>:
lcd_showint16():
D:\1.intelligent vehicle\new try\seefree\Seekfree_CH32V103R8T6_Opensource_Library\obj/../Libraries/seekfree_peripheral/SEEKFREE_18TFT.c:406
//  @return     void
//  @since      v1.0
//  Sample usage:               lcd_showint16(0,0,x);//x为int16类型
//-------------------------------------------------------------------------------------------------------------------
void lcd_showint16(uint16 x,uint16 y,int16 dat)
{
    1758:	7179                	addi	sp,sp,-48
    175a:	d606                	sw	ra,44(sp)
    175c:	d422                	sw	s0,40(sp)
    175e:	d226                	sw	s1,36(sp)
    1760:	d04a                	sw	s2,32(sp)
    1762:	ce4e                	sw	s3,28(sp)
    1764:	842a                	mv	s0,a0
    1766:	892e                	mv	s2,a1
    1768:	84b2                	mv	s1,a2
D:\1.intelligent vehicle\new try\seefree\Seekfree_CH32V103R8T6_Opensource_Library\obj/../Libraries/seekfree_peripheral/SEEKFREE_18TFT.c:409
    uint8 a[5];
    uint8 i;
    if(dat<0)
    176a:	08064a63          	bltz	a2,17fe <lcd_showint16+0xa6>
D:\1.intelligent vehicle\new try\seefree\Seekfree_CH32V103R8T6_Opensource_Library\obj/../Libraries/seekfree_peripheral/SEEKFREE_18TFT.c:414
    {
        lcd_showchar(x,y*16,'-');
        dat = -dat;
    }
    else    lcd_showchar(x,y*16,' ');
    176e:	0592                	slli	a1,a1,0x4
    1770:	05c2                	slli	a1,a1,0x10
    1772:	81c1                	srli	a1,a1,0x10
    1774:	02000613          	li	a2,32
    1778:	3ded                	jal	1672 <lcd_showchar>
D:\1.intelligent vehicle\new try\seefree\Seekfree_CH32V103R8T6_Opensource_Library\obj/../Libraries/seekfree_peripheral/SEEKFREE_18TFT.c:416

    a[0] = dat/10000;
    177a:	6789                	lui	a5,0x2
    177c:	71078793          	addi	a5,a5,1808 # 2710 <spi_gpio_init+0x158>
    1780:	02f4c7b3          	div	a5,s1,a5
    1784:	00f10423          	sb	a5,8(sp)
D:\1.intelligent vehicle\new try\seefree\Seekfree_CH32V103R8T6_Opensource_Library\obj/../Libraries/seekfree_peripheral/SEEKFREE_18TFT.c:417
    a[1] = dat/1000%10;
    1788:	3e800713          	li	a4,1000
    178c:	02e4c733          	div	a4,s1,a4
    1790:	47a9                	li	a5,10
    1792:	02f76733          	rem	a4,a4,a5
    1796:	00e104a3          	sb	a4,9(sp)
D:\1.intelligent vehicle\new try\seefree\Seekfree_CH32V103R8T6_Opensource_Library\obj/../Libraries/seekfree_peripheral/SEEKFREE_18TFT.c:418
    a[2] = dat/100%10;
    179a:	06400713          	li	a4,100
    179e:	02e4c733          	div	a4,s1,a4
    17a2:	02f76733          	rem	a4,a4,a5
    17a6:	00e10523          	sb	a4,10(sp)
D:\1.intelligent vehicle\new try\seefree\Seekfree_CH32V103R8T6_Opensource_Library\obj/../Libraries/seekfree_peripheral/SEEKFREE_18TFT.c:419
    a[3] = dat/10%10;
    17aa:	02f4c733          	div	a4,s1,a5
    17ae:	02f76733          	rem	a4,a4,a5
    17b2:	00e105a3          	sb	a4,11(sp)
D:\1.intelligent vehicle\new try\seefree\Seekfree_CH32V103R8T6_Opensource_Library\obj/../Libraries/seekfree_peripheral/SEEKFREE_18TFT.c:420
    a[4] = dat%10;
    17b6:	02f4e4b3          	rem	s1,s1,a5
    17ba:	00910623          	sb	s1,12(sp)
D:\1.intelligent vehicle\new try\seefree\Seekfree_CH32V103R8T6_Opensource_Library\obj/../Libraries/seekfree_peripheral/SEEKFREE_18TFT.c:425

    i = 0;
    while(i<5)
    {
        lcd_showchar(x+(8*(i+1)),y*16,'0' + a[i]);
    17be:	0912                	slli	s2,s2,0x4
    17c0:	0942                	slli	s2,s2,0x10
    17c2:	01095913          	srli	s2,s2,0x10
    17c6:	0024                	addi	s1,sp,8
    17c8:	0421                	addi	s0,s0,8
    17ca:	0442                	slli	s0,s0,0x10
    17cc:	8041                	srli	s0,s0,0x10
    17ce:	00d10993          	addi	s3,sp,13
    17d2:	0004c603          	lbu	a2,0(s1)
    17d6:	03060613          	addi	a2,a2,48
    17da:	0662                	slli	a2,a2,0x18
    17dc:	8661                	srai	a2,a2,0x18
    17de:	85ca                	mv	a1,s2
    17e0:	8522                	mv	a0,s0
    17e2:	3d41                	jal	1672 <lcd_showchar>
D:\1.intelligent vehicle\new try\seefree\Seekfree_CH32V103R8T6_Opensource_Library\obj/../Libraries/seekfree_peripheral/SEEKFREE_18TFT.c:426
        i++;
    17e4:	0485                	addi	s1,s1,1
    17e6:	0421                	addi	s0,s0,8
    17e8:	0442                	slli	s0,s0,0x10
    17ea:	8041                	srli	s0,s0,0x10
D:\1.intelligent vehicle\new try\seefree\Seekfree_CH32V103R8T6_Opensource_Library\obj/../Libraries/seekfree_peripheral/SEEKFREE_18TFT.c:423
    while(i<5)
    17ec:	ff3493e3          	bne	s1,s3,17d2 <lcd_showint16+0x7a>
D:\1.intelligent vehicle\new try\seefree\Seekfree_CH32V103R8T6_Opensource_Library\obj/../Libraries/seekfree_peripheral/SEEKFREE_18TFT.c:428
    }
}
    17f0:	50b2                	lw	ra,44(sp)
    17f2:	5422                	lw	s0,40(sp)
    17f4:	5492                	lw	s1,36(sp)
    17f6:	5902                	lw	s2,32(sp)
    17f8:	49f2                	lw	s3,28(sp)
    17fa:	6145                	addi	sp,sp,48
    17fc:	8082                	ret
D:\1.intelligent vehicle\new try\seefree\Seekfree_CH32V103R8T6_Opensource_Library\obj/../Libraries/seekfree_peripheral/SEEKFREE_18TFT.c:411
        lcd_showchar(x,y*16,'-');
    17fe:	0592                	slli	a1,a1,0x4
    1800:	05c2                	slli	a1,a1,0x10
    1802:	81c1                	srli	a1,a1,0x10
    1804:	02d00613          	li	a2,45
    1808:	35ad                	jal	1672 <lcd_showchar>
D:\1.intelligent vehicle\new try\seefree\Seekfree_CH32V103R8T6_Opensource_Library\obj/../Libraries/seekfree_peripheral/SEEKFREE_18TFT.c:412
        dat = -dat;
    180a:	409004b3          	neg	s1,s1
    180e:	04c2                	slli	s1,s1,0x10
    1810:	84c1                	srai	s1,s1,0x10
    1812:	b7a5                	j	177a <lcd_showint16+0x22>

00001814 <icm_spi_r_reg_bytes>:
icm_spi_r_reg_bytes():
D:\1.intelligent vehicle\new try\seefree\Seekfree_CH32V103R8T6_Opensource_Library\obj/../Libraries/seekfree_peripheral/SEEKFREE_ICM20602.c:190
//  @return     void
//  @since      v1.0
//  Sample usage:
//-------------------------------------------------------------------------------------------------------------------
void icm_spi_r_reg_bytes(uint8 * val, uint8 num)
{
    1814:	1141                	addi	sp,sp,-16
    1816:	c606                	sw	ra,12(sp)
    1818:	c422                	sw	s0,8(sp)
    181a:	c226                	sw	s1,4(sp)
D:\1.intelligent vehicle\new try\seefree\Seekfree_CH32V103R8T6_Opensource_Library\obj/../Libraries/seekfree_peripheral/SEEKFREE_ICM20602.c:191
    SPI_CS(0);
    181c:	6799                	lui	a5,0x6
    181e:	c547a483          	lw	s1,-940(a5) # 5c54 <GPION>
    1822:	6405                	lui	s0,0x1
    1824:	80040413          	addi	s0,s0,-2048 # 800 <__stack_size>
    1828:	c8c0                	sw	s0,20(s1)
D:\1.intelligent vehicle\new try\seefree\Seekfree_CH32V103R8T6_Opensource_Library\obj/../Libraries/seekfree_peripheral/SEEKFREE_ICM20602.c:192
    spi_mosi(SPI_NUM, val, val, num);
    182a:	86ae                	mv	a3,a1
    182c:	862a                	mv	a2,a0
    182e:	85aa                	mv	a1,a0
    1830:	4505                	li	a0,1
    1832:	7df000ef          	jal	ra,2810 <spi_mosi>
D:\1.intelligent vehicle\new try\seefree\Seekfree_CH32V103R8T6_Opensource_Library\obj/../Libraries/seekfree_peripheral/SEEKFREE_ICM20602.c:193
    SPI_CS(1);
    1836:	c880                	sw	s0,16(s1)
D:\1.intelligent vehicle\new try\seefree\Seekfree_CH32V103R8T6_Opensource_Library\obj/../Libraries/seekfree_peripheral/SEEKFREE_ICM20602.c:194
}
    1838:	40b2                	lw	ra,12(sp)
    183a:	4422                	lw	s0,8(sp)
    183c:	4492                	lw	s1,4(sp)
    183e:	0141                	addi	sp,sp,16
    1840:	8082                	ret

00001842 <get_icm20602_gyro_spi>:
get_icm20602_gyro_spi():
D:\1.intelligent vehicle\new try\seefree\Seekfree_CH32V103R8T6_Opensource_Library\obj/../Libraries/seekfree_peripheral/SEEKFREE_ICM20602.c:288
//  @return     void
//  @since      v1.0
//  Sample usage:               执行该函数后，直接查看对应的变量即可
//-------------------------------------------------------------------------------------------------------------------
void get_icm20602_gyro_spi(void)
{
    1842:	1101                	addi	sp,sp,-32
    1844:	ce06                	sw	ra,28(sp)
D:\1.intelligent vehicle\new try\seefree\Seekfree_CH32V103R8T6_Opensource_Library\obj/../Libraries/seekfree_peripheral/SEEKFREE_ICM20602.c:295
    {
        uint8 reg;
        uint8 dat[6];
    }buf;

    buf.reg = ICM20602_GYRO_XOUT_H | ICM20602_SPI_R;
    1846:	fc300793          	li	a5,-61
    184a:	00f10423          	sb	a5,8(sp)
D:\1.intelligent vehicle\new try\seefree\Seekfree_CH32V103R8T6_Opensource_Library\obj/../Libraries/seekfree_peripheral/SEEKFREE_ICM20602.c:297
    
    icm_spi_r_reg_bytes(&buf.reg, 7);
    184e:	459d                	li	a1,7
    1850:	0028                	addi	a0,sp,8
    1852:	37c9                	jal	1814 <icm_spi_r_reg_bytes>
D:\1.intelligent vehicle\new try\seefree\Seekfree_CH32V103R8T6_Opensource_Library\obj/../Libraries/seekfree_peripheral/SEEKFREE_ICM20602.c:298
    icm_gyro_x = (int16)(((uint16)buf.dat[0]<<8 | buf.dat[1]));
    1854:	00914783          	lbu	a5,9(sp)
    1858:	07a2                	slli	a5,a5,0x8
    185a:	00a14703          	lbu	a4,10(sp)
    185e:	8fd9                	or	a5,a5,a4
    1860:	82f19c23          	sh	a5,-1992(gp) # 200000a8 <_edata>
D:\1.intelligent vehicle\new try\seefree\Seekfree_CH32V103R8T6_Opensource_Library\obj/../Libraries/seekfree_peripheral/SEEKFREE_ICM20602.c:299
    icm_gyro_y = (int16)(((uint16)buf.dat[2]<<8 | buf.dat[3]));
    1864:	00b14783          	lbu	a5,11(sp)
    1868:	07a2                	slli	a5,a5,0x8
    186a:	00c14703          	lbu	a4,12(sp)
    186e:	8fd9                	or	a5,a5,a4
    1870:	82f19d23          	sh	a5,-1990(gp) # 200000aa <icm_gyro_y>
D:\1.intelligent vehicle\new try\seefree\Seekfree_CH32V103R8T6_Opensource_Library\obj/../Libraries/seekfree_peripheral/SEEKFREE_ICM20602.c:300
    icm_gyro_z = (int16)(((uint16)buf.dat[4]<<8 | buf.dat[5]));
    1874:	00d14783          	lbu	a5,13(sp)
    1878:	07a2                	slli	a5,a5,0x8
    187a:	00e14703          	lbu	a4,14(sp)
    187e:	8fd9                	or	a5,a5,a4
    1880:	07c2                	slli	a5,a5,0x10
    1882:	87c1                	srai	a5,a5,0x10
    1884:	82f19e23          	sh	a5,-1988(gp) # 200000ac <icm_gyro_z>
D:\1.intelligent vehicle\new try\seefree\Seekfree_CH32V103R8T6_Opensource_Library\obj/../Libraries/seekfree_peripheral/SEEKFREE_ICM20602.c:301
    if(icm_gyro_z>5||icm_gyro_z<-10)
    1888:	00a78713          	addi	a4,a5,10
    188c:	0742                	slli	a4,a4,0x10
    188e:	8341                	srli	a4,a4,0x10
    1890:	46bd                	li	a3,15
    1892:	00e6f763          	bgeu	a3,a4,18a0 <get_icm20602_gyro_spi+0x5e>
D:\1.intelligent vehicle\new try\seefree\Seekfree_CH32V103R8T6_Opensource_Library\obj/../Libraries/seekfree_peripheral/SEEKFREE_ICM20602.c:302
    turn_sum+=icm_gyro_z;
    1896:	8681a703          	lw	a4,-1944(gp) # 200000d8 <turn_sum>
    189a:	97ba                	add	a5,a5,a4
    189c:	86f1a423          	sw	a5,-1944(gp) # 200000d8 <turn_sum>
D:\1.intelligent vehicle\new try\seefree\Seekfree_CH32V103R8T6_Opensource_Library\obj/../Libraries/seekfree_peripheral/SEEKFREE_ICM20602.c:304

    if(turn_sum>=800)
    18a0:	8681a703          	lw	a4,-1944(gp) # 200000d8 <turn_sum>
    18a4:	31f00793          	li	a5,799
    18a8:	00e7d763          	bge	a5,a4,18b6 <get_icm20602_gyro_spi+0x74>
D:\1.intelligent vehicle\new try\seefree\Seekfree_CH32V103R8T6_Opensource_Library\obj/../Libraries/seekfree_peripheral/SEEKFREE_ICM20602.c:306
    {
        turn_over=1;
    18ac:	4705                	li	a4,1
    18ae:	86e18223          	sb	a4,-1948(gp) # 200000d4 <turn_over>
D:\1.intelligent vehicle\new try\seefree\Seekfree_CH32V103R8T6_Opensource_Library\obj/../Libraries/seekfree_peripheral/SEEKFREE_ICM20602.c:307
        aim_z=0;
    18b2:	84019b23          	sh	zero,-1962(gp) # 200000c6 <aim_z>
D:\1.intelligent vehicle\new try\seefree\Seekfree_CH32V103R8T6_Opensource_Library\obj/../Libraries/seekfree_peripheral/SEEKFREE_ICM20602.c:309
    }
}
    18b6:	40f2                	lw	ra,28(sp)
    18b8:	6105                	addi	sp,sp,32
    18ba:	8082                	ret

000018bc <mt9v03x_uart_callback>:
mt9v03x_uart_callback():
D:\1.intelligent vehicle\new try\seefree\Seekfree_CH32V103R8T6_Opensource_Library\obj/../Libraries/seekfree_peripheral/SEEKFREE_MT9V03X.c:91
//  Sample usage:
//  @note       
//-------------------------------------------------------------------------------------------------------------------
void mt9v03x_uart_callback(void)
{
    receive[receive_num] = ((USART_TypeDef*)UARTN[MT9V03X_COF_UART])->DATAR & 0x01FF;;
    18bc:	6799                	lui	a5,0x6
    18be:	cb87a783          	lw	a5,-840(a5) # 5cb8 <UARTN+0x4>
    18c2:	0047d603          	lhu	a2,4(a5)
    18c6:	84318693          	addi	a3,gp,-1981 # 200000b3 <receive_num>
    18ca:	0006c783          	lbu	a5,0(a3)
    18ce:	84018713          	addi	a4,gp,-1984 # 200000b0 <receive>
    18d2:	973e                	add	a4,a4,a5
    18d4:	00c70023          	sb	a2,0(a4) # 2000 <pwm_gpio_init+0x1d4>
D:\1.intelligent vehicle\new try\seefree\Seekfree_CH32V103R8T6_Opensource_Library\obj/../Libraries/seekfree_peripheral/SEEKFREE_MT9V03X.c:92
    receive_num++;
    18d8:	0785                	addi	a5,a5,1
    18da:	0ff7f793          	andi	a5,a5,255
    18de:	00f68023          	sb	a5,0(a3)
D:\1.intelligent vehicle\new try\seefree\Seekfree_CH32V103R8T6_Opensource_Library\obj/../Libraries/seekfree_peripheral/SEEKFREE_MT9V03X.c:94

    if(1==receive_num && 0XA5!=receive[0])  receive_num = 0;
    18e2:	4705                	li	a4,1
    18e4:	00e78b63          	beq	a5,a4,18fa <mt9v03x_uart_callback+0x3e>
D:\1.intelligent vehicle\new try\seefree\Seekfree_CH32V103R8T6_Opensource_Library\obj/../Libraries/seekfree_peripheral/SEEKFREE_MT9V03X.c:95
    if(3 == receive_num)
    18e8:	470d                	li	a4,3
    18ea:	00e79763          	bne	a5,a4,18f8 <mt9v03x_uart_callback+0x3c>
D:\1.intelligent vehicle\new try\seefree\Seekfree_CH32V103R8T6_Opensource_Library\obj/../Libraries/seekfree_peripheral/SEEKFREE_MT9V03X.c:97
    {
        receive_num = 0;
    18ee:	840181a3          	sb	zero,-1981(gp) # 200000b3 <receive_num>
D:\1.intelligent vehicle\new try\seefree\Seekfree_CH32V103R8T6_Opensource_Library\obj/../Libraries/seekfree_peripheral/SEEKFREE_MT9V03X.c:98
        uart_receive_flag = 1;
    18f2:	4705                	li	a4,1
    18f4:	84e18223          	sb	a4,-1980(gp) # 200000b4 <uart_receive_flag>
D:\1.intelligent vehicle\new try\seefree\Seekfree_CH32V103R8T6_Opensource_Library\obj/../Libraries/seekfree_peripheral/SEEKFREE_MT9V03X.c:101
    }
    
}
    18f8:	8082                	ret
D:\1.intelligent vehicle\new try\seefree\Seekfree_CH32V103R8T6_Opensource_Library\obj/../Libraries/seekfree_peripheral/SEEKFREE_MT9V03X.c:94 (discriminator 1)
    if(1==receive_num && 0XA5!=receive[0])  receive_num = 0;
    18fa:	8401c703          	lbu	a4,-1984(gp) # 200000b0 <receive>
    18fe:	0a500793          	li	a5,165
    1902:	fef70be3          	beq	a4,a5,18f8 <mt9v03x_uart_callback+0x3c>
D:\1.intelligent vehicle\new try\seefree\Seekfree_CH32V103R8T6_Opensource_Library\obj/../Libraries/seekfree_peripheral/SEEKFREE_MT9V03X.c:94 (discriminator 2)
    1906:	840181a3          	sb	zero,-1981(gp) # 200000b3 <receive_num>
    190a:	8082                	ret

0000190c <mt9v03x_vsync>:
mt9v03x_vsync():
D:\1.intelligent vehicle\new try\seefree\Seekfree_CH32V103R8T6_Opensource_Library\obj/../Libraries/seekfree_peripheral/SEEKFREE_MT9V03X.c:377
//  @since      v1.0
//  Sample usage:               在isr.c里面先创建对应的中断函数，然后调用该函数(之后别忘记清除中断标志位)
//-------------------------------------------------------------------------------------------------------------------
void mt9v03x_vsync(void)
{
    MT9V03X_DMA_CH->CNTR = MT9V03X_H*MT9V03X_W;             //设置当前DMA传输的剩余数量，向下递减，该寄存器只能在DMA不工作时更改。
    190c:	400207b7          	lui	a5,0x40020
    1910:	6709                	lui	a4,0x2
    1912:	4b870713          	addi	a4,a4,1208 # 24b8 <timer_quad_init+0x2c>
    1916:	c7b8                	sw	a4,72(a5)
D:\1.intelligent vehicle\new try\seefree\Seekfree_CH32V103R8T6_Opensource_Library\obj/../Libraries/seekfree_peripheral/SEEKFREE_MT9V03X.c:378
    MT9V03X_DMA_CH->CFGR |= DMA_CFGR1_EN;
    1918:	43f8                	lw	a4,68(a5)
    191a:	00176713          	ori	a4,a4,1
    191e:	c3f8                	sw	a4,68(a5)
D:\1.intelligent vehicle\new try\seefree\Seekfree_CH32V103R8T6_Opensource_Library\obj/../Libraries/seekfree_peripheral/SEEKFREE_MT9V03X.c:379
}
    1920:	8082                	ret

00001922 <mt9v03x_dma>:
mt9v03x_dma():
D:\1.intelligent vehicle\new try\seefree\Seekfree_CH32V103R8T6_Opensource_Library\obj/../Libraries/seekfree_peripheral/SEEKFREE_MT9V03X.c:390
//  @since      v1.0
//  Sample usage:
//-------------------------------------------------------------------------------------------------------------------
void mt9v03x_dma(void)
{
    mt9v03x_finish_flag = 1;//一副图像从采集开始到采集结束耗时3.8MS左右(50FPS、188*120分辨率)
    1922:	4705                	li	a4,1
    1924:	82e18f23          	sb	a4,-1986(gp) # 200000ae <mt9v03x_finish_flag>
D:\1.intelligent vehicle\new try\seefree\Seekfree_CH32V103R8T6_Opensource_Library\obj/../Libraries/seekfree_peripheral/SEEKFREE_MT9V03X.c:391
    MT9V03X_DMA_CH->CFGR &= (uint16)(~DMA_CFGR1_EN);   //关闭DMA1
    1928:	400206b7          	lui	a3,0x40020
    192c:	42fc                	lw	a5,68(a3)
    192e:	6741                	lui	a4,0x10
    1930:	1779                	addi	a4,a4,-2
    1932:	8ff9                	and	a5,a5,a4
    1934:	c2fc                	sw	a5,68(a3)
D:\1.intelligent vehicle\new try\seefree\Seekfree_CH32V103R8T6_Opensource_Library\obj/../Libraries/seekfree_peripheral/SEEKFREE_MT9V03X.c:392
}
    1936:	8082                	ret

00001938 <ov7725_cof_uart_interrupt>:
ov7725_cof_uart_interrupt():
D:\1.intelligent vehicle\new try\seefree\Seekfree_CH32V103R8T6_Opensource_Library\obj/../Libraries/seekfree_peripheral/SEEKFREE_UART_7725.c:83
//-------------------------------------------------------------------------------------------------------------------

void ov7725_cof_uart_interrupt(void)
{

    ov7725_uart_receive[ov7725_uart_receive_num] = ((USART_TypeDef*)UARTN[OV7725_UART_COF_UART])->DATAR & 0x01FF;
    1938:	6799                	lui	a5,0x6
    193a:	cb87a783          	lw	a5,-840(a5) # 5cb8 <UARTN+0x4>
    193e:	0047d603          	lhu	a2,4(a5)
    1942:	84c18693          	addi	a3,gp,-1972 # 200000bc <ov7725_uart_receive_num>
    1946:	0006c783          	lbu	a5,0(a3) # 40020000 <_eusrstack+0x2001b000>
    194a:	84818713          	addi	a4,gp,-1976 # 200000b8 <ov7725_uart_receive>
    194e:	973e                	add	a4,a4,a5
    1950:	00c70023          	sb	a2,0(a4) # 10000 <_data_lma+0xa110>
D:\1.intelligent vehicle\new try\seefree\Seekfree_CH32V103R8T6_Opensource_Library\obj/../Libraries/seekfree_peripheral/SEEKFREE_UART_7725.c:84
    ov7725_uart_receive_num++;
    1954:	0785                	addi	a5,a5,1
    1956:	0ff7f793          	andi	a5,a5,255
    195a:	00f68023          	sb	a5,0(a3)
D:\1.intelligent vehicle\new try\seefree\Seekfree_CH32V103R8T6_Opensource_Library\obj/../Libraries/seekfree_peripheral/SEEKFREE_UART_7725.c:86

    if(1==ov7725_uart_receive_num && 0XA5!=ov7725_uart_receive[0])  ov7725_uart_receive_num = 0;
    195e:	4705                	li	a4,1
    1960:	00e78b63          	beq	a5,a4,1976 <ov7725_cof_uart_interrupt+0x3e>
D:\1.intelligent vehicle\new try\seefree\Seekfree_CH32V103R8T6_Opensource_Library\obj/../Libraries/seekfree_peripheral/SEEKFREE_UART_7725.c:87
    if(3 == ov7725_uart_receive_num)
    1964:	470d                	li	a4,3
    1966:	00e79763          	bne	a5,a4,1974 <ov7725_cof_uart_interrupt+0x3c>
D:\1.intelligent vehicle\new try\seefree\Seekfree_CH32V103R8T6_Opensource_Library\obj/../Libraries/seekfree_peripheral/SEEKFREE_UART_7725.c:89
    {
        ov7725_uart_receive_num = 0;
    196a:	84018623          	sb	zero,-1972(gp) # 200000bc <ov7725_uart_receive_num>
D:\1.intelligent vehicle\new try\seefree\Seekfree_CH32V103R8T6_Opensource_Library\obj/../Libraries/seekfree_peripheral/SEEKFREE_UART_7725.c:90
        ov7725_uart_receive_flag = 1;
    196e:	4705                	li	a4,1
    1970:	84e185a3          	sb	a4,-1973(gp) # 200000bb <ov7725_uart_receive_flag>
D:\1.intelligent vehicle\new try\seefree\Seekfree_CH32V103R8T6_Opensource_Library\obj/../Libraries/seekfree_peripheral/SEEKFREE_UART_7725.c:92
    }
}
    1974:	8082                	ret
D:\1.intelligent vehicle\new try\seefree\Seekfree_CH32V103R8T6_Opensource_Library\obj/../Libraries/seekfree_peripheral/SEEKFREE_UART_7725.c:86 (discriminator 1)
    if(1==ov7725_uart_receive_num && 0XA5!=ov7725_uart_receive[0])  ov7725_uart_receive_num = 0;
    1976:	8481c703          	lbu	a4,-1976(gp) # 200000b8 <ov7725_uart_receive>
    197a:	0a500793          	li	a5,165
    197e:	fef70be3          	beq	a4,a5,1974 <ov7725_cof_uart_interrupt+0x3c>
D:\1.intelligent vehicle\new try\seefree\Seekfree_CH32V103R8T6_Opensource_Library\obj/../Libraries/seekfree_peripheral/SEEKFREE_UART_7725.c:86 (discriminator 2)
    1982:	84018623          	sb	zero,-1972(gp) # 200000bc <ov7725_uart_receive_num>
    1986:	8082                	ret

00001988 <ov7725_uart_vsync>:
ov7725_uart_vsync():
D:\1.intelligent vehicle\new try\seefree\Seekfree_CH32V103R8T6_Opensource_Library\obj/../Libraries/seekfree_peripheral/SEEKFREE_UART_7725.c:104
//  Sample usage:                   在isr.c里面先创建对应的中断函数，然后调用该函数(之后别忘记清除中断标志位)
//-------------------------------------------------------------------------------------------------------------------

void ov7725_uart_vsync(void)
{
    OV7725_UART_DMA_CH->CNTR = OV7725_UART_SIZE;             //设置当前DMA传输的剩余数量，向下递减，该寄存器只能在DMA不工作时更改。
    1988:	400207b7          	lui	a5,0x40020
    198c:	6705                	lui	a4,0x1
    198e:	96070713          	addi	a4,a4,-1696 # 960 <NVIC_Init+0x64>
    1992:	c7b8                	sw	a4,72(a5)
D:\1.intelligent vehicle\new try\seefree\Seekfree_CH32V103R8T6_Opensource_Library\obj/../Libraries/seekfree_peripheral/SEEKFREE_UART_7725.c:105
    OV7725_UART_DMA_CH->CFGR |= DMA_CFGR1_EN;                //开启DMA1
    1994:	43f8                	lw	a4,68(a5)
    1996:	00176713          	ori	a4,a4,1
    199a:	c3f8                	sw	a4,68(a5)
D:\1.intelligent vehicle\new try\seefree\Seekfree_CH32V103R8T6_Opensource_Library\obj/../Libraries/seekfree_peripheral/SEEKFREE_UART_7725.c:106
}
    199c:	8082                	ret

0000199e <ov7725_uart_dma>:
ov7725_uart_dma():
D:\1.intelligent vehicle\new try\seefree\Seekfree_CH32V103R8T6_Opensource_Library\obj/../Libraries/seekfree_peripheral/SEEKFREE_UART_7725.c:118
//  @since      v1.0
//  Sample usage:                   在isr.c里面先创建对应的中断函数，然后调用该函数(之后别忘记清除中断标志位)
//-------------------------------------------------------------------------------------------------------------------
void ov7725_uart_dma(void)
{
    ov7725_uart_finish_flag = 1;                             //摄像头数据采集置1
    199e:	4705                	li	a4,1
    19a0:	84e182a3          	sb	a4,-1979(gp) # 200000b5 <ov7725_uart_finish_flag>
D:\1.intelligent vehicle\new try\seefree\Seekfree_CH32V103R8T6_Opensource_Library\obj/../Libraries/seekfree_peripheral/SEEKFREE_UART_7725.c:119
    OV7725_UART_DMA_CH->CFGR &= (uint16)(~DMA_CFGR1_EN);     //关闭DMA1
    19a4:	400206b7          	lui	a3,0x40020
    19a8:	42fc                	lw	a5,68(a3)
    19aa:	6741                	lui	a4,0x10
    19ac:	1779                	addi	a4,a4,-2
    19ae:	8ff9                	and	a5,a5,a4
    19b0:	c2fc                	sw	a5,68(a3)
D:\1.intelligent vehicle\new try\seefree\Seekfree_CH32V103R8T6_Opensource_Library\obj/../Libraries/seekfree_peripheral/SEEKFREE_UART_7725.c:120
}
    19b2:	8082                	ret

000019b4 <seekfree_wireless_init>:
seekfree_wireless_init():
D:\1.intelligent vehicle\new try\seefree\Seekfree_CH32V103R8T6_Opensource_Library\obj/../Libraries/seekfree_peripheral/SEEKFREE_WIRELESS.c:63
//  @since      v1.0
//  Sample usage:
//  @note       
//-------------------------------------------------------------------------------------------------------------------
void seekfree_wireless_init(void)
{
    19b4:	1141                	addi	sp,sp,-16
    19b6:	c606                	sw	ra,12(sp)
D:\1.intelligent vehicle\new try\seefree\Seekfree_CH32V103R8T6_Opensource_Library\obj/../Libraries/seekfree_peripheral/SEEKFREE_WIRELESS.c:65
    //本函数使用的波特率为115200，为无线转串口模块的默认波特率，如需其他波特率请自行配置模块并修改串口的波特率
    gpio_init(RTS_PIN,GPI,0,GPIO_PIN_CONFIG);//初始化流控引脚
    19b8:	31000693          	li	a3,784
    19bc:	4601                	li	a2,0
    19be:	4581                	li	a1,0
    19c0:	04c00513          	li	a0,76
    19c4:	2ad5                	jal	1bb8 <gpio_init>
D:\1.intelligent vehicle\new try\seefree\Seekfree_CH32V103R8T6_Opensource_Library\obj/../Libraries/seekfree_peripheral/SEEKFREE_WIRELESS.c:67
    
    uart_init (WIRELESS_UART, WIRELESS_UART_BAUD, WIRELESS_UART_TX, WIRELESS_UART_RX);  //初始换串口
    19c6:	4685                	li	a3,1
    19c8:	4601                	li	a2,0
    19ca:	000385b7          	lui	a1,0x38
    19ce:	40058593          	addi	a1,a1,1024 # 38400 <_data_lma+0x32510>
    19d2:	4501                	li	a0,0
    19d4:	77b000ef          	jal	ra,294e <uart_init>
D:\1.intelligent vehicle\new try\seefree\Seekfree_CH32V103R8T6_Opensource_Library\obj/../Libraries/seekfree_peripheral/SEEKFREE_WIRELESS.c:68
    uart_rx_irq(WIRELESS_UART, ENABLE);
    19d8:	4585                	li	a1,1
    19da:	4501                	li	a0,0
    19dc:	08c010ef          	jal	ra,2a68 <uart_rx_irq>
D:\1.intelligent vehicle\new try\seefree\Seekfree_CH32V103R8T6_Opensource_Library\obj/../Libraries/seekfree_peripheral/SEEKFREE_WIRELESS.c:74

    
    //NVIC_SetPriority((IRQn_Type)((IRQn_Type)(WIRELESS_UART) + LPUART1_IRQn),0);  //设置中断优先级 范围0-15 越小优先级越高
    //EnableGlobalIRQ(0);
    
}
    19e0:	40b2                	lw	ra,12(sp)
    19e2:	0141                	addi	sp,sp,16
    19e4:	8082                	ret

000019e6 <adc_gpio_init>:
adc_gpio_init():
D:\1.intelligent vehicle\new try\seefree\Seekfree_CH32V103R8T6_Opensource_Library\obj/../Libraries/seekfree_libraries/zf_adc.c:35
//  @param      ch          ch通道(可选择范围由zf_adc.h内ADCCH_enum枚举值确定)
//  @return     void
//  Sample usage:           内部使用  用户无需关心
//-------------------------------------------------------------------------------------------------------------------
void adc_gpio_init(ADCCH_enum ch)
{
    19e6:	1141                	addi	sp,sp,-16
    19e8:	c606                	sw	ra,12(sp)
D:\1.intelligent vehicle\new try\seefree\Seekfree_CH32V103R8T6_Opensource_Library\obj/../Libraries/seekfree_libraries/zf_adc.c:36
    if(ADC_IN0_A0 == ch)            gpio_init(A0, GPI, 0, IN_AIN);
    19ea:	c52d                	beqz	a0,1a54 <adc_gpio_init+0x6e>
D:\1.intelligent vehicle\new try\seefree\Seekfree_CH32V103R8T6_Opensource_Library\obj/../Libraries/seekfree_libraries/zf_adc.c:37
    else if(ADC_IN1_A1 == ch)       gpio_init(A1, GPI, 0, IN_AIN);
    19ec:	4785                	li	a5,1
    19ee:	06f50a63          	beq	a0,a5,1a62 <adc_gpio_init+0x7c>
D:\1.intelligent vehicle\new try\seefree\Seekfree_CH32V103R8T6_Opensource_Library\obj/../Libraries/seekfree_libraries/zf_adc.c:38
    else if(ADC_IN2_A2 == ch)       gpio_init(A2, GPI, 0, IN_AIN);
    19f2:	4789                	li	a5,2
    19f4:	06f50d63          	beq	a0,a5,1a6e <adc_gpio_init+0x88>
D:\1.intelligent vehicle\new try\seefree\Seekfree_CH32V103R8T6_Opensource_Library\obj/../Libraries/seekfree_libraries/zf_adc.c:39
    else if(ADC_IN3_A3 == ch)       gpio_init(A3, GPI, 0, IN_AIN);
    19f8:	478d                	li	a5,3
    19fa:	08f50063          	beq	a0,a5,1a7a <adc_gpio_init+0x94>
D:\1.intelligent vehicle\new try\seefree\Seekfree_CH32V103R8T6_Opensource_Library\obj/../Libraries/seekfree_libraries/zf_adc.c:40
    else if(ADC_IN4_A4 == ch)       gpio_init(A4, GPI, 0, IN_AIN);
    19fe:	4791                	li	a5,4
    1a00:	08f50363          	beq	a0,a5,1a86 <adc_gpio_init+0xa0>
D:\1.intelligent vehicle\new try\seefree\Seekfree_CH32V103R8T6_Opensource_Library\obj/../Libraries/seekfree_libraries/zf_adc.c:41
    else if(ADC_IN5_A5 == ch)       gpio_init(A5, GPI, 0, IN_AIN);
    1a04:	4795                	li	a5,5
    1a06:	08f50663          	beq	a0,a5,1a92 <adc_gpio_init+0xac>
D:\1.intelligent vehicle\new try\seefree\Seekfree_CH32V103R8T6_Opensource_Library\obj/../Libraries/seekfree_libraries/zf_adc.c:42
    else if(ADC_IN6_A6 == ch)       gpio_init(A6, GPI, 0, IN_AIN);
    1a0a:	4799                	li	a5,6
    1a0c:	08f50963          	beq	a0,a5,1a9e <adc_gpio_init+0xb8>
D:\1.intelligent vehicle\new try\seefree\Seekfree_CH32V103R8T6_Opensource_Library\obj/../Libraries/seekfree_libraries/zf_adc.c:43
    else if(ADC_IN7_A7 == ch)       gpio_init(A7, GPI, 0, IN_AIN);
    1a10:	479d                	li	a5,7
    1a12:	08f50c63          	beq	a0,a5,1aaa <adc_gpio_init+0xc4>
D:\1.intelligent vehicle\new try\seefree\Seekfree_CH32V103R8T6_Opensource_Library\obj/../Libraries/seekfree_libraries/zf_adc.c:44
    else if(ADC_IN8_B0 == ch)       gpio_init(B0, GPI, 0, IN_AIN);
    1a16:	47a1                	li	a5,8
    1a18:	08f50f63          	beq	a0,a5,1ab6 <adc_gpio_init+0xd0>
D:\1.intelligent vehicle\new try\seefree\Seekfree_CH32V103R8T6_Opensource_Library\obj/../Libraries/seekfree_libraries/zf_adc.c:45
    else if(ADC_IN9_B1 == ch)       gpio_init(B1, GPI, 0, IN_AIN);
    1a1c:	47a5                	li	a5,9
    1a1e:	0af50363          	beq	a0,a5,1ac4 <adc_gpio_init+0xde>
D:\1.intelligent vehicle\new try\seefree\Seekfree_CH32V103R8T6_Opensource_Library\obj/../Libraries/seekfree_libraries/zf_adc.c:46
    else if(ADC_IN10_C0 == ch)      gpio_init(C0, GPI, 0, IN_AIN);
    1a22:	47a9                	li	a5,10
    1a24:	0af50763          	beq	a0,a5,1ad2 <adc_gpio_init+0xec>
D:\1.intelligent vehicle\new try\seefree\Seekfree_CH32V103R8T6_Opensource_Library\obj/../Libraries/seekfree_libraries/zf_adc.c:47
    else if(ADC_IN11_C1 == ch)      gpio_init(C1, GPI, 0, IN_AIN);
    1a28:	47ad                	li	a5,11
    1a2a:	0af50b63          	beq	a0,a5,1ae0 <adc_gpio_init+0xfa>
D:\1.intelligent vehicle\new try\seefree\Seekfree_CH32V103R8T6_Opensource_Library\obj/../Libraries/seekfree_libraries/zf_adc.c:48
    else if(ADC_IN12_C2 == ch)      gpio_init(C2, GPI, 0, IN_AIN);
    1a2e:	47b1                	li	a5,12
    1a30:	0af50f63          	beq	a0,a5,1aee <adc_gpio_init+0x108>
D:\1.intelligent vehicle\new try\seefree\Seekfree_CH32V103R8T6_Opensource_Library\obj/../Libraries/seekfree_libraries/zf_adc.c:49
    else if(ADC_IN13_C3 == ch)      gpio_init(C3, GPI, 0, IN_AIN);
    1a34:	47b5                	li	a5,13
    1a36:	0cf50363          	beq	a0,a5,1afc <adc_gpio_init+0x116>
D:\1.intelligent vehicle\new try\seefree\Seekfree_CH32V103R8T6_Opensource_Library\obj/../Libraries/seekfree_libraries/zf_adc.c:50
    else if(ADC_IN14_C4 == ch)      gpio_init(C4, GPI, 0, IN_AIN);
    1a3a:	47b9                	li	a5,14
    1a3c:	0cf50763          	beq	a0,a5,1b0a <adc_gpio_init+0x124>
D:\1.intelligent vehicle\new try\seefree\Seekfree_CH32V103R8T6_Opensource_Library\obj/../Libraries/seekfree_libraries/zf_adc.c:51
    else if(ADC_IN15_C5 == ch)      gpio_init(C5, GPI, 0, IN_AIN);
    1a40:	47bd                	li	a5,15
    1a42:	00f51d63          	bne	a0,a5,1a5c <adc_gpio_init+0x76>
D:\1.intelligent vehicle\new try\seefree\Seekfree_CH32V103R8T6_Opensource_Library\obj/../Libraries/seekfree_libraries/zf_adc.c:51 (discriminator 1)
    1a46:	4681                	li	a3,0
    1a48:	4601                	li	a2,0
    1a4a:	4581                	li	a1,0
    1a4c:	04500513          	li	a0,69
    1a50:	22a5                	jal	1bb8 <gpio_init>
D:\1.intelligent vehicle\new try\seefree\Seekfree_CH32V103R8T6_Opensource_Library\obj/../Libraries/seekfree_libraries/zf_adc.c:52 (discriminator 1)
}
    1a52:	a029                	j	1a5c <adc_gpio_init+0x76>
D:\1.intelligent vehicle\new try\seefree\Seekfree_CH32V103R8T6_Opensource_Library\obj/../Libraries/seekfree_libraries/zf_adc.c:36 (discriminator 1)
    if(ADC_IN0_A0 == ch)            gpio_init(A0, GPI, 0, IN_AIN);
    1a54:	4681                	li	a3,0
    1a56:	4601                	li	a2,0
    1a58:	4581                	li	a1,0
    1a5a:	2ab9                	jal	1bb8 <gpio_init>
D:\1.intelligent vehicle\new try\seefree\Seekfree_CH32V103R8T6_Opensource_Library\obj/../Libraries/seekfree_libraries/zf_adc.c:52
}
    1a5c:	40b2                	lw	ra,12(sp)
    1a5e:	0141                	addi	sp,sp,16
    1a60:	8082                	ret
D:\1.intelligent vehicle\new try\seefree\Seekfree_CH32V103R8T6_Opensource_Library\obj/../Libraries/seekfree_libraries/zf_adc.c:37 (discriminator 1)
    else if(ADC_IN1_A1 == ch)       gpio_init(A1, GPI, 0, IN_AIN);
    1a62:	4681                	li	a3,0
    1a64:	4601                	li	a2,0
    1a66:	4581                	li	a1,0
    1a68:	4505                	li	a0,1
    1a6a:	22b9                	jal	1bb8 <gpio_init>
    1a6c:	bfc5                	j	1a5c <adc_gpio_init+0x76>
D:\1.intelligent vehicle\new try\seefree\Seekfree_CH32V103R8T6_Opensource_Library\obj/../Libraries/seekfree_libraries/zf_adc.c:38 (discriminator 1)
    else if(ADC_IN2_A2 == ch)       gpio_init(A2, GPI, 0, IN_AIN);
    1a6e:	4681                	li	a3,0
    1a70:	4601                	li	a2,0
    1a72:	4581                	li	a1,0
    1a74:	4509                	li	a0,2
    1a76:	2289                	jal	1bb8 <gpio_init>
    1a78:	b7d5                	j	1a5c <adc_gpio_init+0x76>
D:\1.intelligent vehicle\new try\seefree\Seekfree_CH32V103R8T6_Opensource_Library\obj/../Libraries/seekfree_libraries/zf_adc.c:39 (discriminator 1)
    else if(ADC_IN3_A3 == ch)       gpio_init(A3, GPI, 0, IN_AIN);
    1a7a:	4681                	li	a3,0
    1a7c:	4601                	li	a2,0
    1a7e:	4581                	li	a1,0
    1a80:	450d                	li	a0,3
    1a82:	2a1d                	jal	1bb8 <gpio_init>
    1a84:	bfe1                	j	1a5c <adc_gpio_init+0x76>
D:\1.intelligent vehicle\new try\seefree\Seekfree_CH32V103R8T6_Opensource_Library\obj/../Libraries/seekfree_libraries/zf_adc.c:40 (discriminator 1)
    else if(ADC_IN4_A4 == ch)       gpio_init(A4, GPI, 0, IN_AIN);
    1a86:	4681                	li	a3,0
    1a88:	4601                	li	a2,0
    1a8a:	4581                	li	a1,0
    1a8c:	4511                	li	a0,4
    1a8e:	222d                	jal	1bb8 <gpio_init>
    1a90:	b7f1                	j	1a5c <adc_gpio_init+0x76>
D:\1.intelligent vehicle\new try\seefree\Seekfree_CH32V103R8T6_Opensource_Library\obj/../Libraries/seekfree_libraries/zf_adc.c:41 (discriminator 1)
    else if(ADC_IN5_A5 == ch)       gpio_init(A5, GPI, 0, IN_AIN);
    1a92:	4681                	li	a3,0
    1a94:	4601                	li	a2,0
    1a96:	4581                	li	a1,0
    1a98:	4515                	li	a0,5
    1a9a:	2a39                	jal	1bb8 <gpio_init>
    1a9c:	b7c1                	j	1a5c <adc_gpio_init+0x76>
D:\1.intelligent vehicle\new try\seefree\Seekfree_CH32V103R8T6_Opensource_Library\obj/../Libraries/seekfree_libraries/zf_adc.c:42 (discriminator 1)
    else if(ADC_IN6_A6 == ch)       gpio_init(A6, GPI, 0, IN_AIN);
    1a9e:	4681                	li	a3,0
    1aa0:	4601                	li	a2,0
    1aa2:	4581                	li	a1,0
    1aa4:	4519                	li	a0,6
    1aa6:	2a09                	jal	1bb8 <gpio_init>
    1aa8:	bf55                	j	1a5c <adc_gpio_init+0x76>
D:\1.intelligent vehicle\new try\seefree\Seekfree_CH32V103R8T6_Opensource_Library\obj/../Libraries/seekfree_libraries/zf_adc.c:43 (discriminator 1)
    else if(ADC_IN7_A7 == ch)       gpio_init(A7, GPI, 0, IN_AIN);
    1aaa:	4681                	li	a3,0
    1aac:	4601                	li	a2,0
    1aae:	4581                	li	a1,0
    1ab0:	451d                	li	a0,7
    1ab2:	2219                	jal	1bb8 <gpio_init>
    1ab4:	b765                	j	1a5c <adc_gpio_init+0x76>
D:\1.intelligent vehicle\new try\seefree\Seekfree_CH32V103R8T6_Opensource_Library\obj/../Libraries/seekfree_libraries/zf_adc.c:44 (discriminator 1)
    else if(ADC_IN8_B0 == ch)       gpio_init(B0, GPI, 0, IN_AIN);
    1ab6:	4681                	li	a3,0
    1ab8:	4601                	li	a2,0
    1aba:	4581                	li	a1,0
    1abc:	02000513          	li	a0,32
    1ac0:	28e5                	jal	1bb8 <gpio_init>
    1ac2:	bf69                	j	1a5c <adc_gpio_init+0x76>
D:\1.intelligent vehicle\new try\seefree\Seekfree_CH32V103R8T6_Opensource_Library\obj/../Libraries/seekfree_libraries/zf_adc.c:45 (discriminator 1)
    else if(ADC_IN9_B1 == ch)       gpio_init(B1, GPI, 0, IN_AIN);
    1ac4:	4681                	li	a3,0
    1ac6:	4601                	li	a2,0
    1ac8:	4581                	li	a1,0
    1aca:	02100513          	li	a0,33
    1ace:	20ed                	jal	1bb8 <gpio_init>
    1ad0:	b771                	j	1a5c <adc_gpio_init+0x76>
D:\1.intelligent vehicle\new try\seefree\Seekfree_CH32V103R8T6_Opensource_Library\obj/../Libraries/seekfree_libraries/zf_adc.c:46 (discriminator 1)
    else if(ADC_IN10_C0 == ch)      gpio_init(C0, GPI, 0, IN_AIN);
    1ad2:	4681                	li	a3,0
    1ad4:	4601                	li	a2,0
    1ad6:	4581                	li	a1,0
    1ad8:	04000513          	li	a0,64
    1adc:	28f1                	jal	1bb8 <gpio_init>
    1ade:	bfbd                	j	1a5c <adc_gpio_init+0x76>
D:\1.intelligent vehicle\new try\seefree\Seekfree_CH32V103R8T6_Opensource_Library\obj/../Libraries/seekfree_libraries/zf_adc.c:47 (discriminator 1)
    else if(ADC_IN11_C1 == ch)      gpio_init(C1, GPI, 0, IN_AIN);
    1ae0:	4681                	li	a3,0
    1ae2:	4601                	li	a2,0
    1ae4:	4581                	li	a1,0
    1ae6:	04100513          	li	a0,65
    1aea:	20f9                	jal	1bb8 <gpio_init>
    1aec:	bf85                	j	1a5c <adc_gpio_init+0x76>
D:\1.intelligent vehicle\new try\seefree\Seekfree_CH32V103R8T6_Opensource_Library\obj/../Libraries/seekfree_libraries/zf_adc.c:48 (discriminator 1)
    else if(ADC_IN12_C2 == ch)      gpio_init(C2, GPI, 0, IN_AIN);
    1aee:	4681                	li	a3,0
    1af0:	4601                	li	a2,0
    1af2:	4581                	li	a1,0
    1af4:	04200513          	li	a0,66
    1af8:	20c1                	jal	1bb8 <gpio_init>
    1afa:	b78d                	j	1a5c <adc_gpio_init+0x76>
D:\1.intelligent vehicle\new try\seefree\Seekfree_CH32V103R8T6_Opensource_Library\obj/../Libraries/seekfree_libraries/zf_adc.c:49 (discriminator 1)
    else if(ADC_IN13_C3 == ch)      gpio_init(C3, GPI, 0, IN_AIN);
    1afc:	4681                	li	a3,0
    1afe:	4601                	li	a2,0
    1b00:	4581                	li	a1,0
    1b02:	04300513          	li	a0,67
    1b06:	284d                	jal	1bb8 <gpio_init>
    1b08:	bf91                	j	1a5c <adc_gpio_init+0x76>
D:\1.intelligent vehicle\new try\seefree\Seekfree_CH32V103R8T6_Opensource_Library\obj/../Libraries/seekfree_libraries/zf_adc.c:50 (discriminator 1)
    else if(ADC_IN14_C4 == ch)      gpio_init(C4, GPI, 0, IN_AIN);
    1b0a:	4681                	li	a3,0
    1b0c:	4601                	li	a2,0
    1b0e:	4581                	li	a1,0
    1b10:	04400513          	li	a0,68
    1b14:	2055                	jal	1bb8 <gpio_init>
    1b16:	b799                	j	1a5c <adc_gpio_init+0x76>

00001b18 <adc_init>:
adc_init():
D:\1.intelligent vehicle\new try\seefree\Seekfree_CH32V103R8T6_Opensource_Library\obj/../Libraries/seekfree_libraries/zf_adc.c:61
//  @param      ch              选择ADC通道
//  @return     void
//  Sample usage:               adc_init(ADC_IN0_A0);//初始化A0引脚为ADC功能
//-------------------------------------------------------------------------------------------------------------------
void adc_init(ADCCH_enum ch)
{
    1b18:	7179                	addi	sp,sp,-48
    1b1a:	d606                	sw	ra,44(sp)
    1b1c:	d422                	sw	s0,40(sp)
    1b1e:	842a                	mv	s0,a0
D:\1.intelligent vehicle\new try\seefree\Seekfree_CH32V103R8T6_Opensource_Library\obj/../Libraries/seekfree_libraries/zf_adc.c:64
    ADC_InitTypeDef ADC_InitStructure;

    RCC_APB2PeriphClockCmd(RCC_APB2Periph_GPIOA |RCC_APB2Periph_ADC1 , ENABLE );   //使能ADC1通道时钟
    1b20:	4585                	li	a1,1
    1b22:	20400513          	li	a0,516
    1b26:	f89fe0ef          	jal	ra,aae <RCC_APB2PeriphClockCmd>
D:\1.intelligent vehicle\new try\seefree\Seekfree_CH32V103R8T6_Opensource_Library\obj/../Libraries/seekfree_libraries/zf_adc.c:66

    adc_gpio_init(ch);
    1b2a:	8522                	mv	a0,s0
    1b2c:	3d6d                	jal	19e6 <adc_gpio_init>
D:\1.intelligent vehicle\new try\seefree\Seekfree_CH32V103R8T6_Opensource_Library\obj/../Libraries/seekfree_libraries/zf_adc.c:68

    if(sys_clk > 84000000)  RCC_ADCCLKConfig(RCC_PCLK2_Div8);           //设置ADC分频因子，ADC最大速率不能超过14M
    1b2e:	8501a703          	lw	a4,-1968(gp) # 200000c0 <sys_clk>
    1b32:	0501c7b7          	lui	a5,0x501c
    1b36:	d0078793          	addi	a5,a5,-768 # 501bd00 <_data_lma+0x5015e10>
    1b3a:	06e7fb63          	bgeu	a5,a4,1bb0 <adc_init+0x98>
D:\1.intelligent vehicle\new try\seefree\Seekfree_CH32V103R8T6_Opensource_Library\obj/../Libraries/seekfree_libraries/zf_adc.c:68 (discriminator 1)
    1b3e:	6531                	lui	a0,0xc
    1b40:	e6bfe0ef          	jal	ra,9aa <RCC_ADCCLKConfig>
D:\1.intelligent vehicle\new try\seefree\Seekfree_CH32V103R8T6_Opensource_Library\obj/../Libraries/seekfree_libraries/zf_adc.c:71
    else RCC_ADCCLKConfig(RCC_PCLK2_Div6);

    ADC_DeInit(ADC1);                                                   //复位ADC1
    1b44:	40012437          	lui	s0,0x40012
    1b48:	40040513          	addi	a0,s0,1024 # 40012400 <_eusrstack+0x2000d400>
    1b4c:	a65fe0ef          	jal	ra,5b0 <ADC_DeInit>
D:\1.intelligent vehicle\new try\seefree\Seekfree_CH32V103R8T6_Opensource_Library\obj/../Libraries/seekfree_libraries/zf_adc.c:73

    ADC_InitStructure.ADC_Mode = ADC_Mode_Independent;                  //ADC工作模式:ADC1工作在独立模式
    1b50:	c402                	sw	zero,8(sp)
D:\1.intelligent vehicle\new try\seefree\Seekfree_CH32V103R8T6_Opensource_Library\obj/../Libraries/seekfree_libraries/zf_adc.c:74
    ADC_InitStructure.ADC_ScanConvMode = DISABLE;                       //模数转换工作在单通道模式
    1b52:	c602                	sw	zero,12(sp)
D:\1.intelligent vehicle\new try\seefree\Seekfree_CH32V103R8T6_Opensource_Library\obj/../Libraries/seekfree_libraries/zf_adc.c:75
    ADC_InitStructure.ADC_ContinuousConvMode = DISABLE;                 //模数转换工作在单次转换模式
    1b54:	c802                	sw	zero,16(sp)
D:\1.intelligent vehicle\new try\seefree\Seekfree_CH32V103R8T6_Opensource_Library\obj/../Libraries/seekfree_libraries/zf_adc.c:76
    ADC_InitStructure.ADC_ExternalTrigConv = ADC_ExternalTrigConv_None; //转换由软件而不是外部触发启动
    1b56:	000e07b7          	lui	a5,0xe0
    1b5a:	ca3e                	sw	a5,20(sp)
D:\1.intelligent vehicle\new try\seefree\Seekfree_CH32V103R8T6_Opensource_Library\obj/../Libraries/seekfree_libraries/zf_adc.c:77
    ADC_InitStructure.ADC_DataAlign = ADC_DataAlign_Right;              //ADC数据右对齐
    1b5c:	cc02                	sw	zero,24(sp)
D:\1.intelligent vehicle\new try\seefree\Seekfree_CH32V103R8T6_Opensource_Library\obj/../Libraries/seekfree_libraries/zf_adc.c:78
    ADC_InitStructure.ADC_NbrOfChannel = 1;                             //顺序进行规则转换的ADC通道的数目
    1b5e:	4785                	li	a5,1
    1b60:	00f10e23          	sb	a5,28(sp)
D:\1.intelligent vehicle\new try\seefree\Seekfree_CH32V103R8T6_Opensource_Library\obj/../Libraries/seekfree_libraries/zf_adc.c:79
    ADC_Init(ADC1, &ADC_InitStructure);                                 //根据ADC_InitStruct中指定的参数初始化外设ADCx的寄存器
    1b64:	002c                	addi	a1,sp,8
    1b66:	40040513          	addi	a0,s0,1024
    1b6a:	a6ffe0ef          	jal	ra,5d8 <ADC_Init>
D:\1.intelligent vehicle\new try\seefree\Seekfree_CH32V103R8T6_Opensource_Library\obj/../Libraries/seekfree_libraries/zf_adc.c:81

    ADC_Cmd(ADC1, ENABLE);                                              //使能指定的ADC1
    1b6e:	4585                	li	a1,1
    1b70:	40040513          	addi	a0,s0,1024
    1b74:	ab5fe0ef          	jal	ra,628 <ADC_Cmd>
D:\1.intelligent vehicle\new try\seefree\Seekfree_CH32V103R8T6_Opensource_Library\obj/../Libraries/seekfree_libraries/zf_adc.c:82
    ADC_ResetCalibration(ADC1);                                         //使能复位校准
    1b78:	40040513          	addi	a0,s0,1024
    1b7c:	ac1fe0ef          	jal	ra,63c <ADC_ResetCalibration>
D:\1.intelligent vehicle\new try\seefree\Seekfree_CH32V103R8T6_Opensource_Library\obj/../Libraries/seekfree_libraries/zf_adc.c:83
    while(ADC_GetResetCalibrationStatus(ADC1));                         //等待复位校准结束
    1b80:	40040413          	addi	s0,s0,1024
D:\1.intelligent vehicle\new try\seefree\Seekfree_CH32V103R8T6_Opensource_Library\obj/../Libraries/seekfree_libraries/zf_adc.c:83 (discriminator 1)
    1b84:	8522                	mv	a0,s0
    1b86:	ac1fe0ef          	jal	ra,646 <ADC_GetResetCalibrationStatus>
    1b8a:	fd6d                	bnez	a0,1b84 <adc_init+0x6c>
D:\1.intelligent vehicle\new try\seefree\Seekfree_CH32V103R8T6_Opensource_Library\obj/../Libraries/seekfree_libraries/zf_adc.c:84
    ADC_StartCalibration(ADC1);                                         //开启AD校准
    1b8c:	40012537          	lui	a0,0x40012
    1b90:	40050513          	addi	a0,a0,1024 # 40012400 <_eusrstack+0x2000d400>
    1b94:	abbfe0ef          	jal	ra,64e <ADC_StartCalibration>
D:\1.intelligent vehicle\new try\seefree\Seekfree_CH32V103R8T6_Opensource_Library\obj/../Libraries/seekfree_libraries/zf_adc.c:85
    while(ADC_GetCalibrationStatus(ADC1));                              //等待校准结束
    1b98:	40012437          	lui	s0,0x40012
    1b9c:	40040413          	addi	s0,s0,1024 # 40012400 <_eusrstack+0x2000d400>
D:\1.intelligent vehicle\new try\seefree\Seekfree_CH32V103R8T6_Opensource_Library\obj/../Libraries/seekfree_libraries/zf_adc.c:85 (discriminator 1)
    1ba0:	8522                	mv	a0,s0
    1ba2:	ab7fe0ef          	jal	ra,658 <ADC_GetCalibrationStatus>
    1ba6:	fd6d                	bnez	a0,1ba0 <adc_init+0x88>
D:\1.intelligent vehicle\new try\seefree\Seekfree_CH32V103R8T6_Opensource_Library\obj/../Libraries/seekfree_libraries/zf_adc.c:87

}
    1ba8:	50b2                	lw	ra,44(sp)
    1baa:	5422                	lw	s0,40(sp)
    1bac:	6145                	addi	sp,sp,48
    1bae:	8082                	ret
D:\1.intelligent vehicle\new try\seefree\Seekfree_CH32V103R8T6_Opensource_Library\obj/../Libraries/seekfree_libraries/zf_adc.c:69
    else RCC_ADCCLKConfig(RCC_PCLK2_Div6);
    1bb0:	6521                	lui	a0,0x8
    1bb2:	df9fe0ef          	jal	ra,9aa <RCC_ADCCLKConfig>
    1bb6:	b779                	j	1b44 <adc_init+0x2c>

00001bb8 <gpio_init>:
gpio_init():
D:\1.intelligent vehicle\new try\seefree\Seekfree_CH32V103R8T6_Opensource_Library\obj/../Libraries/seekfree_libraries/zf_gpio.c:46
    GPIO_InitTypeDef GPIO_InitStructure;
    uint8 io_group = (pin & 0xE0) >> 5;
    uint8 io_pin = pin & 0x1F;


    if(PIN_NULL == pin) return;
    1bb8:	08000713          	li	a4,128
    1bbc:	10e50663          	beq	a0,a4,1cc8 <gpio_init+0x110>
D:\1.intelligent vehicle\new try\seefree\Seekfree_CH32V103R8T6_Opensource_Library\obj/../Libraries/seekfree_libraries/zf_gpio.c:40
{
    1bc0:	7179                	addi	sp,sp,-48
    1bc2:	d606                	sw	ra,44(sp)
    1bc4:	d422                	sw	s0,40(sp)
    1bc6:	d226                	sw	s1,36(sp)
    1bc8:	d04a                	sw	s2,32(sp)
    1bca:	ce4e                	sw	s3,28(sp)
    1bcc:	cc52                	sw	s4,24(sp)
    1bce:	00555793          	srli	a5,a0,0x5
    1bd2:	0077f913          	andi	s2,a5,7
    1bd6:	01f57413          	andi	s0,a0,31
    1bda:	8a36                	mv	s4,a3
    1bdc:	89b2                	mv	s3,a2
    1bde:	84ae                	mv	s1,a1
D:\1.intelligent vehicle\new try\seefree\Seekfree_CH32V103R8T6_Opensource_Library\obj/../Libraries/seekfree_libraries/zf_gpio.c:48
    //GPIO总线使能
    if(0 == (pin >> 5))      RCC_APB2PeriphClockCmd(RCC_APB2Periph_GPIOA, ENABLE);
    1be0:	cb8d                	beqz	a5,1c12 <gpio_init+0x5a>
D:\1.intelligent vehicle\new try\seefree\Seekfree_CH32V103R8T6_Opensource_Library\obj/../Libraries/seekfree_libraries/zf_gpio.c:49
    else if(1 == (pin >> 5)) RCC_APB2PeriphClockCmd(RCC_APB2Periph_GPIOB, ENABLE);
    1be2:	4705                	li	a4,1
    1be4:	06e78963          	beq	a5,a4,1c56 <gpio_init+0x9e>
D:\1.intelligent vehicle\new try\seefree\Seekfree_CH32V103R8T6_Opensource_Library\obj/../Libraries/seekfree_libraries/zf_gpio.c:50
    else if(2 == (pin >> 5)) RCC_APB2PeriphClockCmd(RCC_APB2Periph_GPIOC, ENABLE);
    1be8:	4709                	li	a4,2
    1bea:	06e78b63          	beq	a5,a4,1c60 <gpio_init+0xa8>
D:\1.intelligent vehicle\new try\seefree\Seekfree_CH32V103R8T6_Opensource_Library\obj/../Libraries/seekfree_libraries/zf_gpio.c:51
    else if(3 == (pin >> 5)) RCC_APB2PeriphClockCmd(RCC_APB2Periph_GPIOD, ENABLE);
    1bee:	470d                	li	a4,3
    1bf0:	06e78d63          	beq	a5,a4,1c6a <gpio_init+0xb2>
D:\1.intelligent vehicle\new try\seefree\Seekfree_CH32V103R8T6_Opensource_Library\obj/../Libraries/seekfree_libraries/zf_gpio.c:52
    else if(4 == (pin >> 5)) RCC_APB2PeriphClockCmd(RCC_APB2Periph_GPIOE, ENABLE);
    1bf4:	4711                	li	a4,4
    1bf6:	08e78063          	beq	a5,a4,1c76 <gpio_init+0xbe>
D:\1.intelligent vehicle\new try\seefree\Seekfree_CH32V103R8T6_Opensource_Library\obj/../Libraries/seekfree_libraries/zf_gpio.c:53
    else if(5 == (pin >> 5)) RCC_APB2PeriphClockCmd(RCC_APB2Periph_GPIOF, ENABLE);
    1bfa:	4715                	li	a4,5
    1bfc:	08e78363          	beq	a5,a4,1c82 <gpio_init+0xca>
D:\1.intelligent vehicle\new try\seefree\Seekfree_CH32V103R8T6_Opensource_Library\obj/../Libraries/seekfree_libraries/zf_gpio.c:54
    else if(6 == (pin >> 5)) RCC_APB2PeriphClockCmd(RCC_APB2Periph_GPIOG, ENABLE);
    1c00:	4719                	li	a4,6
    1c02:	00e79c63          	bne	a5,a4,1c1a <gpio_init+0x62>
D:\1.intelligent vehicle\new try\seefree\Seekfree_CH32V103R8T6_Opensource_Library\obj/../Libraries/seekfree_libraries/zf_gpio.c:54 (discriminator 1)
    1c06:	4585                	li	a1,1
    1c08:	10000513          	li	a0,256
    1c0c:	ea3fe0ef          	jal	ra,aae <RCC_APB2PeriphClockCmd>
    1c10:	a029                	j	1c1a <gpio_init+0x62>
D:\1.intelligent vehicle\new try\seefree\Seekfree_CH32V103R8T6_Opensource_Library\obj/../Libraries/seekfree_libraries/zf_gpio.c:48 (discriminator 1)
    if(0 == (pin >> 5))      RCC_APB2PeriphClockCmd(RCC_APB2Periph_GPIOA, ENABLE);
    1c12:	4585                	li	a1,1
    1c14:	4511                	li	a0,4
    1c16:	e99fe0ef          	jal	ra,aae <RCC_APB2PeriphClockCmd>
D:\1.intelligent vehicle\new try\seefree\Seekfree_CH32V103R8T6_Opensource_Library\obj/../Libraries/seekfree_libraries/zf_gpio.c:58


    //设置引脚号
    GPIO_InitStructure.GPIO_Pin = (uint16)(1 << io_pin);
    1c1a:	4785                	li	a5,1
    1c1c:	00879433          	sll	s0,a5,s0
    1c20:	0442                	slli	s0,s0,0x10
    1c22:	8041                	srli	s0,s0,0x10
    1c24:	00811223          	sh	s0,4(sp)
D:\1.intelligent vehicle\new try\seefree\Seekfree_CH32V103R8T6_Opensource_Library\obj/../Libraries/seekfree_libraries/zf_gpio.c:60

    if(GPO == dir)
    1c28:	06f48363          	beq	s1,a5,1c8e <gpio_init+0xd6>
D:\1.intelligent vehicle\new try\seefree\Seekfree_CH32V103R8T6_Opensource_Library\obj/../Libraries/seekfree_libraries/zf_gpio.c:68
        if((uint16)pinconf >> 8 == 0) GPIO_InitStructure.GPIO_Speed = (GPIOSpeed_TypeDef)(GPIO_Speed_50MHz);  //防止没有填写这个参数,默认设置50Mhz
        else GPIO_InitStructure.GPIO_Speed = (GPIOSpeed_TypeDef)((uint16)pinconf >> 8);                       //已经填写了该参数。根据值来设置
    }

    //设置模式
    GPIO_InitStructure.GPIO_Mode = (GPIOMode_TypeDef)((uint16)pinconf & 0xff);
    1c2c:	0ffa7693          	andi	a3,s4,255
    1c30:	c636                	sw	a3,12(sp)
D:\1.intelligent vehicle\new try\seefree\Seekfree_CH32V103R8T6_Opensource_Library\obj/../Libraries/seekfree_libraries/zf_gpio.c:69
    GPIO_Init((GPIO_TypeDef *)(GPION[io_group]), &GPIO_InitStructure);
    1c32:	00291713          	slli	a4,s2,0x2
    1c36:	6799                	lui	a5,0x6
    1c38:	c5478793          	addi	a5,a5,-940 # 5c54 <GPION>
    1c3c:	97ba                	add	a5,a5,a4
    1c3e:	004c                	addi	a1,sp,4
    1c40:	4388                	lw	a0,0(a5)
    1c42:	b21fe0ef          	jal	ra,762 <GPIO_Init>
D:\1.intelligent vehicle\new try\seefree\Seekfree_CH32V103R8T6_Opensource_Library\obj/../Libraries/seekfree_libraries/zf_gpio.c:76
    if(GPO == dir)
    {
        //只有输出需要设置引脚状态
        GPIO_WriteBit((GPIO_TypeDef *)(GPION[io_group]), (uint16)(1 << io_pin), dat);
    }
}
    1c46:	50b2                	lw	ra,44(sp)
    1c48:	5422                	lw	s0,40(sp)
    1c4a:	5492                	lw	s1,36(sp)
    1c4c:	5902                	lw	s2,32(sp)
    1c4e:	49f2                	lw	s3,28(sp)
    1c50:	4a62                	lw	s4,24(sp)
    1c52:	6145                	addi	sp,sp,48
    1c54:	8082                	ret
D:\1.intelligent vehicle\new try\seefree\Seekfree_CH32V103R8T6_Opensource_Library\obj/../Libraries/seekfree_libraries/zf_gpio.c:49 (discriminator 1)
    else if(1 == (pin >> 5)) RCC_APB2PeriphClockCmd(RCC_APB2Periph_GPIOB, ENABLE);
    1c56:	4585                	li	a1,1
    1c58:	4521                	li	a0,8
    1c5a:	e55fe0ef          	jal	ra,aae <RCC_APB2PeriphClockCmd>
    1c5e:	bf75                	j	1c1a <gpio_init+0x62>
D:\1.intelligent vehicle\new try\seefree\Seekfree_CH32V103R8T6_Opensource_Library\obj/../Libraries/seekfree_libraries/zf_gpio.c:50 (discriminator 1)
    else if(2 == (pin >> 5)) RCC_APB2PeriphClockCmd(RCC_APB2Periph_GPIOC, ENABLE);
    1c60:	4585                	li	a1,1
    1c62:	4541                	li	a0,16
    1c64:	e4bfe0ef          	jal	ra,aae <RCC_APB2PeriphClockCmd>
    1c68:	bf4d                	j	1c1a <gpio_init+0x62>
D:\1.intelligent vehicle\new try\seefree\Seekfree_CH32V103R8T6_Opensource_Library\obj/../Libraries/seekfree_libraries/zf_gpio.c:51 (discriminator 1)
    else if(3 == (pin >> 5)) RCC_APB2PeriphClockCmd(RCC_APB2Periph_GPIOD, ENABLE);
    1c6a:	4585                	li	a1,1
    1c6c:	02000513          	li	a0,32
    1c70:	e3ffe0ef          	jal	ra,aae <RCC_APB2PeriphClockCmd>
    1c74:	b75d                	j	1c1a <gpio_init+0x62>
D:\1.intelligent vehicle\new try\seefree\Seekfree_CH32V103R8T6_Opensource_Library\obj/../Libraries/seekfree_libraries/zf_gpio.c:52 (discriminator 1)
    else if(4 == (pin >> 5)) RCC_APB2PeriphClockCmd(RCC_APB2Periph_GPIOE, ENABLE);
    1c76:	4585                	li	a1,1
    1c78:	04000513          	li	a0,64
    1c7c:	e33fe0ef          	jal	ra,aae <RCC_APB2PeriphClockCmd>
    1c80:	bf69                	j	1c1a <gpio_init+0x62>
D:\1.intelligent vehicle\new try\seefree\Seekfree_CH32V103R8T6_Opensource_Library\obj/../Libraries/seekfree_libraries/zf_gpio.c:53 (discriminator 1)
    else if(5 == (pin >> 5)) RCC_APB2PeriphClockCmd(RCC_APB2Periph_GPIOF, ENABLE);
    1c82:	4585                	li	a1,1
    1c84:	08000513          	li	a0,128
    1c88:	e27fe0ef          	jal	ra,aae <RCC_APB2PeriphClockCmd>
    1c8c:	b779                	j	1c1a <gpio_init+0x62>
D:\1.intelligent vehicle\new try\seefree\Seekfree_CH32V103R8T6_Opensource_Library\obj/../Libraries/seekfree_libraries/zf_gpio.c:63
        if((uint16)pinconf >> 8 == 0) GPIO_InitStructure.GPIO_Speed = (GPIOSpeed_TypeDef)(GPIO_Speed_50MHz);  //防止没有填写这个参数,默认设置50Mhz
    1c8e:	010a1793          	slli	a5,s4,0x10
    1c92:	83c1                	srli	a5,a5,0x10
    1c94:	83a1                	srli	a5,a5,0x8
    1c96:	e79d                	bnez	a5,1cc4 <gpio_init+0x10c>
D:\1.intelligent vehicle\new try\seefree\Seekfree_CH32V103R8T6_Opensource_Library\obj/../Libraries/seekfree_libraries/zf_gpio.c:63 (discriminator 1)
    1c98:	478d                	li	a5,3
    1c9a:	c43e                	sw	a5,8(sp)
D:\1.intelligent vehicle\new try\seefree\Seekfree_CH32V103R8T6_Opensource_Library\obj/../Libraries/seekfree_libraries/zf_gpio.c:68
    GPIO_InitStructure.GPIO_Mode = (GPIOMode_TypeDef)((uint16)pinconf & 0xff);
    1c9c:	0ffa7693          	andi	a3,s4,255
    1ca0:	c636                	sw	a3,12(sp)
D:\1.intelligent vehicle\new try\seefree\Seekfree_CH32V103R8T6_Opensource_Library\obj/../Libraries/seekfree_libraries/zf_gpio.c:69
    GPIO_Init((GPIO_TypeDef *)(GPION[io_group]), &GPIO_InitStructure);
    1ca2:	00291713          	slli	a4,s2,0x2
    1ca6:	6699                	lui	a3,0x6
    1ca8:	c5468693          	addi	a3,a3,-940 # 5c54 <GPION>
    1cac:	9736                	add	a4,a4,a3
    1cae:	4304                	lw	s1,0(a4)
    1cb0:	004c                	addi	a1,sp,4
    1cb2:	8526                	mv	a0,s1
    1cb4:	aaffe0ef          	jal	ra,762 <GPIO_Init>
D:\1.intelligent vehicle\new try\seefree\Seekfree_CH32V103R8T6_Opensource_Library\obj/../Libraries/seekfree_libraries/zf_gpio.c:74
        GPIO_WriteBit((GPIO_TypeDef *)(GPION[io_group]), (uint16)(1 << io_pin), dat);
    1cb8:	864e                	mv	a2,s3
    1cba:	85a2                	mv	a1,s0
    1cbc:	8526                	mv	a0,s1
    1cbe:	b6ffe0ef          	jal	ra,82c <GPIO_WriteBit>
    1cc2:	b751                	j	1c46 <gpio_init+0x8e>
D:\1.intelligent vehicle\new try\seefree\Seekfree_CH32V103R8T6_Opensource_Library\obj/../Libraries/seekfree_libraries/zf_gpio.c:64
        else GPIO_InitStructure.GPIO_Speed = (GPIOSpeed_TypeDef)((uint16)pinconf >> 8);                       //已经填写了该参数。根据值来设置
    1cc4:	c43e                	sw	a5,8(sp)
    1cc6:	bfd9                	j	1c9c <gpio_init+0xe4>
    1cc8:	8082                	ret

00001cca <gpio_set>:
gpio_set():
D:\1.intelligent vehicle\new try\seefree\Seekfree_CH32V103R8T6_Opensource_Library\obj/../Libraries/seekfree_libraries/zf_gpio.c:87
//  @return     void
//  Sample usage:           gpio_set(D0, 0);//D0输出低电平
//-------------------------------------------------------------------------------------------------------------------
void gpio_set(PIN_enum pin, uint8 dat)
{
    uint8 io_group = (pin & 0xE0) >> 5;
    1cca:	00555793          	srli	a5,a0,0x5
    1cce:	8b9d                	andi	a5,a5,7
D:\1.intelligent vehicle\new try\seefree\Seekfree_CH32V103R8T6_Opensource_Library\obj/../Libraries/seekfree_libraries/zf_gpio.c:88
    uint8 io_pin = pin & 0x1F;
    1cd0:	897d                	andi	a0,a0,31
D:\1.intelligent vehicle\new try\seefree\Seekfree_CH32V103R8T6_Opensource_Library\obj/../Libraries/seekfree_libraries/zf_gpio.c:90

    if (dat == 1)
    1cd2:	4705                	li	a4,1
    1cd4:	00e58d63          	beq	a1,a4,1cee <gpio_set+0x24>
D:\1.intelligent vehicle\new try\seefree\Seekfree_CH32V103R8T6_Opensource_Library\obj/../Libraries/seekfree_libraries/zf_gpio.c:93
         ((GPIO_TypeDef *)(GPION[io_group]))->BSHR = 1 << io_pin;
    else
         ((GPIO_TypeDef *)(GPION[io_group]))->BCR = 1 << io_pin;
    1cd8:	078a                	slli	a5,a5,0x2
    1cda:	6719                	lui	a4,0x6
    1cdc:	c5470713          	addi	a4,a4,-940 # 5c54 <GPION>
    1ce0:	97ba                	add	a5,a5,a4
    1ce2:	4398                	lw	a4,0(a5)
    1ce4:	4785                	li	a5,1
    1ce6:	00a79533          	sll	a0,a5,a0
    1cea:	cb48                	sw	a0,20(a4)
D:\1.intelligent vehicle\new try\seefree\Seekfree_CH32V103R8T6_Opensource_Library\obj/../Libraries/seekfree_libraries/zf_gpio.c:94
}
    1cec:	8082                	ret
D:\1.intelligent vehicle\new try\seefree\Seekfree_CH32V103R8T6_Opensource_Library\obj/../Libraries/seekfree_libraries/zf_gpio.c:91
         ((GPIO_TypeDef *)(GPION[io_group]))->BSHR = 1 << io_pin;
    1cee:	078a                	slli	a5,a5,0x2
    1cf0:	6719                	lui	a4,0x6
    1cf2:	c5470713          	addi	a4,a4,-940 # 5c54 <GPION>
    1cf6:	97ba                	add	a5,a5,a4
    1cf8:	4398                	lw	a4,0(a5)
    1cfa:	4785                	li	a5,1
    1cfc:	00a79533          	sll	a0,a5,a0
    1d00:	cb08                	sw	a0,16(a4)
    1d02:	8082                	ret

00001d04 <gpio_get>:
gpio_get():
D:\1.intelligent vehicle\new try\seefree\Seekfree_CH32V103R8T6_Opensource_Library\obj/../Libraries/seekfree_libraries/zf_gpio.c:107
uint8 gpio_get(PIN_enum pin)
{
    uint8 io_group = (pin & 0xE0) >> 5;
    uint8 io_pin = pin & 0x1F;

    if((((GPIO_TypeDef *)(GPION[io_group]))->INDR & (1 << io_pin)) != 0)
    1d04:	00355713          	srli	a4,a0,0x3
    1d08:	01c77693          	andi	a3,a4,28
    1d0c:	6719                	lui	a4,0x6
    1d0e:	c5470713          	addi	a4,a4,-940 # 5c54 <GPION>
    1d12:	9736                	add	a4,a4,a3
    1d14:	431c                	lw	a5,0(a4)
    1d16:	4798                	lw	a4,8(a5)
    1d18:	4785                	li	a5,1
    1d1a:	00a79533          	sll	a0,a5,a0
    1d1e:	8d79                	and	a0,a0,a4
D:\1.intelligent vehicle\new try\seefree\Seekfree_CH32V103R8T6_Opensource_Library\obj/../Libraries/seekfree_libraries/zf_gpio.c:114
        return 1;
    }
    return 0;


}
    1d20:	00a03533          	snez	a0,a0
    1d24:	8082                	ret

00001d26 <gpio_interrupt_init>:
gpio_interrupt_init():
D:\1.intelligent vehicle\new try\seefree\Seekfree_CH32V103R8T6_Opensource_Library\obj/../Libraries/seekfree_libraries/zf_gpio.c:141
//  @param      trigger     中断触发方式 选择范围参见h文件TRIGGER_enum枚举
//  @return     void
//  Sample usage:           gpio_interrupt_init(D0, RISING, GPIO_INT_CONFIG);//D0上升沿中断
//-------------------------------------------------------------------------------------------------------------------
void gpio_interrupt_init(PIN_enum pin,TRIGGER_enum trigger, uint32 pinconf)
{
    1d26:	1101                	addi	sp,sp,-32
    1d28:	ce06                	sw	ra,28(sp)
    1d2a:	cc22                	sw	s0,24(sp)
    1d2c:	ca26                	sw	s1,20(sp)
    1d2e:	c84a                	sw	s2,16(sp)
    1d30:	842a                	mv	s0,a0
    1d32:	84ae                	mv	s1,a1
    1d34:	8932                	mv	s2,a2
D:\1.intelligent vehicle\new try\seefree\Seekfree_CH32V103R8T6_Opensource_Library\obj/../Libraries/seekfree_libraries/zf_gpio.c:143
    EXTI_InitTypeDef EXTI_InitStructure;
    RCC_APB2PeriphClockCmd(RCC_APB2Periph_AFIO,ENABLE);
    1d36:	4585                	li	a1,1
    1d38:	4505                	li	a0,1
    1d3a:	d75fe0ef          	jal	ra,aae <RCC_APB2PeriphClockCmd>
D:\1.intelligent vehicle\new try\seefree\Seekfree_CH32V103R8T6_Opensource_Library\obj/../Libraries/seekfree_libraries/zf_gpio.c:144
    gpio_init(pin, GPI, 0, pinconf);
    1d3e:	86ca                	mv	a3,s2
    1d40:	4601                	li	a2,0
    1d42:	4581                	li	a1,0
    1d44:	8522                	mv	a0,s0
    1d46:	3d8d                	jal	1bb8 <gpio_init>
D:\1.intelligent vehicle\new try\seefree\Seekfree_CH32V103R8T6_Opensource_Library\obj/../Libraries/seekfree_libraries/zf_gpio.c:145
    GPIO_EXTILineConfig(pin >> 5, pin & 0x1F);              //引脚中断号配置
    1d48:	00545513          	srli	a0,s0,0x5
    1d4c:	01f47593          	andi	a1,s0,31
    1d50:	0ff57513          	andi	a0,a0,255
    1d54:	b7dfe0ef          	jal	ra,8d0 <GPIO_EXTILineConfig>
D:\1.intelligent vehicle\new try\seefree\Seekfree_CH32V103R8T6_Opensource_Library\obj/../Libraries/seekfree_libraries/zf_gpio.c:146
    EXTI_InitStructure.EXTI_Line = 1 << (pin & 0x1F);       //引脚号配置
    1d58:	4785                	li	a5,1
    1d5a:	00879433          	sll	s0,a5,s0
    1d5e:	c022                	sw	s0,0(sp)
D:\1.intelligent vehicle\new try\seefree\Seekfree_CH32V103R8T6_Opensource_Library\obj/../Libraries/seekfree_libraries/zf_gpio.c:147
    EXTI_InitStructure.EXTI_Mode = EXTI_Mode_Interrupt;     //触发模式
    1d60:	c202                	sw	zero,4(sp)
D:\1.intelligent vehicle\new try\seefree\Seekfree_CH32V103R8T6_Opensource_Library\obj/../Libraries/seekfree_libraries/zf_gpio.c:148
    EXTI_InitStructure.EXTI_Trigger = trigger;              //触发方式
    1d62:	c426                	sw	s1,8(sp)
D:\1.intelligent vehicle\new try\seefree\Seekfree_CH32V103R8T6_Opensource_Library\obj/../Libraries/seekfree_libraries/zf_gpio.c:149
    EXTI_InitStructure.EXTI_LineCmd = ENABLE;               //使能或者失能
    1d64:	c63e                	sw	a5,12(sp)
D:\1.intelligent vehicle\new try\seefree\Seekfree_CH32V103R8T6_Opensource_Library\obj/../Libraries/seekfree_libraries/zf_gpio.c:150
    EXTI_Init(&EXTI_InitStructure);
    1d66:	850a                	mv	a0,sp
    1d68:	933fe0ef          	jal	ra,69a <EXTI_Init>
D:\1.intelligent vehicle\new try\seefree\Seekfree_CH32V103R8T6_Opensource_Library\obj/../Libraries/seekfree_libraries/zf_gpio.c:151
}
    1d6c:	40f2                	lw	ra,28(sp)
    1d6e:	4462                	lw	s0,24(sp)
    1d70:	44d2                	lw	s1,20(sp)
    1d72:	4942                	lw	s2,16(sp)
    1d74:	6105                	addi	sp,sp,32
    1d76:	8082                	ret

00001d78 <close_all_irq>:
close_all_irq():
D:\1.intelligent vehicle\new try\seefree\Seekfree_CH32V103R8T6_Opensource_Library\obj/../Libraries/seekfree_libraries/zf_nvic.c:65
//  Sample usage:
//-------------------------------------------------------------------------------------------------------------------
void close_all_irq(void)
{
    //写1，清空状态
    PFIC->IRER[0] = 0xffffffff;
    1d78:	e000e7b7          	lui	a5,0xe000e
    1d7c:	577d                	li	a4,-1
    1d7e:	18e7a023          	sw	a4,384(a5) # e000e180 <_eusrstack+0xc0009180>
D:\1.intelligent vehicle\new try\seefree\Seekfree_CH32V103R8T6_Opensource_Library\obj/../Libraries/seekfree_libraries/zf_nvic.c:66
    PFIC->IRER[1] = 0xffffffff;
    1d82:	18e7a223          	sw	a4,388(a5)
D:\1.intelligent vehicle\new try\seefree\Seekfree_CH32V103R8T6_Opensource_Library\obj/../Libraries/seekfree_libraries/zf_nvic.c:67
}
    1d86:	8082                	ret

00001d88 <nvic_init>:
nvic_init():
D:\1.intelligent vehicle\new try\seefree\Seekfree_CH32V103R8T6_Opensource_Library\obj/../Libraries/seekfree_libraries/zf_nvic.c:38
{
    1d88:	1101                	addi	sp,sp,-32
    1d8a:	ce06                	sw	ra,28(sp)
D:\1.intelligent vehicle\new try\seefree\Seekfree_CH32V103R8T6_Opensource_Library\obj/../Libraries/seekfree_libraries/zf_nvic.c:41
    NVIC_InitStructure.NVIC_IRQChannel = irqn;                                  //中断号设置
    1d8c:	00a10423          	sb	a0,8(sp)
D:\1.intelligent vehicle\new try\seefree\Seekfree_CH32V103R8T6_Opensource_Library\obj/../Libraries/seekfree_libraries/zf_nvic.c:42
    NVIC_InitStructure.NVIC_IRQChannelPreemptionPriority=preemption_priority;   //抢占优先级值越小，优先级越高
    1d90:	00b104a3          	sb	a1,9(sp)
D:\1.intelligent vehicle\new try\seefree\Seekfree_CH32V103R8T6_Opensource_Library\obj/../Libraries/seekfree_libraries/zf_nvic.c:43
    NVIC_InitStructure.NVIC_IRQChannelSubPriority = sub_priority;               //次优先级值越小，优先级越高
    1d94:	00c10523          	sb	a2,10(sp)
D:\1.intelligent vehicle\new try\seefree\Seekfree_CH32V103R8T6_Opensource_Library\obj/../Libraries/seekfree_libraries/zf_nvic.c:44
    NVIC_InitStructure.NVIC_IRQChannelCmd = status;                             //使能
    1d98:	c636                	sw	a3,12(sp)
D:\1.intelligent vehicle\new try\seefree\Seekfree_CH32V103R8T6_Opensource_Library\obj/../Libraries/seekfree_libraries/zf_nvic.c:45
    NVIC_Init(&NVIC_InitStructure);
    1d9a:	0028                	addi	a0,sp,8
    1d9c:	b61fe0ef          	jal	ra,8fc <NVIC_Init>
D:\1.intelligent vehicle\new try\seefree\Seekfree_CH32V103R8T6_Opensource_Library\obj/../Libraries/seekfree_libraries/zf_nvic.c:48
    irq_status.ienr0 |= (PFIC->ISR[0] & 0xFFFFF000);    //[31:12]
    1da0:	e000e637          	lui	a2,0xe000e
    1da4:	4218                	lw	a4,0(a2)
    1da6:	76fd                	lui	a3,0xfffff
    1da8:	8ef9                	and	a3,a3,a4
    1daa:	8f81a703          	lw	a4,-1800(gp) # 20000168 <irq_status>
    1dae:	8f55                	or	a4,a4,a3
    1db0:	8ee1ac23          	sw	a4,-1800(gp) # 20000168 <irq_status>
D:\1.intelligent vehicle\new try\seefree\Seekfree_CH32V103R8T6_Opensource_Library\obj/../Libraries/seekfree_libraries/zf_nvic.c:49
    irq_status.ienr1 |= (PFIC->ISR[1] & 0x0FFFFFFF);    //[27:0]
    1db4:	4258                	lw	a4,4(a2)
    1db6:	8f818793          	addi	a5,gp,-1800 # 20000168 <irq_status>
    1dba:	0712                	slli	a4,a4,0x4
    1dbc:	8311                	srli	a4,a4,0x4
    1dbe:	43d4                	lw	a3,4(a5)
    1dc0:	8f55                	or	a4,a4,a3
    1dc2:	c3d8                	sw	a4,4(a5)
D:\1.intelligent vehicle\new try\seefree\Seekfree_CH32V103R8T6_Opensource_Library\obj/../Libraries/seekfree_libraries/zf_nvic.c:50
    if(irq_status.flag == 1)
    1dc4:	0087c703          	lbu	a4,8(a5)
    1dc8:	4785                	li	a5,1
    1dca:	00f70563          	beq	a4,a5,1dd4 <nvic_init+0x4c>
D:\1.intelligent vehicle\new try\seefree\Seekfree_CH32V103R8T6_Opensource_Library\obj/../Libraries/seekfree_libraries/zf_nvic.c:54
}
    1dce:	40f2                	lw	ra,28(sp)
    1dd0:	6105                	addi	sp,sp,32
    1dd2:	8082                	ret
D:\1.intelligent vehicle\new try\seefree\Seekfree_CH32V103R8T6_Opensource_Library\obj/../Libraries/seekfree_libraries/zf_nvic.c:52
        close_all_irq();
    1dd4:	3755                	jal	1d78 <close_all_irq>
D:\1.intelligent vehicle\new try\seefree\Seekfree_CH32V103R8T6_Opensource_Library\obj/../Libraries/seekfree_libraries/zf_nvic.c:54
}
    1dd6:	bfe5                	j	1dce <nvic_init+0x46>

00001dd8 <sys_recover_irq>:
sys_recover_irq():
D:\1.intelligent vehicle\new try\seefree\Seekfree_CH32V103R8T6_Opensource_Library\obj/../Libraries/seekfree_libraries/zf_nvic.c:78
//  @since      v1.0
//  Sample usage:
//-------------------------------------------------------------------------------------------------------------------
void sys_recover_irq(void)
{
    PFIC->IENR[0] = irq_status.ienr0;
    1dd8:	8f81a683          	lw	a3,-1800(gp) # 20000168 <irq_status>
    1ddc:	e000e737          	lui	a4,0xe000e
    1de0:	10d72023          	sw	a3,256(a4) # e000e100 <_eusrstack+0xc0009100>
D:\1.intelligent vehicle\new try\seefree\Seekfree_CH32V103R8T6_Opensource_Library\obj/../Libraries/seekfree_libraries/zf_nvic.c:79
    PFIC->IENR[1] = irq_status.ienr1;
    1de4:	8f818793          	addi	a5,gp,-1800 # 20000168 <irq_status>
    1de8:	43dc                	lw	a5,4(a5)
    1dea:	10f72223          	sw	a5,260(a4)
D:\1.intelligent vehicle\new try\seefree\Seekfree_CH32V103R8T6_Opensource_Library\obj/../Libraries/seekfree_libraries/zf_nvic.c:80
}
    1dee:	8082                	ret

00001df0 <DisableGlobalIRQ>:
DisableGlobalIRQ():
D:\1.intelligent vehicle\new try\seefree\Seekfree_CH32V103R8T6_Opensource_Library\obj/../Libraries/seekfree_libraries/zf_nvic.c:90
//  @return     void
//  @since      v1.0
//  Sample usage:
//-------------------------------------------------------------------------------------------------------------------
uint8 DisableGlobalIRQ(void)
{
    1df0:	1141                	addi	sp,sp,-16
    1df2:	c606                	sw	ra,12(sp)
    1df4:	c422                	sw	s0,8(sp)
D:\1.intelligent vehicle\new try\seefree\Seekfree_CH32V103R8T6_Opensource_Library\obj/../Libraries/seekfree_libraries/zf_nvic.c:92
    uint8 state;
    irq_status.flag = 1;
    1df6:	8f818793          	addi	a5,gp,-1800 # 20000168 <irq_status>
    1dfa:	4685                	li	a3,1
    1dfc:	00d78423          	sb	a3,8(a5)
D:\1.intelligent vehicle\new try\seefree\Seekfree_CH32V103R8T6_Opensource_Library\obj/../Libraries/seekfree_libraries/zf_nvic.c:93
    if((irq_status.ienr0 == 0) && (irq_status.ienr1 == 0))   state = 0;  //没有就返回0
    1e00:	8f81a403          	lw	s0,-1800(gp) # 20000168 <irq_status>
    1e04:	43dc                	lw	a5,4(a5)
    1e06:	8c5d                	or	s0,s0,a5
    1e08:	00803433          	snez	s0,s0
D:\1.intelligent vehicle\new try\seefree\Seekfree_CH32V103R8T6_Opensource_Library\obj/../Libraries/seekfree_libraries/zf_nvic.c:95
    else state = 1;  //有中断就返回1
    close_all_irq();
    1e0c:	37b5                	jal	1d78 <close_all_irq>
D:\1.intelligent vehicle\new try\seefree\Seekfree_CH32V103R8T6_Opensource_Library\obj/../Libraries/seekfree_libraries/zf_nvic.c:97
    return state;
}
    1e0e:	8522                	mv	a0,s0
    1e10:	40b2                	lw	ra,12(sp)
    1e12:	4422                	lw	s0,8(sp)
    1e14:	0141                	addi	sp,sp,16
    1e16:	8082                	ret

00001e18 <EnableGlobalIRQ>:
EnableGlobalIRQ():
D:\1.intelligent vehicle\new try\seefree\Seekfree_CH32V103R8T6_Opensource_Library\obj/../Libraries/seekfree_libraries/zf_nvic.c:108
//  @since      v1.0
//  Sample usage:
//-------------------------------------------------------------------------------------------------------------------
void EnableGlobalIRQ(uint8 state)
{
    if(state == 0)
    1e18:	c111                	beqz	a0,1e1c <EnableGlobalIRQ+0x4>
    1e1a:	8082                	ret
D:\1.intelligent vehicle\new try\seefree\Seekfree_CH32V103R8T6_Opensource_Library\obj/../Libraries/seekfree_libraries/zf_nvic.c:107
{
    1e1c:	1141                	addi	sp,sp,-16
    1e1e:	c606                	sw	ra,12(sp)
D:\1.intelligent vehicle\new try\seefree\Seekfree_CH32V103R8T6_Opensource_Library\obj/../Libraries/seekfree_libraries/zf_nvic.c:110
    {
        irq_status.flag = 0;
    1e20:	90018023          	sb	zero,-1792(gp) # 20000170 <irq_status+0x8>
D:\1.intelligent vehicle\new try\seefree\Seekfree_CH32V103R8T6_Opensource_Library\obj/../Libraries/seekfree_libraries/zf_nvic.c:111
        sys_recover_irq();
    1e24:	3f55                	jal	1dd8 <sys_recover_irq>
D:\1.intelligent vehicle\new try\seefree\Seekfree_CH32V103R8T6_Opensource_Library\obj/../Libraries/seekfree_libraries/zf_nvic.c:113
    }
}
    1e26:	40b2                	lw	ra,12(sp)
    1e28:	0141                	addi	sp,sp,16
    1e2a:	8082                	ret

00001e2c <pwm_gpio_init>:
pwm_gpio_init():
D:\1.intelligent vehicle\new try\seefree\Seekfree_CH32V103R8T6_Opensource_Library\obj/../Libraries/seekfree_libraries/zf_pwm.c:35
//  @param      pwmch       PWM通道(可选择范围由zf_pwm.h内PWMCH_enum枚举值确定)
//  @return     void
//  Sample usage:           内部使用  用户无需关心
//-------------------------------------------------------------------------------------------------------------------
void pwm_gpio_init(PWMCH_enum pwmch)
{
    1e2c:	1141                	addi	sp,sp,-16
    1e2e:	c606                	sw	ra,12(sp)
D:\1.intelligent vehicle\new try\seefree\Seekfree_CH32V103R8T6_Opensource_Library\obj/../Libraries/seekfree_libraries/zf_pwm.c:36
    switch(pwmch)
    1e30:	20000793          	li	a5,512
    1e34:	1ef50163          	beq	a0,a5,2016 <pwm_gpio_init+0x1ea>
    1e38:	04a7f163          	bgeu	a5,a0,1e7a <pwm_gpio_init+0x4e>
    1e3c:	21300793          	li	a5,531
    1e40:	22f50663          	beq	a0,a5,206c <pwm_gpio_init+0x240>
    1e44:	0ea7eb63          	bltu	a5,a0,1f3a <pwm_gpio_init+0x10e>
    1e48:	20300793          	li	a5,515
    1e4c:	1ef50563          	beq	a0,a5,2036 <pwm_gpio_init+0x20a>
    1e50:	0ca7f463          	bgeu	a5,a0,1f18 <pwm_gpio_init+0xec>
    1e54:	21100793          	li	a5,529
    1e58:	1ef50863          	beq	a0,a5,2048 <pwm_gpio_init+0x21c>
    1e5c:	1ea7ef63          	bltu	a5,a0,205a <pwm_gpio_init+0x22e>
    1e60:	21000793          	li	a5,528
    1e64:	12f51c63          	bne	a0,a5,1f9c <pwm_gpio_init+0x170>
D:\1.intelligent vehicle\new try\seefree\Seekfree_CH32V103R8T6_Opensource_Library\obj/../Libraries/seekfree_libraries/zf_pwm.c:112
        case PWM3_CH4_B1:
            gpio_init(B1, GPO, 0, SPEED_50MHZ|OUT_AF_PP);
            break;

        case PWM3_CH1_C6:
            gpio_init(C6, GPO, 0, SPEED_50MHZ|OUT_AF_PP);
    1e68:	31800693          	li	a3,792
    1e6c:	4601                	li	a2,0
    1e6e:	4585                	li	a1,1
    1e70:	04600513          	li	a0,70
    1e74:	d45ff0ef          	jal	ra,1bb8 <gpio_init>
D:\1.intelligent vehicle\new try\seefree\Seekfree_CH32V103R8T6_Opensource_Library\obj/../Libraries/seekfree_libraries/zf_pwm.c:113
            break;
    1e78:	a215                	j	1f9c <pwm_gpio_init+0x170>
    1e7a:	10100793          	li	a5,257
    1e7e:	14f50263          	beq	a0,a5,1fc2 <pwm_gpio_init+0x196>
    1e82:	02a7fb63          	bgeu	a5,a0,1eb8 <pwm_gpio_init+0x8c>
    1e86:	11000793          	li	a5,272
    1e8a:	14f50c63          	beq	a0,a5,1fe2 <pwm_gpio_init+0x1b6>
    1e8e:	06a7f563          	bgeu	a5,a0,1ef8 <pwm_gpio_init+0xcc>
    1e92:	11200793          	li	a5,274
    1e96:	16f50763          	beq	a0,a5,2004 <pwm_gpio_init+0x1d8>
    1e9a:	14f56c63          	bltu	a0,a5,1ff2 <pwm_gpio_init+0x1c6>
    1e9e:	11300793          	li	a5,275
    1ea2:	0ef51d63          	bne	a0,a5,1f9c <pwm_gpio_init+0x170>
D:\1.intelligent vehicle\new try\seefree\Seekfree_CH32V103R8T6_Opensource_Library\obj/../Libraries/seekfree_libraries/zf_pwm.c:95
            gpio_init(B11, GPO, 0, SPEED_50MHZ|OUT_AF_PP);
    1ea6:	31800693          	li	a3,792
    1eaa:	4601                	li	a2,0
    1eac:	4585                	li	a1,1
    1eae:	02b00513          	li	a0,43
    1eb2:	d07ff0ef          	jal	ra,1bb8 <gpio_init>
D:\1.intelligent vehicle\new try\seefree\Seekfree_CH32V103R8T6_Opensource_Library\obj/../Libraries/seekfree_libraries/zf_pwm.c:96
            break;
    1eb6:	a0dd                	j	1f9c <pwm_gpio_init+0x170>
    1eb8:	4789                	li	a5,2
    1eba:	0ef50463          	beq	a0,a5,1fa2 <pwm_gpio_init+0x176>
    1ebe:	02a7f163          	bgeu	a5,a0,1ee0 <pwm_gpio_init+0xb4>
    1ec2:	478d                	li	a5,3
    1ec4:	0ef50763          	beq	a0,a5,1fb2 <pwm_gpio_init+0x186>
    1ec8:	10000793          	li	a5,256
    1ecc:	0cf51863          	bne	a0,a5,1f9c <pwm_gpio_init+0x170>
D:\1.intelligent vehicle\new try\seefree\Seekfree_CH32V103R8T6_Opensource_Library\obj/../Libraries/seekfree_libraries/zf_pwm.c:73
            gpio_init(A0, GPO, 0, SPEED_50MHZ|OUT_AF_PP);
    1ed0:	31800693          	li	a3,792
    1ed4:	4601                	li	a2,0
    1ed6:	4585                	li	a1,1
    1ed8:	4501                	li	a0,0
    1eda:	cdfff0ef          	jal	ra,1bb8 <gpio_init>
D:\1.intelligent vehicle\new try\seefree\Seekfree_CH32V103R8T6_Opensource_Library\obj/../Libraries/seekfree_libraries/zf_pwm.c:74
            break;
    1ede:	a87d                	j	1f9c <pwm_gpio_init+0x170>
    1ee0:	c55d                	beqz	a0,1f8e <pwm_gpio_init+0x162>
    1ee2:	4785                	li	a5,1
    1ee4:	0af51c63          	bne	a0,a5,1f9c <pwm_gpio_init+0x170>
D:\1.intelligent vehicle\new try\seefree\Seekfree_CH32V103R8T6_Opensource_Library\obj/../Libraries/seekfree_libraries/zf_pwm.c:43
            gpio_init(A9, GPO, 0, SPEED_50MHZ|OUT_AF_PP);
    1ee8:	31800693          	li	a3,792
    1eec:	4601                	li	a2,0
    1eee:	4585                	li	a1,1
    1ef0:	4525                	li	a0,9
    1ef2:	cc7ff0ef          	jal	ra,1bb8 <gpio_init>
D:\1.intelligent vehicle\new try\seefree\Seekfree_CH32V103R8T6_Opensource_Library\obj/../Libraries/seekfree_libraries/zf_pwm.c:44
            break;
    1ef6:	a05d                	j	1f9c <pwm_gpio_init+0x170>
    1ef8:	10200793          	li	a5,258
    1efc:	0cf50b63          	beq	a0,a5,1fd2 <pwm_gpio_init+0x1a6>
    1f00:	10300793          	li	a5,259
    1f04:	08f51c63          	bne	a0,a5,1f9c <pwm_gpio_init+0x170>
D:\1.intelligent vehicle\new try\seefree\Seekfree_CH32V103R8T6_Opensource_Library\obj/../Libraries/seekfree_libraries/zf_pwm.c:82
            gpio_init(A3, GPO, 0, SPEED_50MHZ|OUT_AF_PP);
    1f08:	31800693          	li	a3,792
    1f0c:	4601                	li	a2,0
    1f0e:	4585                	li	a1,1
    1f10:	450d                	li	a0,3
    1f12:	ca7ff0ef          	jal	ra,1bb8 <gpio_init>
D:\1.intelligent vehicle\new try\seefree\Seekfree_CH32V103R8T6_Opensource_Library\obj/../Libraries/seekfree_libraries/zf_pwm.c:83
            break;
    1f16:	a059                	j	1f9c <pwm_gpio_init+0x170>
    1f18:	20100793          	li	a5,513
    1f1c:	10f50563          	beq	a0,a5,2026 <pwm_gpio_init+0x1fa>
    1f20:	20200793          	li	a5,514
    1f24:	06f51c63          	bne	a0,a5,1f9c <pwm_gpio_init+0x170>
D:\1.intelligent vehicle\new try\seefree\Seekfree_CH32V103R8T6_Opensource_Library\obj/../Libraries/seekfree_libraries/zf_pwm.c:105
            gpio_init(B0, GPO, 0, SPEED_50MHZ|OUT_AF_PP);
    1f28:	31800693          	li	a3,792
    1f2c:	4601                	li	a2,0
    1f2e:	4585                	li	a1,1
    1f30:	02000513          	li	a0,32
    1f34:	c85ff0ef          	jal	ra,1bb8 <gpio_init>
D:\1.intelligent vehicle\new try\seefree\Seekfree_CH32V103R8T6_Opensource_Library\obj/../Libraries/seekfree_libraries/zf_pwm.c:106
            break;
    1f38:	a095                	j	1f9c <pwm_gpio_init+0x170>
    1f3a:	30000793          	li	a5,768
    1f3e:	14f50963          	beq	a0,a5,2090 <pwm_gpio_init+0x264>
    1f42:	02a7f563          	bgeu	a5,a0,1f6c <pwm_gpio_init+0x140>
    1f46:	30200793          	li	a5,770
    1f4a:	16f50563          	beq	a0,a5,20b4 <pwm_gpio_init+0x288>
    1f4e:	14f56a63          	bltu	a0,a5,20a2 <pwm_gpio_init+0x276>
    1f52:	30300793          	li	a5,771
    1f56:	04f51363          	bne	a0,a5,1f9c <pwm_gpio_init+0x170>
D:\1.intelligent vehicle\new try\seefree\Seekfree_CH32V103R8T6_Opensource_Library\obj/../Libraries/seekfree_libraries/zf_pwm.c:141
            break;
        case PWM4_CH3_B8:
            gpio_init(B8, GPO, 0, SPEED_50MHZ|OUT_AF_PP);
            break;
        case PWM4_CH4_B9:
            gpio_init(B9, GPO, 0, SPEED_50MHZ|OUT_AF_PP);
    1f5a:	31800693          	li	a3,792
    1f5e:	4601                	li	a2,0
    1f60:	4585                	li	a1,1
    1f62:	02900513          	li	a0,41
    1f66:	c53ff0ef          	jal	ra,1bb8 <gpio_init>
D:\1.intelligent vehicle\new try\seefree\Seekfree_CH32V103R8T6_Opensource_Library\obj/../Libraries/seekfree_libraries/zf_pwm.c:147
            break;
        default:
            //断言
            break;
    }
}
    1f6a:	a80d                	j	1f9c <pwm_gpio_init+0x170>
    1f6c:	22000793          	li	a5,544
    1f70:	10f50763          	beq	a0,a5,207e <pwm_gpio_init+0x252>
    1f74:	22100793          	li	a5,545
    1f78:	02f51263          	bne	a0,a5,1f9c <pwm_gpio_init+0x170>
D:\1.intelligent vehicle\new try\seefree\Seekfree_CH32V103R8T6_Opensource_Library\obj/../Libraries/seekfree_libraries/zf_pwm.c:128
            gpio_init(B5, GPO, 0, SPEED_50MHZ|OUT_AF_PP);
    1f7c:	31800693          	li	a3,792
    1f80:	4601                	li	a2,0
    1f82:	4585                	li	a1,1
    1f84:	02500513          	li	a0,37
    1f88:	c31ff0ef          	jal	ra,1bb8 <gpio_init>
D:\1.intelligent vehicle\new try\seefree\Seekfree_CH32V103R8T6_Opensource_Library\obj/../Libraries/seekfree_libraries/zf_pwm.c:129
            break;
    1f8c:	a801                	j	1f9c <pwm_gpio_init+0x170>
D:\1.intelligent vehicle\new try\seefree\Seekfree_CH32V103R8T6_Opensource_Library\obj/../Libraries/seekfree_libraries/zf_pwm.c:40
            gpio_init(A8, GPO, 0, SPEED_50MHZ|OUT_AF_PP);
    1f8e:	31800693          	li	a3,792
    1f92:	4601                	li	a2,0
    1f94:	4585                	li	a1,1
    1f96:	4521                	li	a0,8
    1f98:	c21ff0ef          	jal	ra,1bb8 <gpio_init>
D:\1.intelligent vehicle\new try\seefree\Seekfree_CH32V103R8T6_Opensource_Library\obj/../Libraries/seekfree_libraries/zf_pwm.c:147
}
    1f9c:	40b2                	lw	ra,12(sp)
    1f9e:	0141                	addi	sp,sp,16
    1fa0:	8082                	ret
D:\1.intelligent vehicle\new try\seefree\Seekfree_CH32V103R8T6_Opensource_Library\obj/../Libraries/seekfree_libraries/zf_pwm.c:46
            gpio_init(A10, GPO, 0, SPEED_50MHZ|OUT_AF_PP);
    1fa2:	31800693          	li	a3,792
    1fa6:	4601                	li	a2,0
    1fa8:	4585                	li	a1,1
    1faa:	4529                	li	a0,10
    1fac:	c0dff0ef          	jal	ra,1bb8 <gpio_init>
D:\1.intelligent vehicle\new try\seefree\Seekfree_CH32V103R8T6_Opensource_Library\obj/../Libraries/seekfree_libraries/zf_pwm.c:47
            break;
    1fb0:	b7f5                	j	1f9c <pwm_gpio_init+0x170>
D:\1.intelligent vehicle\new try\seefree\Seekfree_CH32V103R8T6_Opensource_Library\obj/../Libraries/seekfree_libraries/zf_pwm.c:49
            gpio_init(A11, GPO, 0, SPEED_50MHZ|OUT_AF_PP);
    1fb2:	31800693          	li	a3,792
    1fb6:	4601                	li	a2,0
    1fb8:	4585                	li	a1,1
    1fba:	452d                	li	a0,11
    1fbc:	bfdff0ef          	jal	ra,1bb8 <gpio_init>
D:\1.intelligent vehicle\new try\seefree\Seekfree_CH32V103R8T6_Opensource_Library\obj/../Libraries/seekfree_libraries/zf_pwm.c:50
            break;
    1fc0:	bff1                	j	1f9c <pwm_gpio_init+0x170>
D:\1.intelligent vehicle\new try\seefree\Seekfree_CH32V103R8T6_Opensource_Library\obj/../Libraries/seekfree_libraries/zf_pwm.c:76
            gpio_init(A1, GPO, 0, SPEED_50MHZ|OUT_AF_PP);
    1fc2:	31800693          	li	a3,792
    1fc6:	4601                	li	a2,0
    1fc8:	4585                	li	a1,1
    1fca:	4505                	li	a0,1
    1fcc:	bedff0ef          	jal	ra,1bb8 <gpio_init>
D:\1.intelligent vehicle\new try\seefree\Seekfree_CH32V103R8T6_Opensource_Library\obj/../Libraries/seekfree_libraries/zf_pwm.c:77
            break;
    1fd0:	b7f1                	j	1f9c <pwm_gpio_init+0x170>
D:\1.intelligent vehicle\new try\seefree\Seekfree_CH32V103R8T6_Opensource_Library\obj/../Libraries/seekfree_libraries/zf_pwm.c:79
            gpio_init(A2, GPO, 0, SPEED_50MHZ|OUT_AF_PP);
    1fd2:	31800693          	li	a3,792
    1fd6:	4601                	li	a2,0
    1fd8:	4585                	li	a1,1
    1fda:	4509                	li	a0,2
    1fdc:	bddff0ef          	jal	ra,1bb8 <gpio_init>
D:\1.intelligent vehicle\new try\seefree\Seekfree_CH32V103R8T6_Opensource_Library\obj/../Libraries/seekfree_libraries/zf_pwm.c:80
            break;
    1fe0:	bf75                	j	1f9c <pwm_gpio_init+0x170>
D:\1.intelligent vehicle\new try\seefree\Seekfree_CH32V103R8T6_Opensource_Library\obj/../Libraries/seekfree_libraries/zf_pwm.c:86
            gpio_init(A15, GPO, 0, SPEED_50MHZ|OUT_AF_PP);
    1fe2:	31800693          	li	a3,792
    1fe6:	4601                	li	a2,0
    1fe8:	4585                	li	a1,1
    1fea:	453d                	li	a0,15
    1fec:	bcdff0ef          	jal	ra,1bb8 <gpio_init>
D:\1.intelligent vehicle\new try\seefree\Seekfree_CH32V103R8T6_Opensource_Library\obj/../Libraries/seekfree_libraries/zf_pwm.c:87
            break;
    1ff0:	b775                	j	1f9c <pwm_gpio_init+0x170>
D:\1.intelligent vehicle\new try\seefree\Seekfree_CH32V103R8T6_Opensource_Library\obj/../Libraries/seekfree_libraries/zf_pwm.c:89
            gpio_init(B3, GPO, 0, SPEED_50MHZ|OUT_AF_PP);
    1ff2:	31800693          	li	a3,792
    1ff6:	4601                	li	a2,0
    1ff8:	4585                	li	a1,1
    1ffa:	02300513          	li	a0,35
    1ffe:	bbbff0ef          	jal	ra,1bb8 <gpio_init>
D:\1.intelligent vehicle\new try\seefree\Seekfree_CH32V103R8T6_Opensource_Library\obj/../Libraries/seekfree_libraries/zf_pwm.c:90
            break;
    2002:	bf69                	j	1f9c <pwm_gpio_init+0x170>
D:\1.intelligent vehicle\new try\seefree\Seekfree_CH32V103R8T6_Opensource_Library\obj/../Libraries/seekfree_libraries/zf_pwm.c:92
            gpio_init(B10, GPO, 0, SPEED_50MHZ|OUT_AF_PP);
    2004:	31800693          	li	a3,792
    2008:	4601                	li	a2,0
    200a:	4585                	li	a1,1
    200c:	02a00513          	li	a0,42
    2010:	ba9ff0ef          	jal	ra,1bb8 <gpio_init>
D:\1.intelligent vehicle\new try\seefree\Seekfree_CH32V103R8T6_Opensource_Library\obj/../Libraries/seekfree_libraries/zf_pwm.c:93
            break;
    2014:	b761                	j	1f9c <pwm_gpio_init+0x170>
D:\1.intelligent vehicle\new try\seefree\Seekfree_CH32V103R8T6_Opensource_Library\obj/../Libraries/seekfree_libraries/zf_pwm.c:99
            gpio_init(A6, GPO, 0, SPEED_50MHZ|OUT_AF_PP);
    2016:	31800693          	li	a3,792
    201a:	4601                	li	a2,0
    201c:	4585                	li	a1,1
    201e:	4519                	li	a0,6
    2020:	b99ff0ef          	jal	ra,1bb8 <gpio_init>
D:\1.intelligent vehicle\new try\seefree\Seekfree_CH32V103R8T6_Opensource_Library\obj/../Libraries/seekfree_libraries/zf_pwm.c:100
            break;
    2024:	bfa5                	j	1f9c <pwm_gpio_init+0x170>
D:\1.intelligent vehicle\new try\seefree\Seekfree_CH32V103R8T6_Opensource_Library\obj/../Libraries/seekfree_libraries/zf_pwm.c:102
            gpio_init(A7, GPO, 0, SPEED_50MHZ|OUT_AF_PP);
    2026:	31800693          	li	a3,792
    202a:	4601                	li	a2,0
    202c:	4585                	li	a1,1
    202e:	451d                	li	a0,7
    2030:	b89ff0ef          	jal	ra,1bb8 <gpio_init>
D:\1.intelligent vehicle\new try\seefree\Seekfree_CH32V103R8T6_Opensource_Library\obj/../Libraries/seekfree_libraries/zf_pwm.c:103
            break;
    2034:	b7a5                	j	1f9c <pwm_gpio_init+0x170>
D:\1.intelligent vehicle\new try\seefree\Seekfree_CH32V103R8T6_Opensource_Library\obj/../Libraries/seekfree_libraries/zf_pwm.c:108
            gpio_init(B1, GPO, 0, SPEED_50MHZ|OUT_AF_PP);
    2036:	31800693          	li	a3,792
    203a:	4601                	li	a2,0
    203c:	4585                	li	a1,1
    203e:	02100513          	li	a0,33
    2042:	b77ff0ef          	jal	ra,1bb8 <gpio_init>
D:\1.intelligent vehicle\new try\seefree\Seekfree_CH32V103R8T6_Opensource_Library\obj/../Libraries/seekfree_libraries/zf_pwm.c:109
            break;
    2046:	bf99                	j	1f9c <pwm_gpio_init+0x170>
D:\1.intelligent vehicle\new try\seefree\Seekfree_CH32V103R8T6_Opensource_Library\obj/../Libraries/seekfree_libraries/zf_pwm.c:115
            gpio_init(C7, GPO, 0, SPEED_50MHZ|OUT_AF_PP);
    2048:	31800693          	li	a3,792
    204c:	4601                	li	a2,0
    204e:	4585                	li	a1,1
    2050:	04700513          	li	a0,71
    2054:	b65ff0ef          	jal	ra,1bb8 <gpio_init>
D:\1.intelligent vehicle\new try\seefree\Seekfree_CH32V103R8T6_Opensource_Library\obj/../Libraries/seekfree_libraries/zf_pwm.c:116
            break;
    2058:	b791                	j	1f9c <pwm_gpio_init+0x170>
D:\1.intelligent vehicle\new try\seefree\Seekfree_CH32V103R8T6_Opensource_Library\obj/../Libraries/seekfree_libraries/zf_pwm.c:118
            gpio_init(C8, GPO, 0, SPEED_50MHZ|OUT_AF_PP);
    205a:	31800693          	li	a3,792
    205e:	4601                	li	a2,0
    2060:	4585                	li	a1,1
    2062:	04800513          	li	a0,72
    2066:	b53ff0ef          	jal	ra,1bb8 <gpio_init>
D:\1.intelligent vehicle\new try\seefree\Seekfree_CH32V103R8T6_Opensource_Library\obj/../Libraries/seekfree_libraries/zf_pwm.c:119
            break;
    206a:	bf0d                	j	1f9c <pwm_gpio_init+0x170>
D:\1.intelligent vehicle\new try\seefree\Seekfree_CH32V103R8T6_Opensource_Library\obj/../Libraries/seekfree_libraries/zf_pwm.c:121
            gpio_init(C9, GPO, 0, SPEED_50MHZ|OUT_AF_PP);
    206c:	31800693          	li	a3,792
    2070:	4601                	li	a2,0
    2072:	4585                	li	a1,1
    2074:	04900513          	li	a0,73
    2078:	b41ff0ef          	jal	ra,1bb8 <gpio_init>
D:\1.intelligent vehicle\new try\seefree\Seekfree_CH32V103R8T6_Opensource_Library\obj/../Libraries/seekfree_libraries/zf_pwm.c:122
            break;
    207c:	b705                	j	1f9c <pwm_gpio_init+0x170>
D:\1.intelligent vehicle\new try\seefree\Seekfree_CH32V103R8T6_Opensource_Library\obj/../Libraries/seekfree_libraries/zf_pwm.c:125
            gpio_init(B4, GPO, 0, SPEED_50MHZ|OUT_AF_PP);
    207e:	31800693          	li	a3,792
    2082:	4601                	li	a2,0
    2084:	4585                	li	a1,1
    2086:	02400513          	li	a0,36
    208a:	b2fff0ef          	jal	ra,1bb8 <gpio_init>
D:\1.intelligent vehicle\new try\seefree\Seekfree_CH32V103R8T6_Opensource_Library\obj/../Libraries/seekfree_libraries/zf_pwm.c:126
            break;
    208e:	b739                	j	1f9c <pwm_gpio_init+0x170>
D:\1.intelligent vehicle\new try\seefree\Seekfree_CH32V103R8T6_Opensource_Library\obj/../Libraries/seekfree_libraries/zf_pwm.c:132
            gpio_init(B6, GPO, 0, SPEED_50MHZ|OUT_AF_PP);
    2090:	31800693          	li	a3,792
    2094:	4601                	li	a2,0
    2096:	4585                	li	a1,1
    2098:	02600513          	li	a0,38
    209c:	b1dff0ef          	jal	ra,1bb8 <gpio_init>
D:\1.intelligent vehicle\new try\seefree\Seekfree_CH32V103R8T6_Opensource_Library\obj/../Libraries/seekfree_libraries/zf_pwm.c:133
            break;
    20a0:	bdf5                	j	1f9c <pwm_gpio_init+0x170>
D:\1.intelligent vehicle\new try\seefree\Seekfree_CH32V103R8T6_Opensource_Library\obj/../Libraries/seekfree_libraries/zf_pwm.c:135
            gpio_init(B7, GPO, 0, SPEED_50MHZ|OUT_AF_PP);
    20a2:	31800693          	li	a3,792
    20a6:	4601                	li	a2,0
    20a8:	4585                	li	a1,1
    20aa:	02700513          	li	a0,39
    20ae:	b0bff0ef          	jal	ra,1bb8 <gpio_init>
D:\1.intelligent vehicle\new try\seefree\Seekfree_CH32V103R8T6_Opensource_Library\obj/../Libraries/seekfree_libraries/zf_pwm.c:136
            break;
    20b2:	b5ed                	j	1f9c <pwm_gpio_init+0x170>
D:\1.intelligent vehicle\new try\seefree\Seekfree_CH32V103R8T6_Opensource_Library\obj/../Libraries/seekfree_libraries/zf_pwm.c:138
            gpio_init(B8, GPO, 0, SPEED_50MHZ|OUT_AF_PP);
    20b4:	31800693          	li	a3,792
    20b8:	4601                	li	a2,0
    20ba:	4585                	li	a1,1
    20bc:	02800513          	li	a0,40
    20c0:	af9ff0ef          	jal	ra,1bb8 <gpio_init>
D:\1.intelligent vehicle\new try\seefree\Seekfree_CH32V103R8T6_Opensource_Library\obj/../Libraries/seekfree_libraries/zf_pwm.c:139
            break;
    20c4:	bde1                	j	1f9c <pwm_gpio_init+0x170>

000020c6 <pwm_init>:
pwm_init():
D:\1.intelligent vehicle\new try\seefree\Seekfree_CH32V103R8T6_Opensource_Library\obj/../Libraries/seekfree_libraries/zf_pwm.c:165
//  @return     void
//  Sample usage:               pwm_init(PWM1_CH1_A8, 50, 5000);   //初始化PWM1 通道1 使用引脚A8  输出PWM频率50HZ   占空比为百分之 5000/PWM_DUTY_MAX*100
//                              PWM_DUTY_MAX在zf_pwm.h文件中 默认为10000
//-------------------------------------------------------------------------------------------------------------------
void pwm_init(PWMCH_enum pwmch, uint32 freq, uint32 duty)
{
    20c6:	7139                	addi	sp,sp,-64
    20c8:	de06                	sw	ra,60(sp)
    20ca:	dc22                	sw	s0,56(sp)
    20cc:	da26                	sw	s1,52(sp)
    20ce:	d84a                	sw	s2,48(sp)
    20d0:	d64e                	sw	s3,44(sp)
    20d2:	84aa                	mv	s1,a0
    20d4:	89ae                	mv	s3,a1
    20d6:	8932                	mv	s2,a2
D:\1.intelligent vehicle\new try\seefree\Seekfree_CH32V103R8T6_Opensource_Library\obj/../Libraries/seekfree_libraries/zf_pwm.c:172
    TIM_OCInitTypeDef  TIM_OCInitStructure;
    uint16 match_temp;                                          //占空比值
    uint16 period_temp;                                         //周期值
    uint16 freq_div = 0;                                        //分频值

    pwm_gpio_init(pwmch);                                       //PWM引脚初始化
    20d8:	d55ff0ef          	jal	ra,1e2c <pwm_gpio_init>
D:\1.intelligent vehicle\new try\seefree\Seekfree_CH32V103R8T6_Opensource_Library\obj/../Libraries/seekfree_libraries/zf_pwm.c:174

    if((pwmch >> 8) == 0x00)
    20dc:	0084d413          	srli	s0,s1,0x8
    20e0:	c075                	beqz	s0,21c4 <pwm_init+0xfe>
D:\1.intelligent vehicle\new try\seefree\Seekfree_CH32V103R8T6_Opensource_Library\obj/../Libraries/seekfree_libraries/zf_pwm.c:176
        RCC_APB2PeriphClockCmd(RCC_APB2Periph_TIM1, ENABLE);    //使能定时器1时钟
    else if((pwmch >> 8) == 0x01)
    20e2:	4785                	li	a5,1
    20e4:	0ef40763          	beq	s0,a5,21d2 <pwm_init+0x10c>
D:\1.intelligent vehicle\new try\seefree\Seekfree_CH32V103R8T6_Opensource_Library\obj/../Libraries/seekfree_libraries/zf_pwm.c:178
        RCC_APB1PeriphClockCmd(RCC_APB1Periph_TIM2, ENABLE);    //使能定时器2时钟
    else if((pwmch >> 8) == 0x02)
    20e8:	4789                	li	a5,2
    20ea:	10f40c63          	beq	s0,a5,2202 <pwm_init+0x13c>
D:\1.intelligent vehicle\new try\seefree\Seekfree_CH32V103R8T6_Opensource_Library\obj/../Libraries/seekfree_libraries/zf_pwm.c:180
        RCC_APB1PeriphClockCmd(RCC_APB1Periph_TIM3, ENABLE);    //使能定时器3时钟
    else if((pwmch >> 8) == 0x03)
    20ee:	478d                	li	a5,3
    20f0:	12f40f63          	beq	s0,a5,222e <pwm_init+0x168>
D:\1.intelligent vehicle\new try\seefree\Seekfree_CH32V103R8T6_Opensource_Library\obj/../Libraries/seekfree_libraries/zf_pwm.c:183
        RCC_APB1PeriphClockCmd(RCC_APB1Periph_TIM4, ENABLE);    //使能定时器4时钟

    RCC_APB2PeriphClockCmd(RCC_APB2Periph_AFIO, ENABLE);        //使能AFIO复用功能模块时钟
    20f4:	4585                	li	a1,1
    20f6:	4505                	li	a0,1
    20f8:	9b7fe0ef          	jal	ra,aae <RCC_APB2PeriphClockCmd>
D:\1.intelligent vehicle\new try\seefree\Seekfree_CH32V103R8T6_Opensource_Library\obj/../Libraries/seekfree_libraries/zf_pwm.c:196
        GPIO_PinRemapConfig(GPIO_FullRemap_TIM3, ENABLE);
    else if((pwmch >> 4) == 0x22)   //PWM3的部分重映射
        GPIO_PinRemapConfig(GPIO_PartialRemap_TIM3, ENABLE);

    //获取系统主频
    sys_clk = 8000000 * (((RCC->CFGR0 >> 18)&0x0F) + 2);
    20fc:	400217b7          	lui	a5,0x40021
    2100:	43dc                	lw	a5,4(a5)
    2102:	83c9                	srli	a5,a5,0x12
    2104:	8bbd                	andi	a5,a5,15
    2106:	007a1737          	lui	a4,0x7a1
    210a:	20070713          	addi	a4,a4,512 # 7a1200 <_data_lma+0x79b310>
    210e:	02e787b3          	mul	a5,a5,a4
    2112:	00f42737          	lui	a4,0xf42
    2116:	40070713          	addi	a4,a4,1024 # f42400 <_data_lma+0xf3c510>
    211a:	97ba                	add	a5,a5,a4
    211c:	84f1a823          	sw	a5,-1968(gp) # 200000c0 <sys_clk>
D:\1.intelligent vehicle\new try\seefree\Seekfree_CH32V103R8T6_Opensource_Library\obj/../Libraries/seekfree_libraries/zf_pwm.c:198

    freq_div = (uint16)((sys_clk / freq) >> 16);                            //多少分频
    2120:	0337d733          	divu	a4,a5,s3
    2124:	8341                	srli	a4,a4,0x10
D:\1.intelligent vehicle\new try\seefree\Seekfree_CH32V103R8T6_Opensource_Library\obj/../Libraries/seekfree_libraries/zf_pwm.c:199
    period_temp = (uint16)(sys_clk/(freq*(freq_div + 1)));                  //周期
    2126:	00170593          	addi	a1,a4,1
    212a:	033585b3          	mul	a1,a1,s3
    212e:	02b7d7b3          	divu	a5,a5,a1
D:\1.intelligent vehicle\new try\seefree\Seekfree_CH32V103R8T6_Opensource_Library\obj/../Libraries/seekfree_libraries/zf_pwm.c:203
    match_temp = period_temp * duty / PWM_DUTY_MAX;                         //占空比

    //初始化TIM1-4
    TIM_TimeBaseStructure.TIM_Period = period_temp - 1;                     //设置在下一个更新事件装入活动的自动重装载寄存器周期的值
    2132:	fff78693          	addi	a3,a5,-1 # 40020fff <_eusrstack+0x2001bfff>
    2136:	00d11c23          	sh	a3,24(sp)
D:\1.intelligent vehicle\new try\seefree\Seekfree_CH32V103R8T6_Opensource_Library\obj/../Libraries/seekfree_libraries/zf_pwm.c:198
    freq_div = (uint16)((sys_clk / freq) >> 16);                            //多少分频
    213a:	00e11a23          	sh	a4,20(sp)
D:\1.intelligent vehicle\new try\seefree\Seekfree_CH32V103R8T6_Opensource_Library\obj/../Libraries/seekfree_libraries/zf_pwm.c:205
    TIM_TimeBaseStructure.TIM_Prescaler = freq_div;                         //设置用来作为TIMx时钟频率除数的预分频值
    TIM_TimeBaseStructure.TIM_ClockDivision = TIM_CKD_DIV1;                 //设置时钟分割:TDTS = Tck_tim
    213e:	00011d23          	sh	zero,26(sp)
D:\1.intelligent vehicle\new try\seefree\Seekfree_CH32V103R8T6_Opensource_Library\obj/../Libraries/seekfree_libraries/zf_pwm.c:206
    TIM_TimeBaseStructure.TIM_CounterMode = TIM_CounterMode_Up;             //TIM向上计数模式
    2142:	00011b23          	sh	zero,22(sp)
D:\1.intelligent vehicle\new try\seefree\Seekfree_CH32V103R8T6_Opensource_Library\obj/../Libraries/seekfree_libraries/zf_pwm.c:207
    TIM_TimeBaseStructure.TIM_RepetitionCounter = 0;
    2146:	00010e23          	sb	zero,28(sp)
D:\1.intelligent vehicle\new try\seefree\Seekfree_CH32V103R8T6_Opensource_Library\obj/../Libraries/seekfree_libraries/zf_pwm.c:210

    //初始化TIM1-4 PWM模式
    TIM_OCInitStructure.TIM_OCMode = TIM_OCMode_PWM2;                       //选择定时器模式:TIM脉冲宽度调制模式2
    214a:	07000713          	li	a4,112
    214e:	00e11223          	sh	a4,4(sp)
D:\1.intelligent vehicle\new try\seefree\Seekfree_CH32V103R8T6_Opensource_Library\obj/../Libraries/seekfree_libraries/zf_pwm.c:211
    TIM_OCInitStructure.TIM_OutputState = TIM_OutputState_Enable;           //比较输出使能
    2152:	4705                	li	a4,1
    2154:	00e11323          	sh	a4,6(sp)
D:\1.intelligent vehicle\new try\seefree\Seekfree_CH32V103R8T6_Opensource_Library\obj/../Libraries/seekfree_libraries/zf_pwm.c:212
    TIM_OCInitStructure.TIM_OutputNState = TIM_OutputState_Disable;
    2158:	00011423          	sh	zero,8(sp)
D:\1.intelligent vehicle\new try\seefree\Seekfree_CH32V103R8T6_Opensource_Library\obj/../Libraries/seekfree_libraries/zf_pwm.c:200
    match_temp = period_temp * duty / PWM_DUTY_MAX;                         //占空比
    215c:	07c2                	slli	a5,a5,0x10
    215e:	83c1                	srli	a5,a5,0x10
    2160:	032787b3          	mul	a5,a5,s2
    2164:	6709                	lui	a4,0x2
    2166:	71070713          	addi	a4,a4,1808 # 2710 <spi_gpio_init+0x158>
    216a:	02e7d7b3          	divu	a5,a5,a4
    216e:	00f11523          	sh	a5,10(sp)
D:\1.intelligent vehicle\new try\seefree\Seekfree_CH32V103R8T6_Opensource_Library\obj/../Libraries/seekfree_libraries/zf_pwm.c:214
    TIM_OCInitStructure.TIM_Pulse = match_temp;
    TIM_OCInitStructure.TIM_OCPolarity = TIM_OCPolarity_Low;                //输出极性:TIM输出比较极性高
    2172:	4789                	li	a5,2
    2174:	00f11623          	sh	a5,12(sp)
D:\1.intelligent vehicle\new try\seefree\Seekfree_CH32V103R8T6_Opensource_Library\obj/../Libraries/seekfree_libraries/zf_pwm.c:215
    TIM_OCInitStructure.TIM_OCNPolarity = TIM_OCPolarity_Low;               //输出极性:TIM输出比较极性高
    2178:	00f11723          	sh	a5,14(sp)
D:\1.intelligent vehicle\new try\seefree\Seekfree_CH32V103R8T6_Opensource_Library\obj/../Libraries/seekfree_libraries/zf_pwm.c:216
    TIM_OCInitStructure.TIM_OCIdleState = TIM_OCIdleState_Reset;
    217c:	00011823          	sh	zero,16(sp)
D:\1.intelligent vehicle\new try\seefree\Seekfree_CH32V103R8T6_Opensource_Library\obj/../Libraries/seekfree_libraries/zf_pwm.c:217
    TIM_OCInitStructure.TIM_OCNIdleState = TIM_OCIdleState_Reset;
    2180:	00011923          	sh	zero,18(sp)
D:\1.intelligent vehicle\new try\seefree\Seekfree_CH32V103R8T6_Opensource_Library\obj/../Libraries/seekfree_libraries/zf_pwm.c:219

    TIM_TimeBaseInit(((TIM_TypeDef *) TIMERN[pwmch>>8]), &TIM_TimeBaseStructure);  //根据TIM_TimeBaseInitStruct中指定的参数初始化TIMx的时间基数单位
    2184:	040a                	slli	s0,s0,0x2
    2186:	6799                	lui	a5,0x6
    2188:	c6478793          	addi	a5,a5,-924 # 5c64 <TIMERN>
    218c:	943e                	add	s0,s0,a5
    218e:	4000                	lw	s0,0(s0)
    2190:	084c                	addi	a1,sp,20
    2192:	8522                	mv	a0,s0
    2194:	9f5fe0ef          	jal	ra,b88 <TIM_TimeBaseInit>
D:\1.intelligent vehicle\new try\seefree\Seekfree_CH32V103R8T6_Opensource_Library\obj/../Libraries/seekfree_libraries/zf_pwm.c:225
//        if(PWM1_CH1N_B13 <= pwmch)                                         //该通道为N通道
//        {
//            TIM_OCInitStructure.TIM_OutputState = TIM_OutputState_Enable;   //P通道
//            TIM_OCInitStructure.TIM_OutputNState = TIM_OutputState_Enable;  //N通道
//        }
    if((pwmch & 0x03) == 0x00)                                          //通道选择
    2198:	888d                	andi	s1,s1,3
    219a:	c0f9                	beqz	s1,2260 <pwm_init+0x19a>
D:\1.intelligent vehicle\new try\seefree\Seekfree_CH32V103R8T6_Opensource_Library\obj/../Libraries/seekfree_libraries/zf_pwm.c:231
    {
        TIM_OC1Init(((TIM_TypeDef *) TIMERN[pwmch>>8]), &TIM_OCInitStructure );                       //定时器通道1初始化
        TIM_OC1PreloadConfig(((TIM_TypeDef *) TIMERN[pwmch>>8]), TIM_OCPreload_Enable);               //定时器预装载配置
        TIM_OC1FastConfig(((TIM_TypeDef *) TIMERN[pwmch>>8]), TIM_OC1FE);                             //比较捕获通道快速使能
    }
    else if((pwmch & 0x03) == 0x01)
    219c:	4785                	li	a5,1
    219e:	0ef48c63          	beq	s1,a5,2296 <pwm_init+0x1d0>
D:\1.intelligent vehicle\new try\seefree\Seekfree_CH32V103R8T6_Opensource_Library\obj/../Libraries/seekfree_libraries/zf_pwm.c:237
    {
        TIM_OC2Init(((TIM_TypeDef *) TIMERN[pwmch>>8]), &TIM_OCInitStructure );
        TIM_OC2PreloadConfig(((TIM_TypeDef *) TIMERN[pwmch>>8]), TIM_OCPreload_Enable);
        TIM_OC2FastConfig(((TIM_TypeDef *) TIMERN[pwmch>>8]), TIM_OC2FE);                             //比较捕获通道快速使能
    }
    else if((pwmch & 0x03) == 0x02)
    21a2:	4789                	li	a5,2
    21a4:	10f48763          	beq	s1,a5,22b2 <pwm_init+0x1ec>
D:\1.intelligent vehicle\new try\seefree\Seekfree_CH32V103R8T6_Opensource_Library\obj/../Libraries/seekfree_libraries/zf_pwm.c:245
        TIM_OC3PreloadConfig(((TIM_TypeDef *) TIMERN[pwmch>>8]), TIM_OCPreload_Enable);
        TIM_OC3FastConfig(((TIM_TypeDef *) TIMERN[pwmch>>8]), TIM_OC3FE);                             //比较捕获通道快速使能
    }
    else if((pwmch & 0x03) == 0x03)
    {
        TIM_OC4Init(((TIM_TypeDef *) TIMERN[pwmch>>8]), &TIM_OCInitStructure );
    21a8:	004c                	addi	a1,sp,4
    21aa:	8522                	mv	a0,s0
    21ac:	c7ffe0ef          	jal	ra,e2a <TIM_OC4Init>
D:\1.intelligent vehicle\new try\seefree\Seekfree_CH32V103R8T6_Opensource_Library\obj/../Libraries/seekfree_libraries/zf_pwm.c:246
        TIM_OC4PreloadConfig(((TIM_TypeDef *) TIMERN[pwmch>>8]), TIM_OCPreload_Enable);
    21b0:	45a1                	li	a1,8
    21b2:	8522                	mv	a0,s0
    21b4:	dd9fe0ef          	jal	ra,f8c <TIM_OC4PreloadConfig>
D:\1.intelligent vehicle\new try\seefree\Seekfree_CH32V103R8T6_Opensource_Library\obj/../Libraries/seekfree_libraries/zf_pwm.c:247
        TIM_OC4FastConfig(((TIM_TypeDef *) TIMERN[pwmch>>8]), TIM_OC4FE);                             //比较捕获通道快速使能
    21b8:	40000593          	li	a1,1024
    21bc:	8522                	mv	a0,s0
    21be:	e27fe0ef          	jal	ra,fe4 <TIM_OC4FastConfig>
    21c2:	a85d                	j	2278 <pwm_init+0x1b2>
D:\1.intelligent vehicle\new try\seefree\Seekfree_CH32V103R8T6_Opensource_Library\obj/../Libraries/seekfree_libraries/zf_pwm.c:175
        RCC_APB2PeriphClockCmd(RCC_APB2Periph_TIM1, ENABLE);    //使能定时器1时钟
    21c4:	4585                	li	a1,1
    21c6:	6505                	lui	a0,0x1
    21c8:	80050513          	addi	a0,a0,-2048 # 800 <__stack_size>
    21cc:	8e3fe0ef          	jal	ra,aae <RCC_APB2PeriphClockCmd>
    21d0:	b715                	j	20f4 <pwm_init+0x2e>
D:\1.intelligent vehicle\new try\seefree\Seekfree_CH32V103R8T6_Opensource_Library\obj/../Libraries/seekfree_libraries/zf_pwm.c:177
        RCC_APB1PeriphClockCmd(RCC_APB1Periph_TIM2, ENABLE);    //使能定时器2时钟
    21d2:	4585                	li	a1,1
    21d4:	4505                	li	a0,1
    21d6:	8f7fe0ef          	jal	ra,acc <RCC_APB1PeriphClockCmd>
D:\1.intelligent vehicle\new try\seefree\Seekfree_CH32V103R8T6_Opensource_Library\obj/../Libraries/seekfree_libraries/zf_pwm.c:183
    RCC_APB2PeriphClockCmd(RCC_APB2Periph_AFIO, ENABLE);        //使能AFIO复用功能模块时钟
    21da:	4585                	li	a1,1
    21dc:	4505                	li	a0,1
    21de:	8d1fe0ef          	jal	ra,aae <RCC_APB2PeriphClockCmd>
D:\1.intelligent vehicle\new try\seefree\Seekfree_CH32V103R8T6_Opensource_Library\obj/../Libraries/seekfree_libraries/zf_pwm.c:186
    if((pwmch >> 4) == 0x10)        //PWM1的部分重映射
    21e2:	0044d793          	srli	a5,s1,0x4
    21e6:	4741                	li	a4,16
    21e8:	04e78863          	beq	a5,a4,2238 <pwm_init+0x172>
D:\1.intelligent vehicle\new try\seefree\Seekfree_CH32V103R8T6_Opensource_Library\obj/../Libraries/seekfree_libraries/zf_pwm.c:188
    else if((pwmch >> 4) == 0x11)   //PWM2的完全重映射
    21ec:	4745                	li	a4,17
    21ee:	f0e797e3          	bne	a5,a4,20fc <pwm_init+0x36>
D:\1.intelligent vehicle\new try\seefree\Seekfree_CH32V103R8T6_Opensource_Library\obj/../Libraries/seekfree_libraries/zf_pwm.c:189
        GPIO_PinRemapConfig(GPIO_FullRemap_TIM2, ENABLE);
    21f2:	4585                	li	a1,1
    21f4:	00180537          	lui	a0,0x180
    21f8:	30050513          	addi	a0,a0,768 # 180300 <_data_lma+0x17a410>
    21fc:	e3afe0ef          	jal	ra,836 <GPIO_PinRemapConfig>
    2200:	bdf5                	j	20fc <pwm_init+0x36>
D:\1.intelligent vehicle\new try\seefree\Seekfree_CH32V103R8T6_Opensource_Library\obj/../Libraries/seekfree_libraries/zf_pwm.c:179
        RCC_APB1PeriphClockCmd(RCC_APB1Periph_TIM3, ENABLE);    //使能定时器3时钟
    2202:	4585                	li	a1,1
    2204:	4509                	li	a0,2
    2206:	8c7fe0ef          	jal	ra,acc <RCC_APB1PeriphClockCmd>
D:\1.intelligent vehicle\new try\seefree\Seekfree_CH32V103R8T6_Opensource_Library\obj/../Libraries/seekfree_libraries/zf_pwm.c:183
    RCC_APB2PeriphClockCmd(RCC_APB2Periph_AFIO, ENABLE);        //使能AFIO复用功能模块时钟
    220a:	4585                	li	a1,1
    220c:	4505                	li	a0,1
    220e:	8a1fe0ef          	jal	ra,aae <RCC_APB2PeriphClockCmd>
D:\1.intelligent vehicle\new try\seefree\Seekfree_CH32V103R8T6_Opensource_Library\obj/../Libraries/seekfree_libraries/zf_pwm.c:186
    if((pwmch >> 4) == 0x10)        //PWM1的部分重映射
    2212:	0044d793          	srli	a5,s1,0x4
D:\1.intelligent vehicle\new try\seefree\Seekfree_CH32V103R8T6_Opensource_Library\obj/../Libraries/seekfree_libraries/zf_pwm.c:190
    else if((pwmch >> 4) == 0x21)   //PWM3的完全重映射
    2216:	02100713          	li	a4,33
    221a:	02e79763          	bne	a5,a4,2248 <pwm_init+0x182>
D:\1.intelligent vehicle\new try\seefree\Seekfree_CH32V103R8T6_Opensource_Library\obj/../Libraries/seekfree_libraries/zf_pwm.c:191
        GPIO_PinRemapConfig(GPIO_FullRemap_TIM3, ENABLE);
    221e:	4585                	li	a1,1
    2220:	001a1537          	lui	a0,0x1a1
    2224:	c0050513          	addi	a0,a0,-1024 # 1a0c00 <_data_lma+0x19ad10>
    2228:	e0efe0ef          	jal	ra,836 <GPIO_PinRemapConfig>
    222c:	bdc1                	j	20fc <pwm_init+0x36>
D:\1.intelligent vehicle\new try\seefree\Seekfree_CH32V103R8T6_Opensource_Library\obj/../Libraries/seekfree_libraries/zf_pwm.c:181
        RCC_APB1PeriphClockCmd(RCC_APB1Periph_TIM4, ENABLE);    //使能定时器4时钟
    222e:	4585                	li	a1,1
    2230:	4511                	li	a0,4
    2232:	89bfe0ef          	jal	ra,acc <RCC_APB1PeriphClockCmd>
    2236:	bd7d                	j	20f4 <pwm_init+0x2e>
D:\1.intelligent vehicle\new try\seefree\Seekfree_CH32V103R8T6_Opensource_Library\obj/../Libraries/seekfree_libraries/zf_pwm.c:187
        GPIO_PinRemapConfig(GPIO_PartialRemap_TIM1, ENABLE);
    2238:	4585                	li	a1,1
    223a:	00160537          	lui	a0,0x160
    223e:	04050513          	addi	a0,a0,64 # 160040 <_data_lma+0x15a150>
    2242:	df4fe0ef          	jal	ra,836 <GPIO_PinRemapConfig>
    2246:	bd5d                	j	20fc <pwm_init+0x36>
D:\1.intelligent vehicle\new try\seefree\Seekfree_CH32V103R8T6_Opensource_Library\obj/../Libraries/seekfree_libraries/zf_pwm.c:192
    else if((pwmch >> 4) == 0x22)   //PWM3的部分重映射
    2248:	02200713          	li	a4,34
    224c:	eae798e3          	bne	a5,a4,20fc <pwm_init+0x36>
D:\1.intelligent vehicle\new try\seefree\Seekfree_CH32V103R8T6_Opensource_Library\obj/../Libraries/seekfree_libraries/zf_pwm.c:193
        GPIO_PinRemapConfig(GPIO_PartialRemap_TIM3, ENABLE);
    2250:	4585                	li	a1,1
    2252:	001a1537          	lui	a0,0x1a1
    2256:	80050513          	addi	a0,a0,-2048 # 1a0800 <_data_lma+0x19a910>
    225a:	ddcfe0ef          	jal	ra,836 <GPIO_PinRemapConfig>
    225e:	bd79                	j	20fc <pwm_init+0x36>
D:\1.intelligent vehicle\new try\seefree\Seekfree_CH32V103R8T6_Opensource_Library\obj/../Libraries/seekfree_libraries/zf_pwm.c:227
        TIM_OC1Init(((TIM_TypeDef *) TIMERN[pwmch>>8]), &TIM_OCInitStructure );                       //定时器通道1初始化
    2260:	004c                	addi	a1,sp,4
    2262:	8522                	mv	a0,s0
    2264:	9dbfe0ef          	jal	ra,c3e <TIM_OC1Init>
D:\1.intelligent vehicle\new try\seefree\Seekfree_CH32V103R8T6_Opensource_Library\obj/../Libraries/seekfree_libraries/zf_pwm.c:228
        TIM_OC1PreloadConfig(((TIM_TypeDef *) TIMERN[pwmch>>8]), TIM_OCPreload_Enable);               //定时器预装载配置
    2268:	45a1                	li	a1,8
    226a:	8522                	mv	a0,s0
    226c:	ce3fe0ef          	jal	ra,f4e <TIM_OC1PreloadConfig>
D:\1.intelligent vehicle\new try\seefree\Seekfree_CH32V103R8T6_Opensource_Library\obj/../Libraries/seekfree_libraries/zf_pwm.c:229
        TIM_OC1FastConfig(((TIM_TypeDef *) TIMERN[pwmch>>8]), TIM_OC1FE);                             //比较捕获通道快速使能
    2270:	4591                	li	a1,4
    2272:	8522                	mv	a0,s0
    2274:	d33fe0ef          	jal	ra,fa6 <TIM_OC1FastConfig>
D:\1.intelligent vehicle\new try\seefree\Seekfree_CH32V103R8T6_Opensource_Library\obj/../Libraries/seekfree_libraries/zf_pwm.c:249
    }
    TIM_Cmd(((TIM_TypeDef *) TIMERN[pwmch>>8]), ENABLE);                                              //定时器使能
    2278:	4585                	li	a1,1
    227a:	8522                	mv	a0,s0
    227c:	c4bfe0ef          	jal	ra,ec6 <TIM_Cmd>
D:\1.intelligent vehicle\new try\seefree\Seekfree_CH32V103R8T6_Opensource_Library\obj/../Libraries/seekfree_libraries/zf_pwm.c:250
    TIM_CtrlPWMOutputs(((TIM_TypeDef *) TIMERN[pwmch>>8]), ENABLE );
    2280:	4585                	li	a1,1
    2282:	8522                	mv	a0,s0
    2284:	c67fe0ef          	jal	ra,eea <TIM_CtrlPWMOutputs>
D:\1.intelligent vehicle\new try\seefree\Seekfree_CH32V103R8T6_Opensource_Library\obj/../Libraries/seekfree_libraries/zf_pwm.c:252
    //TIM_ARRPreloadConfig( TIM1, ENABLE );
}
    2288:	50f2                	lw	ra,60(sp)
    228a:	5462                	lw	s0,56(sp)
    228c:	54d2                	lw	s1,52(sp)
    228e:	5942                	lw	s2,48(sp)
    2290:	59b2                	lw	s3,44(sp)
    2292:	6121                	addi	sp,sp,64
    2294:	8082                	ret
D:\1.intelligent vehicle\new try\seefree\Seekfree_CH32V103R8T6_Opensource_Library\obj/../Libraries/seekfree_libraries/zf_pwm.c:233
        TIM_OC2Init(((TIM_TypeDef *) TIMERN[pwmch>>8]), &TIM_OCInitStructure );
    2296:	004c                	addi	a1,sp,4
    2298:	8522                	mv	a0,s0
    229a:	a2ffe0ef          	jal	ra,cc8 <TIM_OC2Init>
D:\1.intelligent vehicle\new try\seefree\Seekfree_CH32V103R8T6_Opensource_Library\obj/../Libraries/seekfree_libraries/zf_pwm.c:234
        TIM_OC2PreloadConfig(((TIM_TypeDef *) TIMERN[pwmch>>8]), TIM_OCPreload_Enable);
    229e:	45a1                	li	a1,8
    22a0:	8522                	mv	a0,s0
    22a2:	cbffe0ef          	jal	ra,f60 <TIM_OC2PreloadConfig>
D:\1.intelligent vehicle\new try\seefree\Seekfree_CH32V103R8T6_Opensource_Library\obj/../Libraries/seekfree_libraries/zf_pwm.c:235
        TIM_OC2FastConfig(((TIM_TypeDef *) TIMERN[pwmch>>8]), TIM_OC2FE);                             //比较捕获通道快速使能
    22a6:	40000593          	li	a1,1024
    22aa:	8522                	mv	a0,s0
    22ac:	d0dfe0ef          	jal	ra,fb8 <TIM_OC2FastConfig>
    22b0:	b7e1                	j	2278 <pwm_init+0x1b2>
D:\1.intelligent vehicle\new try\seefree\Seekfree_CH32V103R8T6_Opensource_Library\obj/../Libraries/seekfree_libraries/zf_pwm.c:239
        TIM_OC3Init(((TIM_TypeDef *) TIMERN[pwmch>>8]), &TIM_OCInitStructure );
    22b2:	004c                	addi	a1,sp,4
    22b4:	8522                	mv	a0,s0
    22b6:	ac5fe0ef          	jal	ra,d7a <TIM_OC3Init>
D:\1.intelligent vehicle\new try\seefree\Seekfree_CH32V103R8T6_Opensource_Library\obj/../Libraries/seekfree_libraries/zf_pwm.c:240
        TIM_OC3PreloadConfig(((TIM_TypeDef *) TIMERN[pwmch>>8]), TIM_OCPreload_Enable);
    22ba:	45a1                	li	a1,8
    22bc:	8522                	mv	a0,s0
    22be:	cbdfe0ef          	jal	ra,f7a <TIM_OC3PreloadConfig>
D:\1.intelligent vehicle\new try\seefree\Seekfree_CH32V103R8T6_Opensource_Library\obj/../Libraries/seekfree_libraries/zf_pwm.c:241
        TIM_OC3FastConfig(((TIM_TypeDef *) TIMERN[pwmch>>8]), TIM_OC3FE);                             //比较捕获通道快速使能
    22c2:	4591                	li	a1,4
    22c4:	8522                	mv	a0,s0
    22c6:	d0dfe0ef          	jal	ra,fd2 <TIM_OC3FastConfig>
    22ca:	b77d                	j	2278 <pwm_init+0x1b2>

000022cc <pwm_duty>:
pwm_duty():
D:\1.intelligent vehicle\new try\seefree\Seekfree_CH32V103R8T6_Opensource_Library\obj/../Libraries/seekfree_libraries/zf_pwm.c:270
    uint16 period_temp;
    //const uint32 TIMERN[] = {TIM1_BASE, TIM2_BASE, TIM3_BASE, TIM4_BASE};
    //获取周期值
    //计算占空比

    period_temp = ((TIM_TypeDef *) TIMERN[pwmch>>8])->ATRLR;    //获取定时器的周期值
    22cc:	00855713          	srli	a4,a0,0x8
    22d0:	00271793          	slli	a5,a4,0x2
    22d4:	6699                	lui	a3,0x6
    22d6:	c6468693          	addi	a3,a3,-924 # 5c64 <TIMERN>
    22da:	97b6                	add	a5,a5,a3
    22dc:	439c                	lw	a5,0(a5)
    22de:	02c7d783          	lhu	a5,44(a5)
D:\1.intelligent vehicle\new try\seefree\Seekfree_CH32V103R8T6_Opensource_Library\obj/../Libraries/seekfree_libraries/zf_pwm.c:271
    match_temp = period_temp * duty / PWM_DUTY_MAX;             //占空比
    22e2:	02f585b3          	mul	a1,a1,a5
    22e6:	6789                	lui	a5,0x2
    22e8:	71078793          	addi	a5,a5,1808 # 2710 <spi_gpio_init+0x158>
    22ec:	02f5d5b3          	divu	a1,a1,a5
D:\1.intelligent vehicle\new try\seefree\Seekfree_CH32V103R8T6_Opensource_Library\obj/../Libraries/seekfree_libraries/zf_pwm.c:273

    if((pwmch >> 8) == 0x00)
    22f0:	ef01                	bnez	a4,2308 <pwm_duty+0x3c>
D:\1.intelligent vehicle\new try\seefree\Seekfree_CH32V103R8T6_Opensource_Library\obj/../Libraries/seekfree_libraries/zf_pwm.c:275
    {
        (*(volatile uint32*)(0x40012C34 + (pwmch&0x03) * 0x04)) = match_temp;
    22f2:	890d                	andi	a0,a0,3
    22f4:	100057b7          	lui	a5,0x10005
    22f8:	b0d78793          	addi	a5,a5,-1267 # 10004b0d <_data_lma+0xfffec1d>
    22fc:	953e                	add	a0,a0,a5
    22fe:	050a                	slli	a0,a0,0x2
    2300:	05c2                	slli	a1,a1,0x10
    2302:	81c1                	srli	a1,a1,0x10
    2304:	c10c                	sw	a1,0(a0)
    2306:	8082                	ret
D:\1.intelligent vehicle\new try\seefree\Seekfree_CH32V103R8T6_Opensource_Library\obj/../Libraries/seekfree_libraries/zf_pwm.c:281
        //0x40012C34 TIM1->CH1CVR
        //0x40012C38 TIM1->CH2CVR
        //0x40012C3C TIM1->CH3CVR
        //0x40012C40 TIM1->CH4CVR
    }
    else if((pwmch >> 8) == 0x01)
    2308:	4785                	li	a5,1
    230a:	00f70963          	beq	a4,a5,231c <pwm_duty+0x50>
D:\1.intelligent vehicle\new try\seefree\Seekfree_CH32V103R8T6_Opensource_Library\obj/../Libraries/seekfree_libraries/zf_pwm.c:289
        //0x40000034 TIM2->CH1CVR
        //0x40000038 TIM2->CH2CVR
        //0x4000003C TIM2->CH3CVR
        //0x40000040 TIM2->CH4CVR
    }
    else if((pwmch >> 8) == 0x02)
    230e:	4789                	li	a5,2
    2310:	02f70063          	beq	a4,a5,2330 <pwm_duty+0x64>
D:\1.intelligent vehicle\new try\seefree\Seekfree_CH32V103R8T6_Opensource_Library\obj/../Libraries/seekfree_libraries/zf_pwm.c:297
        //0x40000434 TIM3->CH1CVR
        //0x40000438 TIM3->CH2CVR
        //0x4000043C TIM3->CH3CVR
        //0x40000440 TIM3->CH4CVR
    }
    else if((pwmch >> 8) == 0x03)
    2314:	478d                	li	a5,3
    2316:	02f70863          	beq	a4,a5,2346 <pwm_duty+0x7a>
D:\1.intelligent vehicle\new try\seefree\Seekfree_CH32V103R8T6_Opensource_Library\obj/../Libraries/seekfree_libraries/zf_pwm.c:305
        //0x40000834 TIM4->CH1CVR
        //0x40000838 TIM4->CH2CVR
        //0x4000083C TIM4->CH3CVR
        //0x40000840 TIM4->CH4CVR
    }
}
    231a:	8082                	ret
D:\1.intelligent vehicle\new try\seefree\Seekfree_CH32V103R8T6_Opensource_Library\obj/../Libraries/seekfree_libraries/zf_pwm.c:283
        (*(volatile uint32*)(0x40000034 + (pwmch&0x03) * 0x04)) = match_temp;
    231c:	890d                	andi	a0,a0,3
    231e:	100007b7          	lui	a5,0x10000
    2322:	07b5                	addi	a5,a5,13
    2324:	953e                	add	a0,a0,a5
    2326:	050a                	slli	a0,a0,0x2
    2328:	05c2                	slli	a1,a1,0x10
    232a:	81c1                	srli	a1,a1,0x10
    232c:	c10c                	sw	a1,0(a0)
    232e:	8082                	ret
D:\1.intelligent vehicle\new try\seefree\Seekfree_CH32V103R8T6_Opensource_Library\obj/../Libraries/seekfree_libraries/zf_pwm.c:291
        (*(volatile uint32*)(0x40000434 + (pwmch&0x03) * 0x04)) = match_temp;
    2330:	890d                	andi	a0,a0,3
    2332:	100007b7          	lui	a5,0x10000
    2336:	10d78793          	addi	a5,a5,269 # 1000010d <_data_lma+0xfffa21d>
    233a:	953e                	add	a0,a0,a5
    233c:	050a                	slli	a0,a0,0x2
    233e:	05c2                	slli	a1,a1,0x10
    2340:	81c1                	srli	a1,a1,0x10
    2342:	c10c                	sw	a1,0(a0)
    2344:	8082                	ret
D:\1.intelligent vehicle\new try\seefree\Seekfree_CH32V103R8T6_Opensource_Library\obj/../Libraries/seekfree_libraries/zf_pwm.c:299
        (*(volatile uint32*)(0x40000834 + (pwmch&0x03) * 0x04)) = match_temp;
    2346:	890d                	andi	a0,a0,3
    2348:	100007b7          	lui	a5,0x10000
    234c:	20d78793          	addi	a5,a5,525 # 1000020d <_data_lma+0xfffa31d>
    2350:	953e                	add	a0,a0,a5
    2352:	050a                	slli	a0,a0,0x2
    2354:	05c2                	slli	a1,a1,0x10
    2356:	81c1                	srli	a1,a1,0x10
    2358:	c10c                	sw	a1,0(a0)
D:\1.intelligent vehicle\new try\seefree\Seekfree_CH32V103R8T6_Opensource_Library\obj/../Libraries/seekfree_libraries/zf_pwm.c:305
}
    235a:	b7c1                	j	231a <pwm_duty+0x4e>

0000235c <timer_gpio_quad_init>:
timer_gpio_quad_init():
D:\1.intelligent vehicle\new try\seefree\Seekfree_CH32V103R8T6_Opensource_Library\obj/../Libraries/seekfree_libraries/zf_qtimer.c:40
//  @param      phaseB      通道B以及引脚
//  @return     void
//  Sample usage:           内部使用，用户无需关心
//-------------------------------------------------------------------------------------------------------------------
void timer_gpio_quad_init(TIMER_PIN_enum phaseA, TIMER_PIN_enum phaseB)
{
    235c:	1141                	addi	sp,sp,-16
    235e:	c606                	sw	ra,12(sp)
    2360:	c422                	sw	s0,8(sp)
    2362:	842e                	mv	s0,a1
D:\1.intelligent vehicle\new try\seefree\Seekfree_CH32V103R8T6_Opensource_Library\obj/../Libraries/seekfree_libraries/zf_qtimer.c:41
    if(TIMER1_CHA_A8 == phaseA)       gpio_init(A8, GPI, 0, IN_FLOAT);
    2364:	c91d                	beqz	a0,239a <timer_gpio_quad_init+0x3e>
D:\1.intelligent vehicle\new try\seefree\Seekfree_CH32V103R8T6_Opensource_Library\obj/../Libraries/seekfree_libraries/zf_qtimer.c:42
    else if(TIMER2_CHA_A0 == phaseA)  gpio_init(A0, GPI, 0, IN_FLOAT);
    2366:	4789                	li	a5,2
    2368:	06f50863          	beq	a0,a5,23d8 <timer_gpio_quad_init+0x7c>
D:\1.intelligent vehicle\new try\seefree\Seekfree_CH32V103R8T6_Opensource_Library\obj/../Libraries/seekfree_libraries/zf_qtimer.c:43
    else if(TIMER2_CHA_A15 == phaseA) gpio_init(A15, GPI, 0, IN_FLOAT);
    236c:	4791                	li	a5,4
    236e:	06f50c63          	beq	a0,a5,23e6 <timer_gpio_quad_init+0x8a>
D:\1.intelligent vehicle\new try\seefree\Seekfree_CH32V103R8T6_Opensource_Library\obj/../Libraries/seekfree_libraries/zf_qtimer.c:44
    else if(TIMER3_CHA_A6 == phaseA)  gpio_init(A6, GPI, 0, IN_FLOAT);
    2372:	4799                	li	a5,6
    2374:	08f50063          	beq	a0,a5,23f4 <timer_gpio_quad_init+0x98>
D:\1.intelligent vehicle\new try\seefree\Seekfree_CH32V103R8T6_Opensource_Library\obj/../Libraries/seekfree_libraries/zf_qtimer.c:45
    else if(TIMER3_CHA_C6 == phaseA)  gpio_init(C6, GPI, 0, IN_FLOAT);
    2378:	47a1                	li	a5,8
    237a:	08f50463          	beq	a0,a5,2402 <timer_gpio_quad_init+0xa6>
D:\1.intelligent vehicle\new try\seefree\Seekfree_CH32V103R8T6_Opensource_Library\obj/../Libraries/seekfree_libraries/zf_qtimer.c:46
    else if(TIMER3_CHA_B4 == phaseA)  gpio_init(B4, GPI, 0, IN_FLOAT);
    237e:	47a9                	li	a5,10
    2380:	08f50963          	beq	a0,a5,2412 <timer_gpio_quad_init+0xb6>
D:\1.intelligent vehicle\new try\seefree\Seekfree_CH32V103R8T6_Opensource_Library\obj/../Libraries/seekfree_libraries/zf_qtimer.c:47
    else if(TIMER4_CHA_B6 == phaseA)  gpio_init(B6, GPI, 0, IN_FLOAT);
    2384:	47b1                	li	a5,12
    2386:	02f51063          	bne	a0,a5,23a6 <timer_gpio_quad_init+0x4a>
D:\1.intelligent vehicle\new try\seefree\Seekfree_CH32V103R8T6_Opensource_Library\obj/../Libraries/seekfree_libraries/zf_qtimer.c:47 (discriminator 1)
    238a:	4691                	li	a3,4
    238c:	4601                	li	a2,0
    238e:	4581                	li	a1,0
    2390:	02600513          	li	a0,38
    2394:	825ff0ef          	jal	ra,1bb8 <gpio_init>
    2398:	a039                	j	23a6 <timer_gpio_quad_init+0x4a>
D:\1.intelligent vehicle\new try\seefree\Seekfree_CH32V103R8T6_Opensource_Library\obj/../Libraries/seekfree_libraries/zf_qtimer.c:41 (discriminator 1)
    if(TIMER1_CHA_A8 == phaseA)       gpio_init(A8, GPI, 0, IN_FLOAT);
    239a:	4691                	li	a3,4
    239c:	4601                	li	a2,0
    239e:	4581                	li	a1,0
    23a0:	4521                	li	a0,8
    23a2:	817ff0ef          	jal	ra,1bb8 <gpio_init>
D:\1.intelligent vehicle\new try\seefree\Seekfree_CH32V103R8T6_Opensource_Library\obj/../Libraries/seekfree_libraries/zf_qtimer.c:49

    if(TIMER1_CHB_A9 == phaseB)       gpio_init(A9, GPI, 0, IN_FLOAT);
    23a6:	4785                	li	a5,1
    23a8:	06f40d63          	beq	s0,a5,2422 <timer_gpio_quad_init+0xc6>
D:\1.intelligent vehicle\new try\seefree\Seekfree_CH32V103R8T6_Opensource_Library\obj/../Libraries/seekfree_libraries/zf_qtimer.c:50
    else if(TIMER2_CHB_A1 == phaseB)  gpio_init(A1, GPI, 0, IN_FLOAT);
    23ac:	478d                	li	a5,3
    23ae:	08f40163          	beq	s0,a5,2430 <timer_gpio_quad_init+0xd4>
D:\1.intelligent vehicle\new try\seefree\Seekfree_CH32V103R8T6_Opensource_Library\obj/../Libraries/seekfree_libraries/zf_qtimer.c:51
    else if(TIMER2_CHB_B3 == phaseB)  gpio_init(B3, GPI, 0, IN_FLOAT);
    23b2:	4795                	li	a5,5
    23b4:	08f40563          	beq	s0,a5,243e <timer_gpio_quad_init+0xe2>
D:\1.intelligent vehicle\new try\seefree\Seekfree_CH32V103R8T6_Opensource_Library\obj/../Libraries/seekfree_libraries/zf_qtimer.c:52
    else if(TIMER3_CHB_A7 == phaseB)  gpio_init(A7, GPI, 0, IN_FLOAT);
    23b8:	479d                	li	a5,7
    23ba:	08f40a63          	beq	s0,a5,244e <timer_gpio_quad_init+0xf2>
D:\1.intelligent vehicle\new try\seefree\Seekfree_CH32V103R8T6_Opensource_Library\obj/../Libraries/seekfree_libraries/zf_qtimer.c:53
    else if(TIMER3_CHB_C7 == phaseB)  gpio_init(C7, GPI, 0, IN_FLOAT);
    23be:	47a5                	li	a5,9
    23c0:	08f40e63          	beq	s0,a5,245c <timer_gpio_quad_init+0x100>
D:\1.intelligent vehicle\new try\seefree\Seekfree_CH32V103R8T6_Opensource_Library\obj/../Libraries/seekfree_libraries/zf_qtimer.c:54
    else if(TIMER3_CHB_B5 == phaseB)  gpio_init(B5, GPI, 0, IN_FLOAT);
    23c4:	47ad                	li	a5,11
    23c6:	0af40363          	beq	s0,a5,246c <timer_gpio_quad_init+0x110>
D:\1.intelligent vehicle\new try\seefree\Seekfree_CH32V103R8T6_Opensource_Library\obj/../Libraries/seekfree_libraries/zf_qtimer.c:55
    else if(TIMER4_CHB_B7 == phaseB)  gpio_init(B7, GPI, 0, IN_FLOAT);
    23ca:	47b5                	li	a5,13
    23cc:	0af40863          	beq	s0,a5,247c <timer_gpio_quad_init+0x120>
D:\1.intelligent vehicle\new try\seefree\Seekfree_CH32V103R8T6_Opensource_Library\obj/../Libraries/seekfree_libraries/zf_qtimer.c:57

}
    23d0:	40b2                	lw	ra,12(sp)
    23d2:	4422                	lw	s0,8(sp)
    23d4:	0141                	addi	sp,sp,16
    23d6:	8082                	ret
D:\1.intelligent vehicle\new try\seefree\Seekfree_CH32V103R8T6_Opensource_Library\obj/../Libraries/seekfree_libraries/zf_qtimer.c:42 (discriminator 1)
    else if(TIMER2_CHA_A0 == phaseA)  gpio_init(A0, GPI, 0, IN_FLOAT);
    23d8:	4691                	li	a3,4
    23da:	4601                	li	a2,0
    23dc:	4581                	li	a1,0
    23de:	4501                	li	a0,0
    23e0:	fd8ff0ef          	jal	ra,1bb8 <gpio_init>
    23e4:	b7c9                	j	23a6 <timer_gpio_quad_init+0x4a>
D:\1.intelligent vehicle\new try\seefree\Seekfree_CH32V103R8T6_Opensource_Library\obj/../Libraries/seekfree_libraries/zf_qtimer.c:43 (discriminator 1)
    else if(TIMER2_CHA_A15 == phaseA) gpio_init(A15, GPI, 0, IN_FLOAT);
    23e6:	4691                	li	a3,4
    23e8:	4601                	li	a2,0
    23ea:	4581                	li	a1,0
    23ec:	453d                	li	a0,15
    23ee:	fcaff0ef          	jal	ra,1bb8 <gpio_init>
    23f2:	bf55                	j	23a6 <timer_gpio_quad_init+0x4a>
D:\1.intelligent vehicle\new try\seefree\Seekfree_CH32V103R8T6_Opensource_Library\obj/../Libraries/seekfree_libraries/zf_qtimer.c:44 (discriminator 1)
    else if(TIMER3_CHA_A6 == phaseA)  gpio_init(A6, GPI, 0, IN_FLOAT);
    23f4:	4691                	li	a3,4
    23f6:	4601                	li	a2,0
    23f8:	4581                	li	a1,0
    23fa:	4519                	li	a0,6
    23fc:	fbcff0ef          	jal	ra,1bb8 <gpio_init>
    2400:	b75d                	j	23a6 <timer_gpio_quad_init+0x4a>
D:\1.intelligent vehicle\new try\seefree\Seekfree_CH32V103R8T6_Opensource_Library\obj/../Libraries/seekfree_libraries/zf_qtimer.c:45 (discriminator 1)
    else if(TIMER3_CHA_C6 == phaseA)  gpio_init(C6, GPI, 0, IN_FLOAT);
    2402:	4691                	li	a3,4
    2404:	4601                	li	a2,0
    2406:	4581                	li	a1,0
    2408:	04600513          	li	a0,70
    240c:	facff0ef          	jal	ra,1bb8 <gpio_init>
    2410:	bf59                	j	23a6 <timer_gpio_quad_init+0x4a>
D:\1.intelligent vehicle\new try\seefree\Seekfree_CH32V103R8T6_Opensource_Library\obj/../Libraries/seekfree_libraries/zf_qtimer.c:46 (discriminator 1)
    else if(TIMER3_CHA_B4 == phaseA)  gpio_init(B4, GPI, 0, IN_FLOAT);
    2412:	4691                	li	a3,4
    2414:	4601                	li	a2,0
    2416:	4581                	li	a1,0
    2418:	02400513          	li	a0,36
    241c:	f9cff0ef          	jal	ra,1bb8 <gpio_init>
    2420:	b759                	j	23a6 <timer_gpio_quad_init+0x4a>
D:\1.intelligent vehicle\new try\seefree\Seekfree_CH32V103R8T6_Opensource_Library\obj/../Libraries/seekfree_libraries/zf_qtimer.c:49 (discriminator 1)
    if(TIMER1_CHB_A9 == phaseB)       gpio_init(A9, GPI, 0, IN_FLOAT);
    2422:	4691                	li	a3,4
    2424:	4601                	li	a2,0
    2426:	4581                	li	a1,0
    2428:	4525                	li	a0,9
    242a:	f8eff0ef          	jal	ra,1bb8 <gpio_init>
    242e:	b74d                	j	23d0 <timer_gpio_quad_init+0x74>
D:\1.intelligent vehicle\new try\seefree\Seekfree_CH32V103R8T6_Opensource_Library\obj/../Libraries/seekfree_libraries/zf_qtimer.c:50 (discriminator 1)
    else if(TIMER2_CHB_A1 == phaseB)  gpio_init(A1, GPI, 0, IN_FLOAT);
    2430:	4691                	li	a3,4
    2432:	4601                	li	a2,0
    2434:	4581                	li	a1,0
    2436:	4505                	li	a0,1
    2438:	f80ff0ef          	jal	ra,1bb8 <gpio_init>
    243c:	bf51                	j	23d0 <timer_gpio_quad_init+0x74>
D:\1.intelligent vehicle\new try\seefree\Seekfree_CH32V103R8T6_Opensource_Library\obj/../Libraries/seekfree_libraries/zf_qtimer.c:51 (discriminator 1)
    else if(TIMER2_CHB_B3 == phaseB)  gpio_init(B3, GPI, 0, IN_FLOAT);
    243e:	4691                	li	a3,4
    2440:	4601                	li	a2,0
    2442:	4581                	li	a1,0
    2444:	02300513          	li	a0,35
    2448:	f70ff0ef          	jal	ra,1bb8 <gpio_init>
    244c:	b751                	j	23d0 <timer_gpio_quad_init+0x74>
D:\1.intelligent vehicle\new try\seefree\Seekfree_CH32V103R8T6_Opensource_Library\obj/../Libraries/seekfree_libraries/zf_qtimer.c:52 (discriminator 1)
    else if(TIMER3_CHB_A7 == phaseB)  gpio_init(A7, GPI, 0, IN_FLOAT);
    244e:	4691                	li	a3,4
    2450:	4601                	li	a2,0
    2452:	4581                	li	a1,0
    2454:	451d                	li	a0,7
    2456:	f62ff0ef          	jal	ra,1bb8 <gpio_init>
    245a:	bf9d                	j	23d0 <timer_gpio_quad_init+0x74>
D:\1.intelligent vehicle\new try\seefree\Seekfree_CH32V103R8T6_Opensource_Library\obj/../Libraries/seekfree_libraries/zf_qtimer.c:53 (discriminator 1)
    else if(TIMER3_CHB_C7 == phaseB)  gpio_init(C7, GPI, 0, IN_FLOAT);
    245c:	4691                	li	a3,4
    245e:	4601                	li	a2,0
    2460:	4581                	li	a1,0
    2462:	04700513          	li	a0,71
    2466:	f52ff0ef          	jal	ra,1bb8 <gpio_init>
    246a:	b79d                	j	23d0 <timer_gpio_quad_init+0x74>
D:\1.intelligent vehicle\new try\seefree\Seekfree_CH32V103R8T6_Opensource_Library\obj/../Libraries/seekfree_libraries/zf_qtimer.c:54 (discriminator 1)
    else if(TIMER3_CHB_B5 == phaseB)  gpio_init(B5, GPI, 0, IN_FLOAT);
    246c:	4691                	li	a3,4
    246e:	4601                	li	a2,0
    2470:	4581                	li	a1,0
    2472:	02500513          	li	a0,37
    2476:	f42ff0ef          	jal	ra,1bb8 <gpio_init>
    247a:	bf99                	j	23d0 <timer_gpio_quad_init+0x74>
D:\1.intelligent vehicle\new try\seefree\Seekfree_CH32V103R8T6_Opensource_Library\obj/../Libraries/seekfree_libraries/zf_qtimer.c:55 (discriminator 1)
    else if(TIMER4_CHB_B7 == phaseB)  gpio_init(B7, GPI, 0, IN_FLOAT);
    247c:	4691                	li	a3,4
    247e:	4601                	li	a2,0
    2480:	4581                	li	a1,0
    2482:	02700513          	li	a0,39
    2486:	f32ff0ef          	jal	ra,1bb8 <gpio_init>
D:\1.intelligent vehicle\new try\seefree\Seekfree_CH32V103R8T6_Opensource_Library\obj/../Libraries/seekfree_libraries/zf_qtimer.c:57 (discriminator 1)
}
    248a:	b799                	j	23d0 <timer_gpio_quad_init+0x74>

0000248c <timer_quad_init>:
timer_quad_init():
D:\1.intelligent vehicle\new try\seefree\Seekfree_CH32V103R8T6_Opensource_Library\obj/../Libraries/seekfree_libraries/zf_qtimer.c:69
//  @param      phaseB      通道B以及引脚
//  @return     void
//  Sample usage:           推荐使用正交解码编码器。
//-------------------------------------------------------------------------------------------------------------------
void timer_quad_init(TIMERN_enum timern, TIMER_PIN_enum phaseA, TIMER_PIN_enum phaseB)
{
    248c:	1101                	addi	sp,sp,-32
    248e:	ce06                	sw	ra,28(sp)
    2490:	cc22                	sw	s0,24(sp)
    2492:	ca26                	sw	s1,20(sp)
    2494:	c84a                	sw	s2,16(sp)
    2496:	842a                	mv	s0,a0
    2498:	84ae                	mv	s1,a1
    249a:	8932                	mv	s2,a2
D:\1.intelligent vehicle\new try\seefree\Seekfree_CH32V103R8T6_Opensource_Library\obj/../Libraries/seekfree_libraries/zf_qtimer.c:72
    TIM_TimeBaseInitTypeDef TIM_TimeBaseStructure;

    if(TIMER_1 == timern)       RCC_APB2PeriphClockCmd(RCC_APB2Periph_TIM1, ENABLE);//使能定时器1的时钟
    249c:	c529                	beqz	a0,24e6 <timer_quad_init+0x5a>
D:\1.intelligent vehicle\new try\seefree\Seekfree_CH32V103R8T6_Opensource_Library\obj/../Libraries/seekfree_libraries/zf_qtimer.c:73
    else  if(TIMER_2 == timern) RCC_APB1PeriphClockCmd(RCC_APB1Periph_TIM2, ENABLE);//使能定时器2的时钟
    249e:	4785                	li	a5,1
    24a0:	04f50a63          	beq	a0,a5,24f4 <timer_quad_init+0x68>
D:\1.intelligent vehicle\new try\seefree\Seekfree_CH32V103R8T6_Opensource_Library\obj/../Libraries/seekfree_libraries/zf_qtimer.c:74
    else  if(TIMER_3 == timern) RCC_APB1PeriphClockCmd(RCC_APB1Periph_TIM3, ENABLE);//使能定时器3的时钟
    24a4:	4789                	li	a5,2
    24a6:	04f50c63          	beq	a0,a5,24fe <timer_quad_init+0x72>
D:\1.intelligent vehicle\new try\seefree\Seekfree_CH32V103R8T6_Opensource_Library\obj/../Libraries/seekfree_libraries/zf_qtimer.c:75
    else  if(TIMER_4 == timern) RCC_APB1PeriphClockCmd(RCC_APB1Periph_TIM4, ENABLE);//使能定时器4的时钟
    24aa:	478d                	li	a5,3
    24ac:	04f50e63          	beq	a0,a5,2508 <timer_quad_init+0x7c>
D:\1.intelligent vehicle\new try\seefree\Seekfree_CH32V103R8T6_Opensource_Library\obj/../Libraries/seekfree_libraries/zf_qtimer.c:77

    timer_gpio_quad_init(phaseA, phaseB);                                           //初始化引脚
    24b0:	85ca                	mv	a1,s2
    24b2:	8526                	mv	a0,s1
    24b4:	3565                	jal	235c <timer_gpio_quad_init>
D:\1.intelligent vehicle\new try\seefree\Seekfree_CH32V103R8T6_Opensource_Library\obj/../Libraries/seekfree_libraries/zf_qtimer.c:79

    RCC_APB2PeriphClockCmd(RCC_APB2Periph_AFIO, ENABLE);                            //使能AFIO复用功能模块时钟
    24b6:	4585                	li	a1,1
    24b8:	4505                	li	a0,1
    24ba:	df4fe0ef          	jal	ra,aae <RCC_APB2PeriphClockCmd>
D:\1.intelligent vehicle\new try\seefree\Seekfree_CH32V103R8T6_Opensource_Library\obj/../Libraries/seekfree_libraries/zf_qtimer.c:81

    if(TIMER2_CHA_A15 == phaseA && TIMER2_CHB_B3 == phaseB)                         //引脚重映射
    24be:	4791                	li	a5,4
    24c0:	04f48963          	beq	s1,a5,2512 <timer_quad_init+0x86>
D:\1.intelligent vehicle\new try\seefree\Seekfree_CH32V103R8T6_Opensource_Library\obj/../Libraries/seekfree_libraries/zf_qtimer.c:83
        GPIO_PinRemapConfig(GPIO_FullRemap_TIM2, ENABLE);
    else    if(TIMER3_CHA_C6 == phaseA && TIMER3_CHB_C7 == phaseB)
    24c4:	47a1                	li	a5,8
    24c6:	0af48a63          	beq	s1,a5,257a <timer_quad_init+0xee>
D:\1.intelligent vehicle\new try\seefree\Seekfree_CH32V103R8T6_Opensource_Library\obj/../Libraries/seekfree_libraries/zf_qtimer.c:85
        GPIO_PinRemapConfig(GPIO_FullRemap_TIM3, ENABLE);
    else    if(TIMER3_CHA_B4 == phaseA && TIMER3_CHB_B5 == phaseB)
    24ca:	47a9                	li	a5,10
    24cc:	04f49663          	bne	s1,a5,2518 <timer_quad_init+0x8c>
D:\1.intelligent vehicle\new try\seefree\Seekfree_CH32V103R8T6_Opensource_Library\obj/../Libraries/seekfree_libraries/zf_qtimer.c:85 (discriminator 1)
    24d0:	47ad                	li	a5,11
    24d2:	04f91363          	bne	s2,a5,2518 <timer_quad_init+0x8c>
D:\1.intelligent vehicle\new try\seefree\Seekfree_CH32V103R8T6_Opensource_Library\obj/../Libraries/seekfree_libraries/zf_qtimer.c:86
        GPIO_PinRemapConfig(GPIO_PartialRemap_TIM3, ENABLE);
    24d6:	4585                	li	a1,1
    24d8:	001a1537          	lui	a0,0x1a1
    24dc:	80050513          	addi	a0,a0,-2048 # 1a0800 <_data_lma+0x19a910>
    24e0:	b56fe0ef          	jal	ra,836 <GPIO_PinRemapConfig>
    24e4:	a815                	j	2518 <timer_quad_init+0x8c>
D:\1.intelligent vehicle\new try\seefree\Seekfree_CH32V103R8T6_Opensource_Library\obj/../Libraries/seekfree_libraries/zf_qtimer.c:72 (discriminator 1)
    if(TIMER_1 == timern)       RCC_APB2PeriphClockCmd(RCC_APB2Periph_TIM1, ENABLE);//使能定时器1的时钟
    24e6:	4585                	li	a1,1
    24e8:	6505                	lui	a0,0x1
    24ea:	80050513          	addi	a0,a0,-2048 # 800 <__stack_size>
    24ee:	dc0fe0ef          	jal	ra,aae <RCC_APB2PeriphClockCmd>
    24f2:	bf7d                	j	24b0 <timer_quad_init+0x24>
D:\1.intelligent vehicle\new try\seefree\Seekfree_CH32V103R8T6_Opensource_Library\obj/../Libraries/seekfree_libraries/zf_qtimer.c:73 (discriminator 1)
    else  if(TIMER_2 == timern) RCC_APB1PeriphClockCmd(RCC_APB1Periph_TIM2, ENABLE);//使能定时器2的时钟
    24f4:	4585                	li	a1,1
    24f6:	4505                	li	a0,1
    24f8:	dd4fe0ef          	jal	ra,acc <RCC_APB1PeriphClockCmd>
    24fc:	bf55                	j	24b0 <timer_quad_init+0x24>
D:\1.intelligent vehicle\new try\seefree\Seekfree_CH32V103R8T6_Opensource_Library\obj/../Libraries/seekfree_libraries/zf_qtimer.c:74 (discriminator 1)
    else  if(TIMER_3 == timern) RCC_APB1PeriphClockCmd(RCC_APB1Periph_TIM3, ENABLE);//使能定时器3的时钟
    24fe:	4585                	li	a1,1
    2500:	4509                	li	a0,2
    2502:	dcafe0ef          	jal	ra,acc <RCC_APB1PeriphClockCmd>
    2506:	b76d                	j	24b0 <timer_quad_init+0x24>
D:\1.intelligent vehicle\new try\seefree\Seekfree_CH32V103R8T6_Opensource_Library\obj/../Libraries/seekfree_libraries/zf_qtimer.c:75 (discriminator 1)
    else  if(TIMER_4 == timern) RCC_APB1PeriphClockCmd(RCC_APB1Periph_TIM4, ENABLE);//使能定时器4的时钟
    2508:	4585                	li	a1,1
    250a:	4511                	li	a0,4
    250c:	dc0fe0ef          	jal	ra,acc <RCC_APB1PeriphClockCmd>
    2510:	b745                	j	24b0 <timer_quad_init+0x24>
D:\1.intelligent vehicle\new try\seefree\Seekfree_CH32V103R8T6_Opensource_Library\obj/../Libraries/seekfree_libraries/zf_qtimer.c:81 (discriminator 1)
    if(TIMER2_CHA_A15 == phaseA && TIMER2_CHB_B3 == phaseB)                         //引脚重映射
    2512:	4795                	li	a5,5
    2514:	04f90b63          	beq	s2,a5,256a <timer_quad_init+0xde>
D:\1.intelligent vehicle\new try\seefree\Seekfree_CH32V103R8T6_Opensource_Library\obj/../Libraries/seekfree_libraries/zf_qtimer.c:88

    TIM_TimeBaseStructInit(&TIM_TimeBaseStructure);
    2518:	0048                	addi	a0,sp,4
    251a:	995fe0ef          	jal	ra,eae <TIM_TimeBaseStructInit>
D:\1.intelligent vehicle\new try\seefree\Seekfree_CH32V103R8T6_Opensource_Library\obj/../Libraries/seekfree_libraries/zf_qtimer.c:89
    TIM_TimeBaseStructure.TIM_Prescaler = 1;                                        //预分频器
    251e:	4785                	li	a5,1
    2520:	00f11223          	sh	a5,4(sp)
D:\1.intelligent vehicle\new try\seefree\Seekfree_CH32V103R8T6_Opensource_Library\obj/../Libraries/seekfree_libraries/zf_qtimer.c:90
    TIM_TimeBaseStructure.TIM_Period = 0xFFFF;                                      //设定计数器自动重装值
    2524:	57fd                	li	a5,-1
    2526:	00f11423          	sh	a5,8(sp)
D:\1.intelligent vehicle\new try\seefree\Seekfree_CH32V103R8T6_Opensource_Library\obj/../Libraries/seekfree_libraries/zf_qtimer.c:91
    TIM_TimeBaseStructure.TIM_ClockDivision = TIM_CKD_DIV1;                         //选择时钟分频：不分频
    252a:	00011523          	sh	zero,10(sp)
D:\1.intelligent vehicle\new try\seefree\Seekfree_CH32V103R8T6_Opensource_Library\obj/../Libraries/seekfree_libraries/zf_qtimer.c:92
    TIM_TimeBaseStructure.TIM_CounterMode = TIM_CounterMode_Up;                     //TIM向上计数
    252e:	00011323          	sh	zero,6(sp)
D:\1.intelligent vehicle\new try\seefree\Seekfree_CH32V103R8T6_Opensource_Library\obj/../Libraries/seekfree_libraries/zf_qtimer.c:93
    TIM_TimeBaseStructure.TIM_RepetitionCounter = 0;                                //重复计数器
    2532:	00010623          	sb	zero,12(sp)
D:\1.intelligent vehicle\new try\seefree\Seekfree_CH32V103R8T6_Opensource_Library\obj/../Libraries/seekfree_libraries/zf_qtimer.c:94
    TIM_TimeBaseInit((TIM_TypeDef*)(TIMERN[timern]), &TIM_TimeBaseStructure);       //初始化结构体
    2536:	040a                	slli	s0,s0,0x2
    2538:	6799                	lui	a5,0x6
    253a:	c6478793          	addi	a5,a5,-924 # 5c64 <TIMERN>
    253e:	943e                	add	s0,s0,a5
    2540:	4000                	lw	s0,0(s0)
    2542:	004c                	addi	a1,sp,4
    2544:	8522                	mv	a0,s0
    2546:	e42fe0ef          	jal	ra,b88 <TIM_TimeBaseInit>
D:\1.intelligent vehicle\new try\seefree\Seekfree_CH32V103R8T6_Opensource_Library\obj/../Libraries/seekfree_libraries/zf_qtimer.c:95
    TIM_EncoderInterfaceConfig((TIM_TypeDef*)(TIMERN[timern]), TIM_EncoderMode_TI2 , TIM_ICPolarity_Rising, TIM_ICPolarity_Rising);//使用编码器模式
    254a:	4681                	li	a3,0
    254c:	4601                	li	a2,0
    254e:	4589                	li	a1,2
    2550:	8522                	mv	a0,s0
    2552:	9b7fe0ef          	jal	ra,f08 <TIM_EncoderInterfaceConfig>
D:\1.intelligent vehicle\new try\seefree\Seekfree_CH32V103R8T6_Opensource_Library\obj/../Libraries/seekfree_libraries/zf_qtimer.c:97

    TIM_Cmd((TIM_TypeDef*)(TIMERN[timern]), ENABLE);                                //定时器使能
    2556:	4585                	li	a1,1
    2558:	8522                	mv	a0,s0
    255a:	96dfe0ef          	jal	ra,ec6 <TIM_Cmd>
D:\1.intelligent vehicle\new try\seefree\Seekfree_CH32V103R8T6_Opensource_Library\obj/../Libraries/seekfree_libraries/zf_qtimer.c:98
}
    255e:	40f2                	lw	ra,28(sp)
    2560:	4462                	lw	s0,24(sp)
    2562:	44d2                	lw	s1,20(sp)
    2564:	4942                	lw	s2,16(sp)
    2566:	6105                	addi	sp,sp,32
    2568:	8082                	ret
D:\1.intelligent vehicle\new try\seefree\Seekfree_CH32V103R8T6_Opensource_Library\obj/../Libraries/seekfree_libraries/zf_qtimer.c:82
        GPIO_PinRemapConfig(GPIO_FullRemap_TIM2, ENABLE);
    256a:	4585                	li	a1,1
    256c:	00180537          	lui	a0,0x180
    2570:	30050513          	addi	a0,a0,768 # 180300 <_data_lma+0x17a410>
    2574:	ac2fe0ef          	jal	ra,836 <GPIO_PinRemapConfig>
    2578:	b745                	j	2518 <timer_quad_init+0x8c>
D:\1.intelligent vehicle\new try\seefree\Seekfree_CH32V103R8T6_Opensource_Library\obj/../Libraries/seekfree_libraries/zf_qtimer.c:83 (discriminator 1)
    else    if(TIMER3_CHA_C6 == phaseA && TIMER3_CHB_C7 == phaseB)
    257a:	47a5                	li	a5,9
    257c:	f8f91ee3          	bne	s2,a5,2518 <timer_quad_init+0x8c>
D:\1.intelligent vehicle\new try\seefree\Seekfree_CH32V103R8T6_Opensource_Library\obj/../Libraries/seekfree_libraries/zf_qtimer.c:84
        GPIO_PinRemapConfig(GPIO_FullRemap_TIM3, ENABLE);
    2580:	4585                	li	a1,1
    2582:	001a1537          	lui	a0,0x1a1
    2586:	c0050513          	addi	a0,a0,-1024 # 1a0c00 <_data_lma+0x19ad10>
    258a:	aacfe0ef          	jal	ra,836 <GPIO_PinRemapConfig>
    258e:	b769                	j	2518 <timer_quad_init+0x8c>

00002590 <timer_quad_get>:
timer_quad_get():
D:\1.intelligent vehicle\new try\seefree\Seekfree_CH32V103R8T6_Opensource_Library\obj/../Libraries/seekfree_libraries/zf_qtimer.c:108
//  @return     void
//  Sample usage:
//-------------------------------------------------------------------------------------------------------------------
int16 timer_quad_get(TIMERN_enum timern)
{
    int16 count = ((TIM_TypeDef*)(TIMERN[timern]))->CNT;
    2590:	050a                	slli	a0,a0,0x2
    2592:	6799                	lui	a5,0x6
    2594:	c6478793          	addi	a5,a5,-924 # 5c64 <TIMERN>
    2598:	97aa                	add	a5,a5,a0
    259a:	439c                	lw	a5,0(a5)
    259c:	0247d503          	lhu	a0,36(a5)
D:\1.intelligent vehicle\new try\seefree\Seekfree_CH32V103R8T6_Opensource_Library\obj/../Libraries/seekfree_libraries/zf_qtimer.c:110
    return count;
}
    25a0:	0542                	slli	a0,a0,0x10
    25a2:	8541                	srai	a0,a0,0x10
    25a4:	8082                	ret

000025a6 <timer_quad_clear>:
timer_quad_clear():
D:\1.intelligent vehicle\new try\seefree\Seekfree_CH32V103R8T6_Opensource_Library\obj/../Libraries/seekfree_libraries/zf_qtimer.c:120
//  @return     void
//  Sample usage:
//-------------------------------------------------------------------------------------------------------------------
void timer_quad_clear(TIMERN_enum timern)
{
    ((TIM_TypeDef*)(TIMERN[timern]))->CNT = 0;
    25a6:	050a                	slli	a0,a0,0x2
    25a8:	6799                	lui	a5,0x6
    25aa:	c6478793          	addi	a5,a5,-924 # 5c64 <TIMERN>
    25ae:	97aa                	add	a5,a5,a0
    25b0:	439c                	lw	a5,0(a5)
    25b2:	02079223          	sh	zero,36(a5)
D:\1.intelligent vehicle\new try\seefree\Seekfree_CH32V103R8T6_Opensource_Library\obj/../Libraries/seekfree_libraries/zf_qtimer.c:121
}
    25b6:	8082                	ret

000025b8 <spi_gpio_init>:
spi_gpio_init():
D:\1.intelligent vehicle\new try\seefree\Seekfree_CH32V103R8T6_Opensource_Library\obj/../Libraries/seekfree_libraries/zf_spi.c:41
//  @param      cs_pin      片选引脚(可选择范围由common.h内PIN_enum枚举值确定)
//  @return     void
//  Sample usage:           内部使用  用户无需关心
//-------------------------------------------------------------------------------------------------------------------
void spi_gpio_init(SPI_PIN_enum sck_pin, SPI_PIN_enum mosi_pin, SPI_PIN_enum miso_pin, PIN_enum cs_pin)
{
    25b8:	1141                	addi	sp,sp,-16
    25ba:	c606                	sw	ra,12(sp)
    25bc:	c422                	sw	s0,8(sp)
    25be:	c226                	sw	s1,4(sp)
    25c0:	c04a                	sw	s2,0(sp)
    25c2:	84ae                	mv	s1,a1
    25c4:	8432                	mv	s0,a2
    25c6:	8936                	mv	s2,a3
D:\1.intelligent vehicle\new try\seefree\Seekfree_CH32V103R8T6_Opensource_Library\obj/../Libraries/seekfree_libraries/zf_spi.c:42
    if(SPI1_SCK_PA5 == sck_pin) gpio_init(A5, GPO, 1, SPEED_50MHZ|OUT_AF_PP);
    25c8:	cd2d                	beqz	a0,2642 <spi_gpio_init+0x8a>
D:\1.intelligent vehicle\new try\seefree\Seekfree_CH32V103R8T6_Opensource_Library\obj/../Libraries/seekfree_libraries/zf_spi.c:43
    else if(SPI1_SCK_PB3 == sck_pin) gpio_init(B3, GPO, 1, SPEED_50MHZ|OUT_AF_PP);
    25ca:	47c1                	li	a5,16
    25cc:	08f50363          	beq	a0,a5,2652 <spi_gpio_init+0x9a>
D:\1.intelligent vehicle\new try\seefree\Seekfree_CH32V103R8T6_Opensource_Library\obj/../Libraries/seekfree_libraries/zf_spi.c:44
    else if(SPI2_SCK_PB13 == sck_pin) gpio_init(B13, GPO, 1, SPEED_50MHZ|OUT_AF_PP);
    25d0:	02000793          	li	a5,32
    25d4:	08f51863          	bne	a0,a5,2664 <spi_gpio_init+0xac>
D:\1.intelligent vehicle\new try\seefree\Seekfree_CH32V103R8T6_Opensource_Library\obj/../Libraries/seekfree_libraries/zf_spi.c:44 (discriminator 1)
    25d8:	31800693          	li	a3,792
    25dc:	4605                	li	a2,1
    25de:	4585                	li	a1,1
    25e0:	02d00513          	li	a0,45
    25e4:	dd4ff0ef          	jal	ra,1bb8 <gpio_init>
D:\1.intelligent vehicle\new try\seefree\Seekfree_CH32V103R8T6_Opensource_Library\obj/../Libraries/seekfree_libraries/zf_spi.c:47
    else assert(0);         //无此参数进入断言

    if(SPI1_MOSI_PA7 == mosi_pin) gpio_init(A7, GPO, 1, SPEED_50MHZ|OUT_AF_PP);
    25e8:	4785                	li	a5,1
    25ea:	08f48c63          	beq	s1,a5,2682 <spi_gpio_init+0xca>
D:\1.intelligent vehicle\new try\seefree\Seekfree_CH32V103R8T6_Opensource_Library\obj/../Libraries/seekfree_libraries/zf_spi.c:48
    else if(SPI1_MOSI_PB5 == mosi_pin) gpio_init(B5, GPO, 1, SPEED_50MHZ|OUT_AF_PP);
    25ee:	47c5                	li	a5,17
    25f0:	0af48163          	beq	s1,a5,2692 <spi_gpio_init+0xda>
D:\1.intelligent vehicle\new try\seefree\Seekfree_CH32V103R8T6_Opensource_Library\obj/../Libraries/seekfree_libraries/zf_spi.c:49
    else if(SPI2_MOSI_PB15 == mosi_pin) gpio_init(B15, GPO, 1, SPEED_50MHZ|OUT_AF_PP);
    25f4:	02100793          	li	a5,33
    25f8:	0af49663          	bne	s1,a5,26a4 <spi_gpio_init+0xec>
D:\1.intelligent vehicle\new try\seefree\Seekfree_CH32V103R8T6_Opensource_Library\obj/../Libraries/seekfree_libraries/zf_spi.c:49 (discriminator 1)
    25fc:	31800693          	li	a3,792
    2600:	4605                	li	a2,1
    2602:	4585                	li	a1,1
    2604:	02f00513          	li	a0,47
    2608:	db0ff0ef          	jal	ra,1bb8 <gpio_init>
D:\1.intelligent vehicle\new try\seefree\Seekfree_CH32V103R8T6_Opensource_Library\obj/../Libraries/seekfree_libraries/zf_spi.c:52
    else assert(0);         //无此参数进入断言

    if(SPI1_MISO_PA6 == miso_pin) gpio_init(A6, GPO, 1, SPEED_50MHZ|OUT_AF_PP);
    260c:	4789                	li	a5,2
    260e:	0af40a63          	beq	s0,a5,26c2 <spi_gpio_init+0x10a>
D:\1.intelligent vehicle\new try\seefree\Seekfree_CH32V103R8T6_Opensource_Library\obj/../Libraries/seekfree_libraries/zf_spi.c:53
    else if(SPI1_MISO_PB4 == miso_pin) gpio_init(B4, GPO, 1, SPEED_50MHZ|OUT_AF_PP);
    2612:	47c9                	li	a5,18
    2614:	0af40f63          	beq	s0,a5,26d2 <spi_gpio_init+0x11a>
D:\1.intelligent vehicle\new try\seefree\Seekfree_CH32V103R8T6_Opensource_Library\obj/../Libraries/seekfree_libraries/zf_spi.c:54
    else if(SPI2_MISO_PB14 == miso_pin) gpio_init(B14, GPO, 1, SPEED_50MHZ|OUT_AF_PP);
    2618:	02200793          	li	a5,34
    261c:	0cf40463          	beq	s0,a5,26e4 <spi_gpio_init+0x12c>
D:\1.intelligent vehicle\new try\seefree\Seekfree_CH32V103R8T6_Opensource_Library\obj/../Libraries/seekfree_libraries/zf_spi.c:55
    else if(SPI_MISO_NULL == miso_pin)  miso_pin = SPI_MISO_NULL;
    2620:	02300793          	li	a5,35
    2624:	0cf41963          	bne	s0,a5,26f6 <spi_gpio_init+0x13e>
D:\1.intelligent vehicle\new try\seefree\Seekfree_CH32V103R8T6_Opensource_Library\obj/../Libraries/seekfree_libraries/zf_spi.c:59
    else  assert(0);         //无此参数进入断言


    gpio_init(cs_pin, GPO, 1, SPEED_50MHZ|OUT_PP);
    2628:	31000693          	li	a3,784
    262c:	4605                	li	a2,1
    262e:	4585                	li	a1,1
    2630:	854a                	mv	a0,s2
    2632:	d86ff0ef          	jal	ra,1bb8 <gpio_init>
D:\1.intelligent vehicle\new try\seefree\Seekfree_CH32V103R8T6_Opensource_Library\obj/../Libraries/seekfree_libraries/zf_spi.c:61

}
    2636:	40b2                	lw	ra,12(sp)
    2638:	4422                	lw	s0,8(sp)
    263a:	4492                	lw	s1,4(sp)
    263c:	4902                	lw	s2,0(sp)
    263e:	0141                	addi	sp,sp,16
    2640:	8082                	ret
D:\1.intelligent vehicle\new try\seefree\Seekfree_CH32V103R8T6_Opensource_Library\obj/../Libraries/seekfree_libraries/zf_spi.c:42 (discriminator 1)
    if(SPI1_SCK_PA5 == sck_pin) gpio_init(A5, GPO, 1, SPEED_50MHZ|OUT_AF_PP);
    2642:	31800693          	li	a3,792
    2646:	4605                	li	a2,1
    2648:	4585                	li	a1,1
    264a:	4515                	li	a0,5
    264c:	d6cff0ef          	jal	ra,1bb8 <gpio_init>
    2650:	bf61                	j	25e8 <spi_gpio_init+0x30>
D:\1.intelligent vehicle\new try\seefree\Seekfree_CH32V103R8T6_Opensource_Library\obj/../Libraries/seekfree_libraries/zf_spi.c:43 (discriminator 1)
    else if(SPI1_SCK_PB3 == sck_pin) gpio_init(B3, GPO, 1, SPEED_50MHZ|OUT_AF_PP);
    2652:	31800693          	li	a3,792
    2656:	4605                	li	a2,1
    2658:	4585                	li	a1,1
    265a:	02300513          	li	a0,35
    265e:	d5aff0ef          	jal	ra,1bb8 <gpio_init>
    2662:	b759                	j	25e8 <spi_gpio_init+0x30>
D:\1.intelligent vehicle\new try\seefree\Seekfree_CH32V103R8T6_Opensource_Library\obj/../Libraries/seekfree_libraries/zf_spi.c:45
    else assert(0);         //无此参数进入断言
    2664:	000066b7          	lui	a3,0x6
    2668:	c8468693          	addi	a3,a3,-892 # 5c84 <__func__.3349+0x10>
    266c:	6619                	lui	a2,0x6
    266e:	c7460613          	addi	a2,a2,-908 # 5c74 <__func__.3349>
    2672:	02d00593          	li	a1,45
    2676:	00006537          	lui	a0,0x6
    267a:	c8850513          	addi	a0,a0,-888 # 5c88 <__func__.3349+0x14>
    267e:	517010ef          	jal	ra,4394 <__assert_func>
D:\1.intelligent vehicle\new try\seefree\Seekfree_CH32V103R8T6_Opensource_Library\obj/../Libraries/seekfree_libraries/zf_spi.c:47 (discriminator 1)
    if(SPI1_MOSI_PA7 == mosi_pin) gpio_init(A7, GPO, 1, SPEED_50MHZ|OUT_AF_PP);
    2682:	31800693          	li	a3,792
    2686:	4605                	li	a2,1
    2688:	4585                	li	a1,1
    268a:	451d                	li	a0,7
    268c:	d2cff0ef          	jal	ra,1bb8 <gpio_init>
    2690:	bfb5                	j	260c <spi_gpio_init+0x54>
D:\1.intelligent vehicle\new try\seefree\Seekfree_CH32V103R8T6_Opensource_Library\obj/../Libraries/seekfree_libraries/zf_spi.c:48 (discriminator 1)
    else if(SPI1_MOSI_PB5 == mosi_pin) gpio_init(B5, GPO, 1, SPEED_50MHZ|OUT_AF_PP);
    2692:	31800693          	li	a3,792
    2696:	4605                	li	a2,1
    2698:	4585                	li	a1,1
    269a:	02500513          	li	a0,37
    269e:	d1aff0ef          	jal	ra,1bb8 <gpio_init>
    26a2:	b7ad                	j	260c <spi_gpio_init+0x54>
D:\1.intelligent vehicle\new try\seefree\Seekfree_CH32V103R8T6_Opensource_Library\obj/../Libraries/seekfree_libraries/zf_spi.c:50
    else assert(0);         //无此参数进入断言
    26a4:	000066b7          	lui	a3,0x6
    26a8:	c8468693          	addi	a3,a3,-892 # 5c84 <__func__.3349+0x10>
    26ac:	6619                	lui	a2,0x6
    26ae:	c7460613          	addi	a2,a2,-908 # 5c74 <__func__.3349>
    26b2:	03200593          	li	a1,50
    26b6:	00006537          	lui	a0,0x6
    26ba:	c8850513          	addi	a0,a0,-888 # 5c88 <__func__.3349+0x14>
    26be:	4d7010ef          	jal	ra,4394 <__assert_func>
D:\1.intelligent vehicle\new try\seefree\Seekfree_CH32V103R8T6_Opensource_Library\obj/../Libraries/seekfree_libraries/zf_spi.c:52 (discriminator 1)
    if(SPI1_MISO_PA6 == miso_pin) gpio_init(A6, GPO, 1, SPEED_50MHZ|OUT_AF_PP);
    26c2:	31800693          	li	a3,792
    26c6:	4605                	li	a2,1
    26c8:	4585                	li	a1,1
    26ca:	4519                	li	a0,6
    26cc:	cecff0ef          	jal	ra,1bb8 <gpio_init>
    26d0:	bfa1                	j	2628 <spi_gpio_init+0x70>
D:\1.intelligent vehicle\new try\seefree\Seekfree_CH32V103R8T6_Opensource_Library\obj/../Libraries/seekfree_libraries/zf_spi.c:53 (discriminator 1)
    else if(SPI1_MISO_PB4 == miso_pin) gpio_init(B4, GPO, 1, SPEED_50MHZ|OUT_AF_PP);
    26d2:	31800693          	li	a3,792
    26d6:	4605                	li	a2,1
    26d8:	4585                	li	a1,1
    26da:	02400513          	li	a0,36
    26de:	cdaff0ef          	jal	ra,1bb8 <gpio_init>
    26e2:	b799                	j	2628 <spi_gpio_init+0x70>
D:\1.intelligent vehicle\new try\seefree\Seekfree_CH32V103R8T6_Opensource_Library\obj/../Libraries/seekfree_libraries/zf_spi.c:54 (discriminator 1)
    else if(SPI2_MISO_PB14 == miso_pin) gpio_init(B14, GPO, 1, SPEED_50MHZ|OUT_AF_PP);
    26e4:	31800693          	li	a3,792
    26e8:	4605                	li	a2,1
    26ea:	4585                	li	a1,1
    26ec:	02e00513          	li	a0,46
    26f0:	cc8ff0ef          	jal	ra,1bb8 <gpio_init>
    26f4:	bf15                	j	2628 <spi_gpio_init+0x70>
D:\1.intelligent vehicle\new try\seefree\Seekfree_CH32V103R8T6_Opensource_Library\obj/../Libraries/seekfree_libraries/zf_spi.c:56
    else  assert(0);         //无此参数进入断言
    26f6:	000066b7          	lui	a3,0x6
    26fa:	c8468693          	addi	a3,a3,-892 # 5c84 <__func__.3349+0x10>
    26fe:	6619                	lui	a2,0x6
    2700:	c7460613          	addi	a2,a2,-908 # 5c74 <__func__.3349>
    2704:	03800593          	li	a1,56
    2708:	00006537          	lui	a0,0x6
    270c:	c8850513          	addi	a0,a0,-888 # 5c88 <__func__.3349+0x14>
    2710:	485010ef          	jal	ra,4394 <__assert_func>

00002714 <spi_init>:
spi_init():
D:\1.intelligent vehicle\new try\seefree\Seekfree_CH32V103R8T6_Opensource_Library\obj/../Libraries/seekfree_libraries/zf_spi.c:85
        SPI_PIN_enum mosi_pin,
        SPI_PIN_enum miso_pin,
        PIN_enum cs_pin,
        uint8 mode,
        SPI_SPEED_enum BaudRatePrescaler)
{
    2714:	7139                	addi	sp,sp,-64
    2716:	de06                	sw	ra,60(sp)
    2718:	dc22                	sw	s0,56(sp)
    271a:	da26                	sw	s1,52(sp)
    271c:	d84a                	sw	s2,48(sp)
    271e:	d64e                	sw	s3,44(sp)
    2720:	d452                	sw	s4,40(sp)
    2722:	d256                	sw	s5,36(sp)
    2724:	d05a                	sw	s6,32(sp)
    2726:	842a                	mv	s0,a0
    2728:	89ae                	mv	s3,a1
    272a:	8a32                	mv	s4,a2
    272c:	8ab6                	mv	s5,a3
    272e:	8b3a                	mv	s6,a4
    2730:	84be                	mv	s1,a5
    2732:	8942                	mv	s2,a6
D:\1.intelligent vehicle\new try\seefree\Seekfree_CH32V103R8T6_Opensource_Library\obj/../Libraries/seekfree_libraries/zf_spi.c:89

    SPI_InitTypeDef  SPI_InitStructure;

    if(SPI_1 == spi_n)
    2734:	c549                	beqz	a0,27be <spi_init+0xaa>
D:\1.intelligent vehicle\new try\seefree\Seekfree_CH32V103R8T6_Opensource_Library\obj/../Libraries/seekfree_libraries/zf_spi.c:93
    {
        RCC_APB2PeriphClockCmd(RCC_APB2Periph_SPI1 | RCC_APB2Periph_AFIO, ENABLE);                //SPI1时钟使能
    }
    else if(SPI_2 == spi_n)
    2736:	4785                	li	a5,1
    2738:	08f50963          	beq	a0,a5,27ca <spi_init+0xb6>
D:\1.intelligent vehicle\new try\seefree\Seekfree_CH32V103R8T6_Opensource_Library\obj/../Libraries/seekfree_libraries/zf_spi.c:98
    {
        RCC_APB1PeriphClockCmd(RCC_APB1Periph_SPI2 | RCC_APB2Periph_AFIO, ENABLE);                //SPI2时钟使能
    }

    spi_gpio_init(sck_pin, mosi_pin, miso_pin, cs_pin);
    273c:	86da                	mv	a3,s6
    273e:	8656                	mv	a2,s5
    2740:	85d2                	mv	a1,s4
    2742:	854e                	mv	a0,s3
    2744:	e75ff0ef          	jal	ra,25b8 <spi_gpio_init>
D:\1.intelligent vehicle\new try\seefree\Seekfree_CH32V103R8T6_Opensource_Library\obj/../Libraries/seekfree_libraries/zf_spi.c:100

    SPI_InitStructure.SPI_Direction = SPI_Direction_2Lines_FullDuplex;      //SPI设置为双线双向全双工
    2748:	00011623          	sh	zero,12(sp)
D:\1.intelligent vehicle\new try\seefree\Seekfree_CH32V103R8T6_Opensource_Library\obj/../Libraries/seekfree_libraries/zf_spi.c:101
    SPI_InitStructure.SPI_Mode = SPI_Mode_Master;                           //设置SPI工作模式:设置为主SPI
    274c:	10400793          	li	a5,260
    2750:	00f11723          	sh	a5,14(sp)
D:\1.intelligent vehicle\new try\seefree\Seekfree_CH32V103R8T6_Opensource_Library\obj/../Libraries/seekfree_libraries/zf_spi.c:102
    SPI_InitStructure.SPI_DataSize = SPI_DataSize_8b;                       //设置SPI的数据大小:SPI发送接收8位帧结构
    2754:	00011823          	sh	zero,16(sp)
D:\1.intelligent vehicle\new try\seefree\Seekfree_CH32V103R8T6_Opensource_Library\obj/../Libraries/seekfree_libraries/zf_spi.c:104

    switch(mode)
    2758:	4785                	li	a5,1
    275a:	08f48363          	beq	s1,a5,27e0 <spi_init+0xcc>
    275e:	01849793          	slli	a5,s1,0x18
    2762:	87e1                	srai	a5,a5,0x18
    2764:	cbad                	beqz	a5,27d6 <spi_init+0xc2>
    2766:	4789                	li	a5,2
    2768:	08f48263          	beq	s1,a5,27ec <spi_init+0xd8>
    276c:	478d                	li	a5,3
    276e:	08f48563          	beq	s1,a5,27f8 <spi_init+0xe4>
D:\1.intelligent vehicle\new try\seefree\Seekfree_CH32V103R8T6_Opensource_Library\obj/../Libraries/seekfree_libraries/zf_spi.c:128
            SPI_InitStructure.SPI_CPOL = SPI_CPOL_High;                     //串行同步时钟的空闲状态为高电平
            SPI_InitStructure.SPI_CPHA = SPI_CPHA_2Edge;                    //串行同步时钟的第二个跳变沿（上升或下降）数据被采样
        }break;
    }

    SPI_InitStructure.SPI_NSS = SPI_NSS_Soft;                               //主机模式，使用软件控制NSS引脚
    2772:	20000793          	li	a5,512
    2776:	00f11b23          	sh	a5,22(sp)
D:\1.intelligent vehicle\new try\seefree\Seekfree_CH32V103R8T6_Opensource_Library\obj/../Libraries/seekfree_libraries/zf_spi.c:129
    SPI_InitStructure.SPI_BaudRatePrescaler = BaudRatePrescaler << 3;       //定义波特率预分频的值
    277a:	090e                	slli	s2,s2,0x3
    277c:	01211c23          	sh	s2,24(sp)
D:\1.intelligent vehicle\new try\seefree\Seekfree_CH32V103R8T6_Opensource_Library\obj/../Libraries/seekfree_libraries/zf_spi.c:130
    SPI_InitStructure.SPI_FirstBit = SPI_FirstBit_MSB;                      //指定数据传输从MSB位还是LSB位开始:数据传输从MSB位开始
    2780:	00011d23          	sh	zero,26(sp)
D:\1.intelligent vehicle\new try\seefree\Seekfree_CH32V103R8T6_Opensource_Library\obj/../Libraries/seekfree_libraries/zf_spi.c:131
    SPI_InitStructure.SPI_CRCPolynomial = 7;                                //CRC值计算的多项式
    2784:	479d                	li	a5,7
    2786:	00f11e23          	sh	a5,28(sp)
D:\1.intelligent vehicle\new try\seefree\Seekfree_CH32V103R8T6_Opensource_Library\obj/../Libraries/seekfree_libraries/zf_spi.c:132
    SPI_Init((SPI_TypeDef *)(SPIN[spi_n]), &SPI_InitStructure);             //根据SPI_InitStruct中指定的参数初始化外设SPIx寄存器
    278a:	040a                	slli	s0,s0,0x2
    278c:	82c18513          	addi	a0,gp,-2004 # 2000009c <SPIN>
    2790:	9522                	add	a0,a0,s0
    2792:	4100                	lw	s0,0(a0)
    2794:	006c                	addi	a1,sp,12
    2796:	8522                	mv	a0,s0
    2798:	b70fe0ef          	jal	ra,b08 <SPI_Init>
D:\1.intelligent vehicle\new try\seefree\Seekfree_CH32V103R8T6_Opensource_Library\obj/../Libraries/seekfree_libraries/zf_spi.c:134

    if(SPI1_SCK_PB3 == sck_pin) GPIO_PinRemapConfig(GPIO_Remap_SPI1, ENABLE);
    279c:	47c1                	li	a5,16
    279e:	06f98463          	beq	s3,a5,2806 <spi_init+0xf2>
D:\1.intelligent vehicle\new try\seefree\Seekfree_CH32V103R8T6_Opensource_Library\obj/../Libraries/seekfree_libraries/zf_spi.c:136

    SPI_Cmd(((SPI_TypeDef *)(SPIN[spi_n])), ENABLE);                         //使能SPI外设
    27a2:	4585                	li	a1,1
    27a4:	8522                	mv	a0,s0
    27a6:	bbcfe0ef          	jal	ra,b62 <SPI_Cmd>
D:\1.intelligent vehicle\new try\seefree\Seekfree_CH32V103R8T6_Opensource_Library\obj/../Libraries/seekfree_libraries/zf_spi.c:138

}
    27aa:	50f2                	lw	ra,60(sp)
    27ac:	5462                	lw	s0,56(sp)
    27ae:	54d2                	lw	s1,52(sp)
    27b0:	5942                	lw	s2,48(sp)
    27b2:	59b2                	lw	s3,44(sp)
    27b4:	5a22                	lw	s4,40(sp)
    27b6:	5a92                	lw	s5,36(sp)
    27b8:	5b02                	lw	s6,32(sp)
    27ba:	6121                	addi	sp,sp,64
    27bc:	8082                	ret
D:\1.intelligent vehicle\new try\seefree\Seekfree_CH32V103R8T6_Opensource_Library\obj/../Libraries/seekfree_libraries/zf_spi.c:91
        RCC_APB2PeriphClockCmd(RCC_APB2Periph_SPI1 | RCC_APB2Periph_AFIO, ENABLE);                //SPI1时钟使能
    27be:	4585                	li	a1,1
    27c0:	6505                	lui	a0,0x1
    27c2:	0505                	addi	a0,a0,1
    27c4:	aeafe0ef          	jal	ra,aae <RCC_APB2PeriphClockCmd>
    27c8:	bf95                	j	273c <spi_init+0x28>
D:\1.intelligent vehicle\new try\seefree\Seekfree_CH32V103R8T6_Opensource_Library\obj/../Libraries/seekfree_libraries/zf_spi.c:95
        RCC_APB1PeriphClockCmd(RCC_APB1Periph_SPI2 | RCC_APB2Periph_AFIO, ENABLE);                //SPI2时钟使能
    27ca:	4585                	li	a1,1
    27cc:	6511                	lui	a0,0x4
    27ce:	0505                	addi	a0,a0,1
    27d0:	afcfe0ef          	jal	ra,acc <RCC_APB1PeriphClockCmd>
    27d4:	b7a5                	j	273c <spi_init+0x28>
D:\1.intelligent vehicle\new try\seefree\Seekfree_CH32V103R8T6_Opensource_Library\obj/../Libraries/seekfree_libraries/zf_spi.c:108
            SPI_InitStructure.SPI_CPOL = SPI_CPOL_Low;                      //串行同步时钟的空闲状态为低电平
    27d6:	00011923          	sh	zero,18(sp)
D:\1.intelligent vehicle\new try\seefree\Seekfree_CH32V103R8T6_Opensource_Library\obj/../Libraries/seekfree_libraries/zf_spi.c:109
            SPI_InitStructure.SPI_CPHA = SPI_CPHA_1Edge;                    //串行同步时钟的第一个跳变沿（上升或下降）数据被采样
    27da:	00011a23          	sh	zero,20(sp)
D:\1.intelligent vehicle\new try\seefree\Seekfree_CH32V103R8T6_Opensource_Library\obj/../Libraries/seekfree_libraries/zf_spi.c:110
        }break;
    27de:	bf51                	j	2772 <spi_init+0x5e>
D:\1.intelligent vehicle\new try\seefree\Seekfree_CH32V103R8T6_Opensource_Library\obj/../Libraries/seekfree_libraries/zf_spi.c:113
            SPI_InitStructure.SPI_CPOL = SPI_CPOL_Low;                      //串行同步时钟的空闲状态为低电平
    27e0:	00011923          	sh	zero,18(sp)
D:\1.intelligent vehicle\new try\seefree\Seekfree_CH32V103R8T6_Opensource_Library\obj/../Libraries/seekfree_libraries/zf_spi.c:114
            SPI_InitStructure.SPI_CPHA = SPI_CPHA_2Edge;                    //串行同步时钟的第二个跳变沿（上升或下降）数据被采样
    27e4:	4785                	li	a5,1
    27e6:	00f11a23          	sh	a5,20(sp)
D:\1.intelligent vehicle\new try\seefree\Seekfree_CH32V103R8T6_Opensource_Library\obj/../Libraries/seekfree_libraries/zf_spi.c:115
        }break;
    27ea:	b761                	j	2772 <spi_init+0x5e>
D:\1.intelligent vehicle\new try\seefree\Seekfree_CH32V103R8T6_Opensource_Library\obj/../Libraries/seekfree_libraries/zf_spi.c:118
            SPI_InitStructure.SPI_CPOL = SPI_CPOL_High;                     //串行同步时钟的空闲状态为高电平
    27ec:	4789                	li	a5,2
    27ee:	00f11923          	sh	a5,18(sp)
D:\1.intelligent vehicle\new try\seefree\Seekfree_CH32V103R8T6_Opensource_Library\obj/../Libraries/seekfree_libraries/zf_spi.c:119
            SPI_InitStructure.SPI_CPHA = SPI_CPHA_1Edge;                    //串行同步时钟的第一个跳变沿（上升或下降）数据被采样
    27f2:	00011a23          	sh	zero,20(sp)
D:\1.intelligent vehicle\new try\seefree\Seekfree_CH32V103R8T6_Opensource_Library\obj/../Libraries/seekfree_libraries/zf_spi.c:120
        }break;
    27f6:	bfb5                	j	2772 <spi_init+0x5e>
D:\1.intelligent vehicle\new try\seefree\Seekfree_CH32V103R8T6_Opensource_Library\obj/../Libraries/seekfree_libraries/zf_spi.c:123
            SPI_InitStructure.SPI_CPOL = SPI_CPOL_High;                     //串行同步时钟的空闲状态为高电平
    27f8:	4789                	li	a5,2
    27fa:	00f11923          	sh	a5,18(sp)
D:\1.intelligent vehicle\new try\seefree\Seekfree_CH32V103R8T6_Opensource_Library\obj/../Libraries/seekfree_libraries/zf_spi.c:124
            SPI_InitStructure.SPI_CPHA = SPI_CPHA_2Edge;                    //串行同步时钟的第二个跳变沿（上升或下降）数据被采样
    27fe:	4785                	li	a5,1
    2800:	00f11a23          	sh	a5,20(sp)
D:\1.intelligent vehicle\new try\seefree\Seekfree_CH32V103R8T6_Opensource_Library\obj/../Libraries/seekfree_libraries/zf_spi.c:125
        }break;
    2804:	b7bd                	j	2772 <spi_init+0x5e>
D:\1.intelligent vehicle\new try\seefree\Seekfree_CH32V103R8T6_Opensource_Library\obj/../Libraries/seekfree_libraries/zf_spi.c:134 (discriminator 1)
    if(SPI1_SCK_PB3 == sck_pin) GPIO_PinRemapConfig(GPIO_Remap_SPI1, ENABLE);
    2806:	4585                	li	a1,1
    2808:	4505                	li	a0,1
    280a:	82cfe0ef          	jal	ra,836 <GPIO_PinRemapConfig>
    280e:	bf51                	j	27a2 <spi_init+0x8e>

00002810 <spi_mosi>:
spi_mosi():
D:\1.intelligent vehicle\new try\seefree\Seekfree_CH32V103R8T6_Opensource_Library\obj/../Libraries/seekfree_libraries/zf_spi.c:153
//  Sample usage:               spi_mosi(SPI_1, buf, buf, 1);    //发送modata的内容，并接收到midata里，长度为1字节
//-------------------------------------------------------------------------------------------------------------------
void spi_mosi(SPIN_enum spi_n, uint8 *modata, uint8 *midata, uint32 len)
{
   // while((((SPI_TypeDef *)(SPIN[spi_n]))->STATR & SPI_I2S_FLAG_TXE) == RESET);
    while(len--)
    2810:	96ae                	add	a3,a3,a1
D:\1.intelligent vehicle\new try\seefree\Seekfree_CH32V103R8T6_Opensource_Library\obj/../Libraries/seekfree_libraries/zf_spi.c:155
    {
        ((SPI_TypeDef *)(SPIN[spi_n]))->DATAR = *(modata++);
    2812:	82c18793          	addi	a5,gp,-2004 # 2000009c <SPIN>
    2816:	050a                	slli	a0,a0,0x2
    2818:	953e                	add	a0,a0,a5
D:\1.intelligent vehicle\new try\seefree\Seekfree_CH32V103R8T6_Opensource_Library\obj/../Libraries/seekfree_libraries/zf_spi.c:153
    while(len--)
    281a:	02b68763          	beq	a3,a1,2848 <spi_mosi+0x38>
D:\1.intelligent vehicle\new try\seefree\Seekfree_CH32V103R8T6_Opensource_Library\obj/../Libraries/seekfree_libraries/zf_spi.c:155
        ((SPI_TypeDef *)(SPIN[spi_n]))->DATAR = *(modata++);
    281e:	0585                	addi	a1,a1,1
    2820:	4118                	lw	a4,0(a0)
    2822:	fff5c783          	lbu	a5,-1(a1)
    2826:	00f71623          	sh	a5,12(a4)
D:\1.intelligent vehicle\new try\seefree\Seekfree_CH32V103R8T6_Opensource_Library\obj/../Libraries/seekfree_libraries/zf_spi.c:156 (discriminator 1)
        while((((SPI_TypeDef *)(SPIN[spi_n]))->STATR & SPI_I2S_FLAG_TXE) == RESET);
    282a:	00875783          	lhu	a5,8(a4)
    282e:	8b89                	andi	a5,a5,2
    2830:	dfed                	beqz	a5,282a <spi_mosi+0x1a>
D:\1.intelligent vehicle\new try\seefree\Seekfree_CH32V103R8T6_Opensource_Library\obj/../Libraries/seekfree_libraries/zf_spi.c:157
        if(NULL != midata)
    2832:	d665                	beqz	a2,281a <spi_mosi+0xa>
D:\1.intelligent vehicle\new try\seefree\Seekfree_CH32V103R8T6_Opensource_Library\obj/../Libraries/seekfree_libraries/zf_spi.c:159 (discriminator 1)
        {
            while((((SPI_TypeDef *)(SPIN[spi_n]))->STATR & SPI_I2S_FLAG_RXNE) == RESET);
    2834:	00875783          	lhu	a5,8(a4)
    2838:	8b85                	andi	a5,a5,1
    283a:	dfed                	beqz	a5,2834 <spi_mosi+0x24>
D:\1.intelligent vehicle\new try\seefree\Seekfree_CH32V103R8T6_Opensource_Library\obj/../Libraries/seekfree_libraries/zf_spi.c:160
            *(midata++) = ((SPI_TypeDef *)(SPIN[spi_n]))->DATAR;
    283c:	00c75783          	lhu	a5,12(a4)
    2840:	00f60023          	sb	a5,0(a2)
    2844:	0605                	addi	a2,a2,1
    2846:	bfd1                	j	281a <spi_mosi+0xa>
D:\1.intelligent vehicle\new try\seefree\Seekfree_CH32V103R8T6_Opensource_Library\obj/../Libraries/seekfree_libraries/zf_spi.c:163
        }
    }
}
    2848:	8082                	ret

0000284a <systick_delay>:
systick_delay():
D:\1.intelligent vehicle\new try\seefree\Seekfree_CH32V103R8T6_Opensource_Library\obj/../Libraries/seekfree_libraries/zf_systick.c:30
//  @return     void
//  Sample usage:                   内部使用，用户无需关心
//-------------------------------------------------------------------------------------------------------------------
void systick_delay(uint64 time)
{
    SysTick->CTLR = 0;
    284a:	e000f7b7          	lui	a5,0xe000f
    284e:	0007a023          	sw	zero,0(a5) # e000f000 <_eusrstack+0xc000a000>
D:\1.intelligent vehicle\new try\seefree\Seekfree_CH32V103R8T6_Opensource_Library\obj/../Libraries/seekfree_libraries/zf_systick.c:31
    SysTick->CNTL0 = 0;
    2852:	00078223          	sb	zero,4(a5)
D:\1.intelligent vehicle\new try\seefree\Seekfree_CH32V103R8T6_Opensource_Library\obj/../Libraries/seekfree_libraries/zf_systick.c:32
    SysTick->CNTL1 = 0;
    2856:	000782a3          	sb	zero,5(a5)
D:\1.intelligent vehicle\new try\seefree\Seekfree_CH32V103R8T6_Opensource_Library\obj/../Libraries/seekfree_libraries/zf_systick.c:33
    SysTick->CNTL2 = 0;
    285a:	00078323          	sb	zero,6(a5)
D:\1.intelligent vehicle\new try\seefree\Seekfree_CH32V103R8T6_Opensource_Library\obj/../Libraries/seekfree_libraries/zf_systick.c:34
    SysTick->CNTL3 = 0;
    285e:	000783a3          	sb	zero,7(a5)
D:\1.intelligent vehicle\new try\seefree\Seekfree_CH32V103R8T6_Opensource_Library\obj/../Libraries/seekfree_libraries/zf_systick.c:35
    SysTick->CNTH0 = 0;
    2862:	00078423          	sb	zero,8(a5)
D:\1.intelligent vehicle\new try\seefree\Seekfree_CH32V103R8T6_Opensource_Library\obj/../Libraries/seekfree_libraries/zf_systick.c:36
    SysTick->CNTH1 = 0;
    2866:	000784a3          	sb	zero,9(a5)
D:\1.intelligent vehicle\new try\seefree\Seekfree_CH32V103R8T6_Opensource_Library\obj/../Libraries/seekfree_libraries/zf_systick.c:37
    SysTick->CNTH2 = 0;
    286a:	00078523          	sb	zero,10(a5)
D:\1.intelligent vehicle\new try\seefree\Seekfree_CH32V103R8T6_Opensource_Library\obj/../Libraries/seekfree_libraries/zf_systick.c:38
    SysTick->CNTH3 = 0;
    286e:	000785a3          	sb	zero,11(a5)
D:\1.intelligent vehicle\new try\seefree\Seekfree_CH32V103R8T6_Opensource_Library\obj/../Libraries/seekfree_libraries/zf_systick.c:39
    SysTick->CTLR = 1;          //启动系统计数器 systick（HCLK/8 时基） us
    2872:	4705                	li	a4,1
    2874:	c398                	sw	a4,0(a5)
D:\1.intelligent vehicle\new try\seefree\Seekfree_CH32V103R8T6_Opensource_Library\obj/../Libraries/seekfree_libraries/zf_systick.c:41

    while((*(volatile uint32*)0xE000F004) <= time);
    2876:	e000f737          	lui	a4,0xe000f
    287a:	4781                	li	a5,0
D:\1.intelligent vehicle\new try\seefree\Seekfree_CH32V103R8T6_Opensource_Library\obj/../Libraries/seekfree_libraries/zf_systick.c:41 (discriminator 1)
    287c:	4354                	lw	a3,4(a4)
    287e:	feb79fe3          	bne	a5,a1,287c <systick_delay+0x32>
    2882:	fed57de3          	bgeu	a0,a3,287c <systick_delay+0x32>
D:\1.intelligent vehicle\new try\seefree\Seekfree_CH32V103R8T6_Opensource_Library\obj/../Libraries/seekfree_libraries/zf_systick.c:42
}
    2886:	8082                	ret

00002888 <uart_gpio_init>:
uart_gpio_init():
D:\1.intelligent vehicle\new try\seefree\Seekfree_CH32V103R8T6_Opensource_Library\obj/../Libraries/seekfree_libraries/zf_uart.c:38
//  @param      rx_pin      串口接收引脚号
//  @return     void
//  Sample usage:           内部使用，用户无需关心
//-------------------------------------------------------------------------------------------------------------------
void uart_gpio_init(UARTPIN_enum tx_pin, UARTPIN_enum rx_pin)
{
    2888:	1141                	addi	sp,sp,-16
    288a:	c606                	sw	ra,12(sp)
D:\1.intelligent vehicle\new try\seefree\Seekfree_CH32V103R8T6_Opensource_Library\obj/../Libraries/seekfree_libraries/zf_uart.c:39
    if(tx_pin == UART1_TX_A9 && rx_pin == UART1_RX_A10)
    288c:	e50d                	bnez	a0,28b6 <uart_gpio_init+0x2e>
D:\1.intelligent vehicle\new try\seefree\Seekfree_CH32V103R8T6_Opensource_Library\obj/../Libraries/seekfree_libraries/zf_uart.c:39 (discriminator 1)
    288e:	4785                	li	a5,1
    2890:	00f58563          	beq	a1,a5,289a <uart_gpio_init+0x12>
D:\1.intelligent vehicle\new try\seefree\Seekfree_CH32V103R8T6_Opensource_Library\obj/../Libraries/seekfree_libraries/zf_uart.c:67
    else if(tx_pin == UART3_TX_C10)
    {
        gpio_init(C10, GPO, 0, SPEED_50MHZ|OUT_AF_PP);
        gpio_init(C11, GPI, 0, IN_FLOAT);
    }
}
    2894:	40b2                	lw	ra,12(sp)
    2896:	0141                	addi	sp,sp,16
    2898:	8082                	ret
D:\1.intelligent vehicle\new try\seefree\Seekfree_CH32V103R8T6_Opensource_Library\obj/../Libraries/seekfree_libraries/zf_uart.c:41
        gpio_init(A9, GPO, 0, SPEED_50MHZ|OUT_AF_PP);
    289a:	31800693          	li	a3,792
    289e:	4601                	li	a2,0
    28a0:	4585                	li	a1,1
    28a2:	4525                	li	a0,9
    28a4:	b14ff0ef          	jal	ra,1bb8 <gpio_init>
D:\1.intelligent vehicle\new try\seefree\Seekfree_CH32V103R8T6_Opensource_Library\obj/../Libraries/seekfree_libraries/zf_uart.c:42
        gpio_init(A10, GPI, 0, IN_FLOAT);
    28a8:	4691                	li	a3,4
    28aa:	4601                	li	a2,0
    28ac:	4581                	li	a1,0
    28ae:	4529                	li	a0,10
    28b0:	b08ff0ef          	jal	ra,1bb8 <gpio_init>
    28b4:	b7c5                	j	2894 <uart_gpio_init+0xc>
D:\1.intelligent vehicle\new try\seefree\Seekfree_CH32V103R8T6_Opensource_Library\obj/../Libraries/seekfree_libraries/zf_uart.c:44
    else if(tx_pin == UART1_TX_B6)
    28b6:	4789                	li	a5,2
    28b8:	02f50963          	beq	a0,a5,28ea <uart_gpio_init+0x62>
D:\1.intelligent vehicle\new try\seefree\Seekfree_CH32V103R8T6_Opensource_Library\obj/../Libraries/seekfree_libraries/zf_uart.c:50
    else if(tx_pin == UART2_TX_A2)
    28bc:	47c1                	li	a5,16
    28be:	04f50663          	beq	a0,a5,290a <uart_gpio_init+0x82>
D:\1.intelligent vehicle\new try\seefree\Seekfree_CH32V103R8T6_Opensource_Library\obj/../Libraries/seekfree_libraries/zf_uart.c:56
    else if(tx_pin == UART3_TX_B10)
    28c2:	02000793          	li	a5,32
    28c6:	06f51063          	bne	a0,a5,2926 <uart_gpio_init+0x9e>
D:\1.intelligent vehicle\new try\seefree\Seekfree_CH32V103R8T6_Opensource_Library\obj/../Libraries/seekfree_libraries/zf_uart.c:58
        gpio_init(B10, GPO, 0, SPEED_50MHZ|OUT_AF_PP);
    28ca:	31800693          	li	a3,792
    28ce:	4601                	li	a2,0
    28d0:	4585                	li	a1,1
    28d2:	02a00513          	li	a0,42
    28d6:	ae2ff0ef          	jal	ra,1bb8 <gpio_init>
D:\1.intelligent vehicle\new try\seefree\Seekfree_CH32V103R8T6_Opensource_Library\obj/../Libraries/seekfree_libraries/zf_uart.c:59
        gpio_init(B11, GPI, 0, IN_FLOAT);
    28da:	4691                	li	a3,4
    28dc:	4601                	li	a2,0
    28de:	4581                	li	a1,0
    28e0:	02b00513          	li	a0,43
    28e4:	ad4ff0ef          	jal	ra,1bb8 <gpio_init>
    28e8:	b775                	j	2894 <uart_gpio_init+0xc>
D:\1.intelligent vehicle\new try\seefree\Seekfree_CH32V103R8T6_Opensource_Library\obj/../Libraries/seekfree_libraries/zf_uart.c:46
        gpio_init(B6, GPO, 0, SPEED_50MHZ|OUT_AF_PP);
    28ea:	31800693          	li	a3,792
    28ee:	4601                	li	a2,0
    28f0:	4585                	li	a1,1
    28f2:	02600513          	li	a0,38
    28f6:	ac2ff0ef          	jal	ra,1bb8 <gpio_init>
D:\1.intelligent vehicle\new try\seefree\Seekfree_CH32V103R8T6_Opensource_Library\obj/../Libraries/seekfree_libraries/zf_uart.c:47
        gpio_init(B7, GPI, 0, IN_FLOAT);
    28fa:	4691                	li	a3,4
    28fc:	4601                	li	a2,0
    28fe:	4581                	li	a1,0
    2900:	02700513          	li	a0,39
    2904:	ab4ff0ef          	jal	ra,1bb8 <gpio_init>
    2908:	b771                	j	2894 <uart_gpio_init+0xc>
D:\1.intelligent vehicle\new try\seefree\Seekfree_CH32V103R8T6_Opensource_Library\obj/../Libraries/seekfree_libraries/zf_uart.c:52
        gpio_init(A2, GPO, 0, SPEED_50MHZ|OUT_AF_PP);
    290a:	31800693          	li	a3,792
    290e:	4601                	li	a2,0
    2910:	4585                	li	a1,1
    2912:	4509                	li	a0,2
    2914:	aa4ff0ef          	jal	ra,1bb8 <gpio_init>
D:\1.intelligent vehicle\new try\seefree\Seekfree_CH32V103R8T6_Opensource_Library\obj/../Libraries/seekfree_libraries/zf_uart.c:53
        gpio_init(A3, GPI, 0, IN_FLOAT);
    2918:	4691                	li	a3,4
    291a:	4601                	li	a2,0
    291c:	4581                	li	a1,0
    291e:	450d                	li	a0,3
    2920:	a98ff0ef          	jal	ra,1bb8 <gpio_init>
    2924:	bf85                	j	2894 <uart_gpio_init+0xc>
D:\1.intelligent vehicle\new try\seefree\Seekfree_CH32V103R8T6_Opensource_Library\obj/../Libraries/seekfree_libraries/zf_uart.c:62
    else if(tx_pin == UART3_TX_C10)
    2926:	02200793          	li	a5,34
    292a:	f6f515e3          	bne	a0,a5,2894 <uart_gpio_init+0xc>
D:\1.intelligent vehicle\new try\seefree\Seekfree_CH32V103R8T6_Opensource_Library\obj/../Libraries/seekfree_libraries/zf_uart.c:64
        gpio_init(C10, GPO, 0, SPEED_50MHZ|OUT_AF_PP);
    292e:	31800693          	li	a3,792
    2932:	4601                	li	a2,0
    2934:	4585                	li	a1,1
    2936:	04a00513          	li	a0,74
    293a:	a7eff0ef          	jal	ra,1bb8 <gpio_init>
D:\1.intelligent vehicle\new try\seefree\Seekfree_CH32V103R8T6_Opensource_Library\obj/../Libraries/seekfree_libraries/zf_uart.c:65
        gpio_init(C11, GPI, 0, IN_FLOAT);
    293e:	4691                	li	a3,4
    2940:	4601                	li	a2,0
    2942:	4581                	li	a1,0
    2944:	04b00513          	li	a0,75
    2948:	a70ff0ef          	jal	ra,1bb8 <gpio_init>
D:\1.intelligent vehicle\new try\seefree\Seekfree_CH32V103R8T6_Opensource_Library\obj/../Libraries/seekfree_libraries/zf_uart.c:67
}
    294c:	b7a1                	j	2894 <uart_gpio_init+0xc>

0000294e <uart_init>:
uart_init():
D:\1.intelligent vehicle\new try\seefree\Seekfree_CH32V103R8T6_Opensource_Library\obj/../Libraries/seekfree_libraries/zf_uart.c:79
//  @param      rx_pin      串口接收引脚号
//  @return     void
//  Sample usage:           uart_init(UART_1, 115200, UART1_TX_A9, UART1_RX_A10); //串口1初始化引脚号,TX为A9,RX为A10
//-------------------------------------------------------------------------------------------------------------------
void uart_init(UARTN_enum uartn, uint32 baud, UARTPIN_enum tx_pin, UARTPIN_enum rx_pin)
{
    294e:	7179                	addi	sp,sp,-48
    2950:	d606                	sw	ra,44(sp)
    2952:	d422                	sw	s0,40(sp)
    2954:	d226                	sw	s1,36(sp)
    2956:	d04a                	sw	s2,32(sp)
    2958:	ce4e                	sw	s3,28(sp)
    295a:	842a                	mv	s0,a0
    295c:	89ae                	mv	s3,a1
    295e:	84b2                	mv	s1,a2
    2960:	8936                	mv	s2,a3
D:\1.intelligent vehicle\new try\seefree\Seekfree_CH32V103R8T6_Opensource_Library\obj/../Libraries/seekfree_libraries/zf_uart.c:83
    USART_InitTypeDef USART_InitStructure;


    RCC_APB2PeriphClockCmd(RCC_APB2Periph_AFIO, ENABLE);
    2962:	4585                	li	a1,1
    2964:	4505                	li	a0,1
    2966:	948fe0ef          	jal	ra,aae <RCC_APB2PeriphClockCmd>
D:\1.intelligent vehicle\new try\seefree\Seekfree_CH32V103R8T6_Opensource_Library\obj/../Libraries/seekfree_libraries/zf_uart.c:86

    //引脚初始化
    uart_gpio_init(tx_pin, rx_pin);
    296a:	85ca                	mv	a1,s2
    296c:	8526                	mv	a0,s1
    296e:	f1bff0ef          	jal	ra,2888 <uart_gpio_init>
D:\1.intelligent vehicle\new try\seefree\Seekfree_CH32V103R8T6_Opensource_Library\obj/../Libraries/seekfree_libraries/zf_uart.c:88

    if(UART1_TX_B6 == tx_pin && UART1_RX_B7 == rx_pin)                         //引脚重映射
    2972:	4789                	li	a5,2
    2974:	02f48163          	beq	s1,a5,2996 <uart_init+0x48>
D:\1.intelligent vehicle\new try\seefree\Seekfree_CH32V103R8T6_Opensource_Library\obj/../Libraries/seekfree_libraries/zf_uart.c:90
        GPIO_PinRemapConfig(GPIO_Remap_USART1, ENABLE);
    if(UART3_TX_C10 == tx_pin && UART3_RX_C11 == rx_pin)
    2978:	02200793          	li	a5,34
    297c:	02f49063          	bne	s1,a5,299c <uart_init+0x4e>
D:\1.intelligent vehicle\new try\seefree\Seekfree_CH32V103R8T6_Opensource_Library\obj/../Libraries/seekfree_libraries/zf_uart.c:90 (discriminator 1)
    2980:	02300793          	li	a5,35
    2984:	00f91c63          	bne	s2,a5,299c <uart_init+0x4e>
D:\1.intelligent vehicle\new try\seefree\Seekfree_CH32V103R8T6_Opensource_Library\obj/../Libraries/seekfree_libraries/zf_uart.c:91
        GPIO_PinRemapConfig(GPIO_PartialRemap_USART3, ENABLE);
    2988:	4585                	li	a1,1
    298a:	00140537          	lui	a0,0x140
    298e:	0541                	addi	a0,a0,16
    2990:	ea7fd0ef          	jal	ra,836 <GPIO_PinRemapConfig>
    2994:	a021                	j	299c <uart_init+0x4e>
D:\1.intelligent vehicle\new try\seefree\Seekfree_CH32V103R8T6_Opensource_Library\obj/../Libraries/seekfree_libraries/zf_uart.c:88 (discriminator 1)
    if(UART1_TX_B6 == tx_pin && UART1_RX_B7 == rx_pin)                         //引脚重映射
    2996:	478d                	li	a5,3
    2998:	04f90a63          	beq	s2,a5,29ec <uart_init+0x9e>
D:\1.intelligent vehicle\new try\seefree\Seekfree_CH32V103R8T6_Opensource_Library\obj/../Libraries/seekfree_libraries/zf_uart.c:94

    //串口总线使能
    if(UART_1 == uartn) RCC_APB2PeriphClockCmd(RCC_APB2Periph_USART1, ENABLE);
    299c:	cc29                	beqz	s0,29f6 <uart_init+0xa8>
D:\1.intelligent vehicle\new try\seefree\Seekfree_CH32V103R8T6_Opensource_Library\obj/../Libraries/seekfree_libraries/zf_uart.c:95
    else if(UART_2 == uartn) RCC_APB1PeriphClockCmd(RCC_APB1Periph_USART2, ENABLE);
    299e:	4785                	li	a5,1
    29a0:	06f40063          	beq	s0,a5,2a00 <uart_init+0xb2>
D:\1.intelligent vehicle\new try\seefree\Seekfree_CH32V103R8T6_Opensource_Library\obj/../Libraries/seekfree_libraries/zf_uart.c:96
    else if(UART_3 == uartn) RCC_APB1PeriphClockCmd(RCC_APB1Periph_USART3, ENABLE);
    29a4:	4789                	li	a5,2
    29a6:	06f40363          	beq	s0,a5,2a0c <uart_init+0xbe>
D:\1.intelligent vehicle\new try\seefree\Seekfree_CH32V103R8T6_Opensource_Library\obj/../Libraries/seekfree_libraries/zf_uart.c:99

    //串口参数配置
    USART_InitStructure.USART_BaudRate = baud;
    29aa:	c04e                	sw	s3,0(sp)
D:\1.intelligent vehicle\new try\seefree\Seekfree_CH32V103R8T6_Opensource_Library\obj/../Libraries/seekfree_libraries/zf_uart.c:100
    USART_InitStructure.USART_WordLength = USART_WordLength_8b;
    29ac:	00011223          	sh	zero,4(sp)
D:\1.intelligent vehicle\new try\seefree\Seekfree_CH32V103R8T6_Opensource_Library\obj/../Libraries/seekfree_libraries/zf_uart.c:101
    USART_InitStructure.USART_StopBits = USART_StopBits_1;
    29b0:	00011323          	sh	zero,6(sp)
D:\1.intelligent vehicle\new try\seefree\Seekfree_CH32V103R8T6_Opensource_Library\obj/../Libraries/seekfree_libraries/zf_uart.c:102
    USART_InitStructure.USART_Parity = USART_Parity_No;
    29b4:	00011423          	sh	zero,8(sp)
D:\1.intelligent vehicle\new try\seefree\Seekfree_CH32V103R8T6_Opensource_Library\obj/../Libraries/seekfree_libraries/zf_uart.c:103
    USART_InitStructure.USART_HardwareFlowControl = USART_HardwareFlowControl_None;
    29b8:	00011623          	sh	zero,12(sp)
D:\1.intelligent vehicle\new try\seefree\Seekfree_CH32V103R8T6_Opensource_Library\obj/../Libraries/seekfree_libraries/zf_uart.c:104
    USART_InitStructure.USART_Mode = USART_Mode_Tx | USART_Mode_Rx;
    29bc:	47b1                	li	a5,12
    29be:	00f11523          	sh	a5,10(sp)
D:\1.intelligent vehicle\new try\seefree\Seekfree_CH32V103R8T6_Opensource_Library\obj/../Libraries/seekfree_libraries/zf_uart.c:107

    //使能串口
    USART_Init((USART_TypeDef*)UARTN[uartn], &USART_InitStructure);
    29c2:	040a                	slli	s0,s0,0x2
    29c4:	6799                	lui	a5,0x6
    29c6:	cb478793          	addi	a5,a5,-844 # 5cb4 <UARTN>
    29ca:	943e                	add	s0,s0,a5
    29cc:	4000                	lw	s0,0(s0)
    29ce:	858a                	mv	a1,sp
    29d0:	8522                	mv	a0,s0
    29d2:	e56fe0ef          	jal	ra,1028 <USART_Init>
D:\1.intelligent vehicle\new try\seefree\Seekfree_CH32V103R8T6_Opensource_Library\obj/../Libraries/seekfree_libraries/zf_uart.c:108
    USART_Cmd((USART_TypeDef*)UARTN[uartn], ENABLE);
    29d6:	4585                	li	a1,1
    29d8:	8522                	mv	a0,s0
    29da:	f44fe0ef          	jal	ra,111e <USART_Cmd>
D:\1.intelligent vehicle\new try\seefree\Seekfree_CH32V103R8T6_Opensource_Library\obj/../Libraries/seekfree_libraries/zf_uart.c:111


}
    29de:	50b2                	lw	ra,44(sp)
    29e0:	5422                	lw	s0,40(sp)
    29e2:	5492                	lw	s1,36(sp)
    29e4:	5902                	lw	s2,32(sp)
    29e6:	49f2                	lw	s3,28(sp)
    29e8:	6145                	addi	sp,sp,48
    29ea:	8082                	ret
D:\1.intelligent vehicle\new try\seefree\Seekfree_CH32V103R8T6_Opensource_Library\obj/../Libraries/seekfree_libraries/zf_uart.c:89
        GPIO_PinRemapConfig(GPIO_Remap_USART1, ENABLE);
    29ec:	4585                	li	a1,1
    29ee:	4511                	li	a0,4
    29f0:	e47fd0ef          	jal	ra,836 <GPIO_PinRemapConfig>
    29f4:	b765                	j	299c <uart_init+0x4e>
D:\1.intelligent vehicle\new try\seefree\Seekfree_CH32V103R8T6_Opensource_Library\obj/../Libraries/seekfree_libraries/zf_uart.c:94 (discriminator 1)
    if(UART_1 == uartn) RCC_APB2PeriphClockCmd(RCC_APB2Periph_USART1, ENABLE);
    29f6:	4585                	li	a1,1
    29f8:	6511                	lui	a0,0x4
    29fa:	8b4fe0ef          	jal	ra,aae <RCC_APB2PeriphClockCmd>
    29fe:	b775                	j	29aa <uart_init+0x5c>
D:\1.intelligent vehicle\new try\seefree\Seekfree_CH32V103R8T6_Opensource_Library\obj/../Libraries/seekfree_libraries/zf_uart.c:95 (discriminator 1)
    else if(UART_2 == uartn) RCC_APB1PeriphClockCmd(RCC_APB1Periph_USART2, ENABLE);
    2a00:	4585                	li	a1,1
    2a02:	00020537          	lui	a0,0x20
    2a06:	8c6fe0ef          	jal	ra,acc <RCC_APB1PeriphClockCmd>
    2a0a:	b745                	j	29aa <uart_init+0x5c>
D:\1.intelligent vehicle\new try\seefree\Seekfree_CH32V103R8T6_Opensource_Library\obj/../Libraries/seekfree_libraries/zf_uart.c:96 (discriminator 1)
    else if(UART_3 == uartn) RCC_APB1PeriphClockCmd(RCC_APB1Periph_USART3, ENABLE);
    2a0c:	4585                	li	a1,1
    2a0e:	00040537          	lui	a0,0x40
    2a12:	8bafe0ef          	jal	ra,acc <RCC_APB1PeriphClockCmd>
    2a16:	bf51                	j	29aa <uart_init+0x5c>

00002a18 <uart_putchar>:
uart_putchar():
D:\1.intelligent vehicle\new try\seefree\Seekfree_CH32V103R8T6_Opensource_Library\obj/../Libraries/seekfree_libraries/zf_uart.c:123
//  @return     void
//  Sample usage:           uart_putchar(UART_1, 0x43);        //串口1发送0x43。
//-------------------------------------------------------------------------------------------------------------------
void uart_putchar(UARTN_enum uartn, uint8 dat)
{
    while((((USART_TypeDef*)UARTN[uartn])->STATR & USART_FLAG_TXE)==0);
    2a18:	050a                	slli	a0,a0,0x2
    2a1a:	6799                	lui	a5,0x6
    2a1c:	cb478793          	addi	a5,a5,-844 # 5cb4 <UARTN>
    2a20:	97aa                	add	a5,a5,a0
    2a22:	4398                	lw	a4,0(a5)
D:\1.intelligent vehicle\new try\seefree\Seekfree_CH32V103R8T6_Opensource_Library\obj/../Libraries/seekfree_libraries/zf_uart.c:123 (discriminator 1)
    2a24:	00075783          	lhu	a5,0(a4) # e000f000 <_eusrstack+0xc000a000>
    2a28:	0807f793          	andi	a5,a5,128
    2a2c:	dfe5                	beqz	a5,2a24 <uart_putchar+0xc>
D:\1.intelligent vehicle\new try\seefree\Seekfree_CH32V103R8T6_Opensource_Library\obj/../Libraries/seekfree_libraries/zf_uart.c:124
    ((USART_TypeDef*)UARTN[uartn])->DATAR = dat;
    2a2e:	05c2                	slli	a1,a1,0x10
    2a30:	81c1                	srli	a1,a1,0x10
    2a32:	00b71223          	sh	a1,4(a4)
D:\1.intelligent vehicle\new try\seefree\Seekfree_CH32V103R8T6_Opensource_Library\obj/../Libraries/seekfree_libraries/zf_uart.c:125
}
    2a36:	8082                	ret

00002a38 <uart_putbuff>:
uart_putbuff():
D:\1.intelligent vehicle\new try\seefree\Seekfree_CH32V103R8T6_Opensource_Library\obj/../Libraries/seekfree_libraries/zf_uart.c:137
//  @return     void
//  Sample usage:           uart_putbuff(UART_1, buff, 10);     //串口1发送10个buff数组。
//-------------------------------------------------------------------------------------------------------------------
void uart_putbuff(UARTN_enum uartn, uint8 *buff, uint32 len)
{
    while(len--)
    2a38:	c61d                	beqz	a2,2a66 <uart_putbuff+0x2e>
D:\1.intelligent vehicle\new try\seefree\Seekfree_CH32V103R8T6_Opensource_Library\obj/../Libraries/seekfree_libraries/zf_uart.c:136
{
    2a3a:	1141                	addi	sp,sp,-16
    2a3c:	c606                	sw	ra,12(sp)
    2a3e:	c422                	sw	s0,8(sp)
    2a40:	c226                	sw	s1,4(sp)
    2a42:	c04a                	sw	s2,0(sp)
    2a44:	892a                	mv	s2,a0
    2a46:	842e                	mv	s0,a1
    2a48:	00c584b3          	add	s1,a1,a2
D:\1.intelligent vehicle\new try\seefree\Seekfree_CH32V103R8T6_Opensource_Library\obj/../Libraries/seekfree_libraries/zf_uart.c:138
        uart_putchar(uartn, *buff++);
    2a4c:	0405                	addi	s0,s0,1
    2a4e:	fff44583          	lbu	a1,-1(s0)
    2a52:	854a                	mv	a0,s2
    2a54:	37d1                	jal	2a18 <uart_putchar>
D:\1.intelligent vehicle\new try\seefree\Seekfree_CH32V103R8T6_Opensource_Library\obj/../Libraries/seekfree_libraries/zf_uart.c:137
    while(len--)
    2a56:	fe849be3          	bne	s1,s0,2a4c <uart_putbuff+0x14>
D:\1.intelligent vehicle\new try\seefree\Seekfree_CH32V103R8T6_Opensource_Library\obj/../Libraries/seekfree_libraries/zf_uart.c:139
}
    2a5a:	40b2                	lw	ra,12(sp)
    2a5c:	4422                	lw	s0,8(sp)
    2a5e:	4492                	lw	s1,4(sp)
    2a60:	4902                	lw	s2,0(sp)
    2a62:	0141                	addi	sp,sp,16
    2a64:	8082                	ret
    2a66:	8082                	ret

00002a68 <uart_rx_irq>:
uart_rx_irq():
D:\1.intelligent vehicle\new try\seefree\Seekfree_CH32V103R8T6_Opensource_Library\obj/../Libraries/seekfree_libraries/zf_uart.c:165
//  @param      status      使能或者失能
//  @return     void
//  Sample usage:           uart_rx_irq(UART_1, ENABLE);        //打开串口1接收中断
//-------------------------------------------------------------------------------------------------------------------
void uart_rx_irq(UARTN_enum uartn,uint8 status)
{
    2a68:	1141                	addi	sp,sp,-16
    2a6a:	c606                	sw	ra,12(sp)
    2a6c:	c422                	sw	s0,8(sp)
    2a6e:	c226                	sw	s1,4(sp)
    2a70:	842a                	mv	s0,a0
    2a72:	84ae                	mv	s1,a1
D:\1.intelligent vehicle\new try\seefree\Seekfree_CH32V103R8T6_Opensource_Library\obj/../Libraries/seekfree_libraries/zf_uart.c:166
    USART_ITConfig(((USART_TypeDef*)UARTN[uartn]), USART_IT_RXNE, ENABLE);
    2a74:	00251713          	slli	a4,a0,0x2
    2a78:	6799                	lui	a5,0x6
    2a7a:	cb478793          	addi	a5,a5,-844 # 5cb4 <UARTN>
    2a7e:	97ba                	add	a5,a5,a4
    2a80:	4605                	li	a2,1
    2a82:	52500593          	li	a1,1317
    2a86:	4388                	lw	a0,0(a5)
    2a88:	eb6fe0ef          	jal	ra,113e <USART_ITConfig>
D:\1.intelligent vehicle\new try\seefree\Seekfree_CH32V103R8T6_Opensource_Library\obj/../Libraries/seekfree_libraries/zf_uart.c:167
    nvic_init(USART1_IRQn + uartn, 1, 0, status);
    2a8c:	86a6                	mv	a3,s1
    2a8e:	4601                	li	a2,0
    2a90:	4585                	li	a1,1
    2a92:	03540513          	addi	a0,s0,53
    2a96:	af2ff0ef          	jal	ra,1d88 <nvic_init>
D:\1.intelligent vehicle\new try\seefree\Seekfree_CH32V103R8T6_Opensource_Library\obj/../Libraries/seekfree_libraries/zf_uart.c:168
}
    2a9a:	40b2                	lw	ra,12(sp)
    2a9c:	4422                	lw	s0,8(sp)
    2a9e:	4492                	lw	s1,4(sp)
    2aa0:	0141                	addi	sp,sp,16
    2aa2:	8082                	ret

00002aa4 <board_init>:
board_init():
D:\1.intelligent vehicle\new try\seefree\Seekfree_CH32V103R8T6_Opensource_Library\obj/../Libraries/board/board.c:9




void board_init(void)
{
    2aa4:	1141                	addi	sp,sp,-16
    2aa6:	c606                	sw	ra,12(sp)
D:\1.intelligent vehicle\new try\seefree\Seekfree_CH32V103R8T6_Opensource_Library\obj/../Libraries/board/board.c:11
    //获取系统主频
    sys_clk = 8000000 * (((RCC->CFGR0 >> 18)&0x0F) + 2);
    2aa8:	400217b7          	lui	a5,0x40021
    2aac:	43dc                	lw	a5,4(a5)
    2aae:	83c9                	srli	a5,a5,0x12
    2ab0:	8bbd                	andi	a5,a5,15
    2ab2:	007a1737          	lui	a4,0x7a1
    2ab6:	20070713          	addi	a4,a4,512 # 7a1200 <_data_lma+0x79b310>
    2aba:	02e787b3          	mul	a5,a5,a4
    2abe:	00f42737          	lui	a4,0xf42
    2ac2:	40070713          	addi	a4,a4,1024 # f42400 <_data_lma+0xf3c510>
    2ac6:	97ba                	add	a5,a5,a4
    2ac8:	84f1a823          	sw	a5,-1968(gp) # 200000c0 <sys_clk>
D:\1.intelligent vehicle\new try\seefree\Seekfree_CH32V103R8T6_Opensource_Library\obj/../Libraries/board/board.c:13
    //初始化DEBUG串口
    uart_init(DEBUG_UART, DEBUG_UART_BAUD, DEBUG_UART_TX_PIN, DEBUG_UART_RX_PIN);
    2acc:	4685                	li	a3,1
    2ace:	4601                	li	a2,0
    2ad0:	65f1                	lui	a1,0x1c
    2ad2:	20058593          	addi	a1,a1,512 # 1c200 <_data_lma+0x16310>
    2ad6:	4501                	li	a0,0
    2ad8:	e77ff0ef          	jal	ra,294e <uart_init>
D:\1.intelligent vehicle\new try\seefree\Seekfree_CH32V103R8T6_Opensource_Library\obj/../Libraries/board/board.c:14
}
    2adc:	40b2                	lw	ra,12(sp)
    2ade:	0141                	addi	sp,sp,16
    2ae0:	8082                	ret

00002ae2 <_write>:
_write():
D:\1.intelligent vehicle\new try\seefree\Seekfree_CH32V103R8T6_Opensource_Library\obj/../Libraries/board/board.c:25
//  @since      v1.0
//  Sample usage:              重定向printf到DEBUG串口上
//-------------------------------------------------------------------------------------------------------------------
#if (1 == PRINTF_ENABLE)
int _write(int fd, char *buf, int size)
{
    2ae2:	1101                	addi	sp,sp,-32
    2ae4:	ce06                	sw	ra,28(sp)
    2ae6:	cc22                	sw	s0,24(sp)
    2ae8:	ca26                	sw	s1,20(sp)
    2aea:	c84a                	sw	s2,16(sp)
    2aec:	c64e                	sw	s3,12(sp)
    2aee:	89b2                	mv	s3,a2
D:\1.intelligent vehicle\new try\seefree\Seekfree_CH32V103R8T6_Opensource_Library\obj/../Libraries/board/board.c:27
    int i;
    for(i=0; i<size; i++)
    2af0:	02c05863          	blez	a2,2b20 <_write+0x3e>
    2af4:	84ae                	mv	s1,a1
    2af6:	00c58933          	add	s2,a1,a2
D:\1.intelligent vehicle\new try\seefree\Seekfree_CH32V103R8T6_Opensource_Library\obj/../Libraries/board/board.c:29
    {
        while (USART_GetFlagStatus((USART_TypeDef*)UARTN[DEBUG_UART], USART_FLAG_TC) == RESET);
    2afa:	6799                	lui	a5,0x6
    2afc:	cb47a403          	lw	s0,-844(a5) # 5cb4 <UARTN>
D:\1.intelligent vehicle\new try\seefree\Seekfree_CH32V103R8T6_Opensource_Library\obj/../Libraries/board/board.c:29 (discriminator 1)
    2b00:	04000593          	li	a1,64
    2b04:	8522                	mv	a0,s0
    2b06:	e88fe0ef          	jal	ra,118e <USART_GetFlagStatus>
    2b0a:	d97d                	beqz	a0,2b00 <_write+0x1e>
D:\1.intelligent vehicle\new try\seefree\Seekfree_CH32V103R8T6_Opensource_Library\obj/../Libraries/board/board.c:30 (discriminator 2)
        USART_SendData((USART_TypeDef*)UARTN[DEBUG_UART], *buf++);
    2b0c:	0485                	addi	s1,s1,1
    2b0e:	fff48583          	lb	a1,-1(s1)
    2b12:	05c2                	slli	a1,a1,0x10
    2b14:	81c1                	srli	a1,a1,0x10
    2b16:	8522                	mv	a0,s0
    2b18:	e62fe0ef          	jal	ra,117a <USART_SendData>
D:\1.intelligent vehicle\new try\seefree\Seekfree_CH32V103R8T6_Opensource_Library\obj/../Libraries/board/board.c:27 (discriminator 2)
    for(i=0; i<size; i++)
    2b1c:	fe9912e3          	bne	s2,s1,2b00 <_write+0x1e>
D:\1.intelligent vehicle\new try\seefree\Seekfree_CH32V103R8T6_Opensource_Library\obj/../Libraries/board/board.c:33
    }
    return size;
}
    2b20:	854e                	mv	a0,s3
    2b22:	40f2                	lw	ra,28(sp)
    2b24:	4462                	lw	s0,24(sp)
    2b26:	44d2                	lw	s1,20(sp)
    2b28:	4942                	lw	s2,16(sp)
    2b2a:	49b2                	lw	s3,12(sp)
    2b2c:	6105                	addi	sp,sp,32
    2b2e:	8082                	ret

00002b30 <SystemInit>:
SystemInit():
D:\1.intelligent vehicle\new try\seefree\Seekfree_CH32V103R8T6_Opensource_Library\obj/../Libraries/board/clock_config.c:84
*                  the PLL and update the SystemCoreClock variable.
* Input          : None
* Return         : None
*******************************************************************************************/
void SystemInit (void)
{
    2b30:	1141                	addi	sp,sp,-16
D:\1.intelligent vehicle\new try\seefree\Seekfree_CH32V103R8T6_Opensource_Library\obj/../Libraries/board/clock_config.c:85
    RCC->CTLR |= (uint32_t)0x00000001;
    2b32:	400217b7          	lui	a5,0x40021
    2b36:	4398                	lw	a4,0(a5)
    2b38:	00176713          	ori	a4,a4,1
    2b3c:	c398                	sw	a4,0(a5)
D:\1.intelligent vehicle\new try\seefree\Seekfree_CH32V103R8T6_Opensource_Library\obj/../Libraries/board/clock_config.c:86
    RCC->CFGR0 &= (uint32_t)0xF8FF0000;
    2b3e:	43d8                	lw	a4,4(a5)
    2b40:	f8ff06b7          	lui	a3,0xf8ff0
    2b44:	8f75                	and	a4,a4,a3
    2b46:	c3d8                	sw	a4,4(a5)
D:\1.intelligent vehicle\new try\seefree\Seekfree_CH32V103R8T6_Opensource_Library\obj/../Libraries/board/clock_config.c:87
    RCC->CTLR &= (uint32_t)0xFEF6FFFF;
    2b48:	4398                	lw	a4,0(a5)
    2b4a:	fef706b7          	lui	a3,0xfef70
    2b4e:	16fd                	addi	a3,a3,-1
    2b50:	8f75                	and	a4,a4,a3
    2b52:	c398                	sw	a4,0(a5)
D:\1.intelligent vehicle\new try\seefree\Seekfree_CH32V103R8T6_Opensource_Library\obj/../Libraries/board/clock_config.c:88
    RCC->CTLR &= (uint32_t)0xFFFBFFFF;
    2b54:	4398                	lw	a4,0(a5)
    2b56:	fffc06b7          	lui	a3,0xfffc0
    2b5a:	16fd                	addi	a3,a3,-1
    2b5c:	8f75                	and	a4,a4,a3
    2b5e:	c398                	sw	a4,0(a5)
D:\1.intelligent vehicle\new try\seefree\Seekfree_CH32V103R8T6_Opensource_Library\obj/../Libraries/board/clock_config.c:89
    RCC->CFGR0 &= (uint32_t)0xFF80FFFF;
    2b60:	43d8                	lw	a4,4(a5)
    2b62:	ff8106b7          	lui	a3,0xff810
    2b66:	16fd                	addi	a3,a3,-1
    2b68:	8f75                	and	a4,a4,a3
    2b6a:	c3d8                	sw	a4,4(a5)
D:\1.intelligent vehicle\new try\seefree\Seekfree_CH32V103R8T6_Opensource_Library\obj/../Libraries/board/clock_config.c:90
    RCC->INTR = 0x009F0000;
    2b6c:	009f0737          	lui	a4,0x9f0
    2b70:	c798                	sw	a4,8(a5)
SetSysClock():
D:\1.intelligent vehicle\new try\seefree\Seekfree_CH32V103R8T6_Opensource_Library\obj/../Libraries/board/clock_config.c:12
    __IO uint32_t StartUpCounter = 0, HSEStatus = 0;
    2b72:	c402                	sw	zero,8(sp)
    2b74:	c602                	sw	zero,12(sp)
D:\1.intelligent vehicle\new try\seefree\Seekfree_CH32V103R8T6_Opensource_Library\obj/../Libraries/board/clock_config.c:14
    RCC->CTLR |= ((uint32_t)RCC_HSEON);
    2b76:	4398                	lw	a4,0(a5)
    2b78:	66c1                	lui	a3,0x10
    2b7a:	8f55                	or	a4,a4,a3
    2b7c:	c398                	sw	a4,0(a5)
D:\1.intelligent vehicle\new try\seefree\Seekfree_CH32V103R8T6_Opensource_Library\obj/../Libraries/board/clock_config.c:19
        HSEStatus = RCC->CTLR & RCC_HSERDY;
    2b7e:	40021637          	lui	a2,0x40021
    2b82:	000206b7          	lui	a3,0x20
D:\1.intelligent vehicle\new try\seefree\Seekfree_CH32V103R8T6_Opensource_Library\obj/../Libraries/board/clock_config.c:21
    } while((HSEStatus == 0) && (StartUpCounter != HSE_STARTUP_TIMEOUT));
    2b86:	50000713          	li	a4,1280
D:\1.intelligent vehicle\new try\seefree\Seekfree_CH32V103R8T6_Opensource_Library\obj/../Libraries/board/clock_config.c:19
        HSEStatus = RCC->CTLR & RCC_HSERDY;
    2b8a:	421c                	lw	a5,0(a2)
    2b8c:	8ff5                	and	a5,a5,a3
    2b8e:	c63e                	sw	a5,12(sp)
D:\1.intelligent vehicle\new try\seefree\Seekfree_CH32V103R8T6_Opensource_Library\obj/../Libraries/board/clock_config.c:20
        StartUpCounter++;
    2b90:	47a2                	lw	a5,8(sp)
    2b92:	0785                	addi	a5,a5,1
    2b94:	c43e                	sw	a5,8(sp)
D:\1.intelligent vehicle\new try\seefree\Seekfree_CH32V103R8T6_Opensource_Library\obj/../Libraries/board/clock_config.c:21
    } while((HSEStatus == 0) && (StartUpCounter != HSE_STARTUP_TIMEOUT));
    2b96:	47b2                	lw	a5,12(sp)
    2b98:	e781                	bnez	a5,2ba0 <SystemInit+0x70>
    2b9a:	47a2                	lw	a5,8(sp)
    2b9c:	fee797e3          	bne	a5,a4,2b8a <SystemInit+0x5a>
D:\1.intelligent vehicle\new try\seefree\Seekfree_CH32V103R8T6_Opensource_Library\obj/../Libraries/board/clock_config.c:23
    if ((RCC->CTLR & RCC_HSERDY) != RESET)
    2ba0:	400217b7          	lui	a5,0x40021
    2ba4:	439c                	lw	a5,0(a5)
    2ba6:	00e79713          	slli	a4,a5,0xe
    2baa:	00075a63          	bgez	a4,2bbe <SystemInit+0x8e>
D:\1.intelligent vehicle\new try\seefree\Seekfree_CH32V103R8T6_Opensource_Library\obj/../Libraries/board/clock_config.c:25
        HSEStatus = (uint32_t)0x01;
    2bae:	4785                	li	a5,1
    2bb0:	c63e                	sw	a5,12(sp)
D:\1.intelligent vehicle\new try\seefree\Seekfree_CH32V103R8T6_Opensource_Library\obj/../Libraries/board/clock_config.c:32
    if (HSEStatus == (uint32_t)0x01)
    2bb2:	4732                	lw	a4,12(sp)
    2bb4:	4785                	li	a5,1
    2bb6:	00f70663          	beq	a4,a5,2bc2 <SystemInit+0x92>
SystemInit():
D:\1.intelligent vehicle\new try\seefree\Seekfree_CH32V103R8T6_Opensource_Library\obj/../Libraries/board/clock_config.c:92
    SetSysClock();
}
    2bba:	0141                	addi	sp,sp,16
    2bbc:	8082                	ret
SetSysClock():
D:\1.intelligent vehicle\new try\seefree\Seekfree_CH32V103R8T6_Opensource_Library\obj/../Libraries/board/clock_config.c:29
        HSEStatus = (uint32_t)0x00;
    2bbe:	c602                	sw	zero,12(sp)
    2bc0:	bfcd                	j	2bb2 <SystemInit+0x82>
D:\1.intelligent vehicle\new try\seefree\Seekfree_CH32V103R8T6_Opensource_Library\obj/../Libraries/board/clock_config.c:35
        FLASH->ACTLR |= FLASH_ACTLR_PRFTBE;
    2bc2:	400227b7          	lui	a5,0x40022
    2bc6:	4398                	lw	a4,0(a5)
    2bc8:	01076713          	ori	a4,a4,16
    2bcc:	c398                	sw	a4,0(a5)
D:\1.intelligent vehicle\new try\seefree\Seekfree_CH32V103R8T6_Opensource_Library\obj/../Libraries/board/clock_config.c:38
        FLASH->ACTLR &= (uint32_t)((uint32_t)~FLASH_ACTLR_LATENCY);
    2bce:	4398                	lw	a4,0(a5)
    2bd0:	9b71                	andi	a4,a4,-4
    2bd2:	c398                	sw	a4,0(a5)
D:\1.intelligent vehicle\new try\seefree\Seekfree_CH32V103R8T6_Opensource_Library\obj/../Libraries/board/clock_config.c:39
        FLASH->ACTLR |= (uint32_t)FLASH_ACTLR_LATENCY_2;
    2bd4:	4398                	lw	a4,0(a5)
    2bd6:	00276713          	ori	a4,a4,2
    2bda:	c398                	sw	a4,0(a5)
D:\1.intelligent vehicle\new try\seefree\Seekfree_CH32V103R8T6_Opensource_Library\obj/../Libraries/board/clock_config.c:42
        RCC->CFGR0 |= (uint32_t)RCC_HPRE_DIV1;
    2bdc:	400217b7          	lui	a5,0x40021
    2be0:	43d8                	lw	a4,4(a5)
    2be2:	c3d8                	sw	a4,4(a5)
D:\1.intelligent vehicle\new try\seefree\Seekfree_CH32V103R8T6_Opensource_Library\obj/../Libraries/board/clock_config.c:44
        RCC->CFGR0 |= (uint32_t)RCC_PPRE2_DIV1;
    2be4:	43d8                	lw	a4,4(a5)
    2be6:	c3d8                	sw	a4,4(a5)
D:\1.intelligent vehicle\new try\seefree\Seekfree_CH32V103R8T6_Opensource_Library\obj/../Libraries/board/clock_config.c:46
        RCC->CFGR0 |= (uint32_t)RCC_PPRE1_DIV1;
    2be8:	43d8                	lw	a4,4(a5)
    2bea:	c3d8                	sw	a4,4(a5)
D:\1.intelligent vehicle\new try\seefree\Seekfree_CH32V103R8T6_Opensource_Library\obj/../Libraries/board/clock_config.c:49
        RCC->CFGR0 &= (uint32_t)((uint32_t)~(RCC_PLLSRC | RCC_PLLXTPRE |
    2bec:	43d8                	lw	a4,4(a5)
    2bee:	ffc106b7          	lui	a3,0xffc10
    2bf2:	16fd                	addi	a3,a3,-1
    2bf4:	8f75                	and	a4,a4,a3
    2bf6:	c3d8                	sw	a4,4(a5)
D:\1.intelligent vehicle\new try\seefree\Seekfree_CH32V103R8T6_Opensource_Library\obj/../Libraries/board/clock_config.c:52
        RCC->CFGR0 |= (uint32_t)(RCC_PLLSRC_HSE | RCC_PLLMULL11);
    2bf8:	43d8                	lw	a4,4(a5)
    2bfa:	002506b7          	lui	a3,0x250
    2bfe:	8f55                	or	a4,a4,a3
    2c00:	c3d8                	sw	a4,4(a5)
D:\1.intelligent vehicle\new try\seefree\Seekfree_CH32V103R8T6_Opensource_Library\obj/../Libraries/board/clock_config.c:54
        RCC->CTLR |= RCC_PLLON;
    2c02:	4398                	lw	a4,0(a5)
    2c04:	010006b7          	lui	a3,0x1000
    2c08:	8f55                	or	a4,a4,a3
    2c0a:	c398                	sw	a4,0(a5)
D:\1.intelligent vehicle\new try\seefree\Seekfree_CH32V103R8T6_Opensource_Library\obj/../Libraries/board/clock_config.c:56
        while((RCC->CTLR & RCC_PLLRDY) == 0)
    2c0c:	40021737          	lui	a4,0x40021
    2c10:	431c                	lw	a5,0(a4)
    2c12:	00679693          	slli	a3,a5,0x6
    2c16:	fe06dde3          	bgez	a3,2c10 <SystemInit+0xe0>
D:\1.intelligent vehicle\new try\seefree\Seekfree_CH32V103R8T6_Opensource_Library\obj/../Libraries/board/clock_config.c:60
        RCC->CFGR0 &= (uint32_t)((uint32_t)~(RCC_SW));
    2c1a:	400217b7          	lui	a5,0x40021
    2c1e:	43d8                	lw	a4,4(a5)
    2c20:	9b71                	andi	a4,a4,-4
    2c22:	c3d8                	sw	a4,4(a5)
D:\1.intelligent vehicle\new try\seefree\Seekfree_CH32V103R8T6_Opensource_Library\obj/../Libraries/board/clock_config.c:61
        RCC->CFGR0 |= (uint32_t)RCC_SW_PLL;
    2c24:	43d8                	lw	a4,4(a5)
    2c26:	00276713          	ori	a4,a4,2
    2c2a:	c3d8                	sw	a4,4(a5)
D:\1.intelligent vehicle\new try\seefree\Seekfree_CH32V103R8T6_Opensource_Library\obj/../Libraries/board/clock_config.c:63
        while ((RCC->CFGR0 & (uint32_t)RCC_SWS) != (uint32_t)0x08)
    2c2c:	400216b7          	lui	a3,0x40021
    2c30:	4721                	li	a4,8
    2c32:	42dc                	lw	a5,4(a3)
    2c34:	8bb1                	andi	a5,a5,12
    2c36:	fee79ee3          	bne	a5,a4,2c32 <SystemInit+0x102>
    2c3a:	b741                	j	2bba <SystemInit+0x8a>

00002c3c <Data_Send>:
Data_Send():
D:\1.intelligent vehicle\new try\seefree\Seekfree_CH32V103R8T6_Opensource_Library\obj/../CODE/Serial_oscilloscope.c:19



//unsigned char data_to_send[16];
void Data_Send(UARTN_enum uratn,unsigned short int *pst)
{
    2c3c:	7179                	addi	sp,sp,-48
    2c3e:	d606                	sw	ra,44(sp)
D:\1.intelligent vehicle\new try\seefree\Seekfree_CH32V103R8T6_Opensource_Library\obj/../CODE/Serial_oscilloscope.c:22
        unsigned char _cnt=0;	unsigned char sum = 0;
	unsigned char data_to_send[23];         //发送缓存
	data_to_send[_cnt++]=0xAA;
    2c40:	faa00793          	li	a5,-86
    2c44:	00f10423          	sb	a5,8(sp)
D:\1.intelligent vehicle\new try\seefree\Seekfree_CH32V103R8T6_Opensource_Library\obj/../CODE/Serial_oscilloscope.c:23
	data_to_send[_cnt++]=0xAA;
    2c48:	00f104a3          	sb	a5,9(sp)
D:\1.intelligent vehicle\new try\seefree\Seekfree_CH32V103R8T6_Opensource_Library\obj/../CODE/Serial_oscilloscope.c:24
	data_to_send[_cnt++]=0x02;
    2c4c:	4789                	li	a5,2
    2c4e:	00f10523          	sb	a5,10(sp)
D:\1.intelligent vehicle\new try\seefree\Seekfree_CH32V103R8T6_Opensource_Library\obj/../CODE/Serial_oscilloscope.c:26
	data_to_send[_cnt++]=0;
	data_to_send[_cnt++]=(unsigned char)(pst[0]>>8);  //高8位
    2c52:	0005d783          	lhu	a5,0(a1)
    2c56:	0087d713          	srli	a4,a5,0x8
    2c5a:	00e10623          	sb	a4,12(sp)
D:\1.intelligent vehicle\new try\seefree\Seekfree_CH32V103R8T6_Opensource_Library\obj/../CODE/Serial_oscilloscope.c:27
	data_to_send[_cnt++]=(unsigned char)pst[0];  //低8位
    2c5e:	00f106a3          	sb	a5,13(sp)
D:\1.intelligent vehicle\new try\seefree\Seekfree_CH32V103R8T6_Opensource_Library\obj/../CODE/Serial_oscilloscope.c:28
	data_to_send[_cnt++]=(unsigned char)(pst[1]>>8);
    2c62:	0025d783          	lhu	a5,2(a1)
    2c66:	0087d713          	srli	a4,a5,0x8
    2c6a:	00e10723          	sb	a4,14(sp)
D:\1.intelligent vehicle\new try\seefree\Seekfree_CH32V103R8T6_Opensource_Library\obj/../CODE/Serial_oscilloscope.c:29
	data_to_send[_cnt++]=(unsigned char)pst[1];
    2c6e:	00f107a3          	sb	a5,15(sp)
D:\1.intelligent vehicle\new try\seefree\Seekfree_CH32V103R8T6_Opensource_Library\obj/../CODE/Serial_oscilloscope.c:30
	data_to_send[_cnt++]=(unsigned char)(pst[2]>>8);
    2c72:	0045d783          	lhu	a5,4(a1)
    2c76:	0087d713          	srli	a4,a5,0x8
    2c7a:	00e10823          	sb	a4,16(sp)
D:\1.intelligent vehicle\new try\seefree\Seekfree_CH32V103R8T6_Opensource_Library\obj/../CODE/Serial_oscilloscope.c:31
	data_to_send[_cnt++]=(unsigned char)pst[2];
    2c7e:	00f108a3          	sb	a5,17(sp)
D:\1.intelligent vehicle\new try\seefree\Seekfree_CH32V103R8T6_Opensource_Library\obj/../CODE/Serial_oscilloscope.c:32
	data_to_send[_cnt++]=(unsigned char)(pst[3]>>8);
    2c82:	0065d783          	lhu	a5,6(a1)
    2c86:	0087d713          	srli	a4,a5,0x8
    2c8a:	00e10923          	sb	a4,18(sp)
D:\1.intelligent vehicle\new try\seefree\Seekfree_CH32V103R8T6_Opensource_Library\obj/../CODE/Serial_oscilloscope.c:33
	data_to_send[_cnt++]=(unsigned char)pst[3];
    2c8e:	00f109a3          	sb	a5,19(sp)
D:\1.intelligent vehicle\new try\seefree\Seekfree_CH32V103R8T6_Opensource_Library\obj/../CODE/Serial_oscilloscope.c:34
	data_to_send[_cnt++]=(unsigned char)(pst[4]>>8);
    2c92:	0085d783          	lhu	a5,8(a1)
    2c96:	0087d713          	srli	a4,a5,0x8
    2c9a:	00e10a23          	sb	a4,20(sp)
D:\1.intelligent vehicle\new try\seefree\Seekfree_CH32V103R8T6_Opensource_Library\obj/../CODE/Serial_oscilloscope.c:35
	data_to_send[_cnt++]=(unsigned char)pst[4];
    2c9e:	00f10aa3          	sb	a5,21(sp)
D:\1.intelligent vehicle\new try\seefree\Seekfree_CH32V103R8T6_Opensource_Library\obj/../CODE/Serial_oscilloscope.c:36
	data_to_send[_cnt++]=(unsigned char)(pst[5]>>8);
    2ca2:	00a5d783          	lhu	a5,10(a1)
    2ca6:	0087d713          	srli	a4,a5,0x8
    2caa:	00e10b23          	sb	a4,22(sp)
D:\1.intelligent vehicle\new try\seefree\Seekfree_CH32V103R8T6_Opensource_Library\obj/../CODE/Serial_oscilloscope.c:37
	data_to_send[_cnt++]=(unsigned char)pst[5];
    2cae:	00f10ba3          	sb	a5,23(sp)
D:\1.intelligent vehicle\new try\seefree\Seekfree_CH32V103R8T6_Opensource_Library\obj/../CODE/Serial_oscilloscope.c:38
	data_to_send[_cnt++]=(unsigned char)(pst[6]>>8);
    2cb2:	00c5d783          	lhu	a5,12(a1)
    2cb6:	0087d713          	srli	a4,a5,0x8
    2cba:	00e10c23          	sb	a4,24(sp)
D:\1.intelligent vehicle\new try\seefree\Seekfree_CH32V103R8T6_Opensource_Library\obj/../CODE/Serial_oscilloscope.c:39
	data_to_send[_cnt++]=(unsigned char)pst[6];
    2cbe:	00f10ca3          	sb	a5,25(sp)
D:\1.intelligent vehicle\new try\seefree\Seekfree_CH32V103R8T6_Opensource_Library\obj/../CODE/Serial_oscilloscope.c:40
	data_to_send[_cnt++]=(unsigned char)(pst[7]>>8);
    2cc2:	00e5d783          	lhu	a5,14(a1)
    2cc6:	0087d713          	srli	a4,a5,0x8
    2cca:	00e10d23          	sb	a4,26(sp)
D:\1.intelligent vehicle\new try\seefree\Seekfree_CH32V103R8T6_Opensource_Library\obj/../CODE/Serial_oscilloscope.c:41
	data_to_send[_cnt++]=(unsigned char)pst[7];
    2cce:	00f10da3          	sb	a5,27(sp)
D:\1.intelligent vehicle\new try\seefree\Seekfree_CH32V103R8T6_Opensource_Library\obj/../CODE/Serial_oscilloscope.c:42
    data_to_send[_cnt++]=(unsigned char)(pst[8]>>8);
    2cd2:	0105d783          	lhu	a5,16(a1)
    2cd6:	0087d713          	srli	a4,a5,0x8
    2cda:	00e10e23          	sb	a4,28(sp)
D:\1.intelligent vehicle\new try\seefree\Seekfree_CH32V103R8T6_Opensource_Library\obj/../CODE/Serial_oscilloscope.c:43
	data_to_send[_cnt++]=(unsigned char)pst[8];
    2cde:	00f10ea3          	sb	a5,29(sp)
D:\1.intelligent vehicle\new try\seefree\Seekfree_CH32V103R8T6_Opensource_Library\obj/../CODE/Serial_oscilloscope.c:46

	
	data_to_send[3] = _cnt-4;
    2ce2:	47c9                	li	a5,18
    2ce4:	00f105a3          	sb	a5,11(sp)
D:\1.intelligent vehicle\new try\seefree\Seekfree_CH32V103R8T6_Opensource_Library\obj/../CODE/Serial_oscilloscope.c:50
	
	sum = 0;
        
	for(unsigned char i=0;i<_cnt;i++)
    2ce8:	0038                	addi	a4,sp,8
    2cea:	01e10613          	addi	a2,sp,30
D:\1.intelligent vehicle\new try\seefree\Seekfree_CH32V103R8T6_Opensource_Library\obj/../CODE/Serial_oscilloscope.c:48
	sum = 0;
    2cee:	4781                	li	a5,0
D:\1.intelligent vehicle\new try\seefree\Seekfree_CH32V103R8T6_Opensource_Library\obj/../CODE/Serial_oscilloscope.c:52 (discriminator 3)
	{
	    sum += data_to_send[i];
    2cf0:	00074683          	lbu	a3,0(a4) # 40021000 <_eusrstack+0x2001c000>
    2cf4:	97b6                	add	a5,a5,a3
    2cf6:	0ff7f793          	andi	a5,a5,255
    2cfa:	0705                	addi	a4,a4,1
D:\1.intelligent vehicle\new try\seefree\Seekfree_CH32V103R8T6_Opensource_Library\obj/../CODE/Serial_oscilloscope.c:50 (discriminator 3)
	for(unsigned char i=0;i<_cnt;i++)
    2cfc:	fec71ae3          	bne	a4,a2,2cf0 <Data_Send+0xb4>
D:\1.intelligent vehicle\new try\seefree\Seekfree_CH32V103R8T6_Opensource_Library\obj/../CODE/Serial_oscilloscope.c:55
	}
        
	data_to_send[_cnt++] = sum;
    2d00:	00f10f23          	sb	a5,30(sp)
D:\1.intelligent vehicle\new try\seefree\Seekfree_CH32V103R8T6_Opensource_Library\obj/../CODE/Serial_oscilloscope.c:57

    uart_putbuff(uratn,data_to_send,_cnt);
    2d04:	465d                	li	a2,23
    2d06:	002c                	addi	a1,sp,8
    2d08:	d31ff0ef          	jal	ra,2a38 <uart_putbuff>
D:\1.intelligent vehicle\new try\seefree\Seekfree_CH32V103R8T6_Opensource_Library\obj/../CODE/Serial_oscilloscope.c:59
      
}
    2d0c:	50b2                	lw	ra,44(sp)
    2d0e:	6145                	addi	sp,sp,48
    2d10:	8082                	ret

00002d12 <hcar_adc_init>:
hcar_adc_init():
D:\1.intelligent vehicle\new try\seefree\Seekfree_CH32V103R8T6_Opensource_Library\obj/../CODE/hcar_adc.c:20
uint16  ad_value2;
uint16  ad_value3;
uint16  ad_value4;

void hcar_adc_init(void)
{
    2d12:	1141                	addi	sp,sp,-16
    2d14:	c606                	sw	ra,12(sp)
D:\1.intelligent vehicle\new try\seefree\Seekfree_CH32V103R8T6_Opensource_Library\obj/../CODE/hcar_adc.c:21
    adc_init(ADC_CH1);
    2d16:	4511                	li	a0,4
    2d18:	e01fe0ef          	jal	ra,1b18 <adc_init>
D:\1.intelligent vehicle\new try\seefree\Seekfree_CH32V103R8T6_Opensource_Library\obj/../CODE/hcar_adc.c:22
    adc_init(ADC_CH2);
    2d1c:	4519                	li	a0,6
    2d1e:	dfbfe0ef          	jal	ra,1b18 <adc_init>
D:\1.intelligent vehicle\new try\seefree\Seekfree_CH32V103R8T6_Opensource_Library\obj/../CODE/hcar_adc.c:23
    adc_init(ADC_CH3);
    2d22:	4521                	li	a0,8
    2d24:	df5fe0ef          	jal	ra,1b18 <adc_init>
D:\1.intelligent vehicle\new try\seefree\Seekfree_CH32V103R8T6_Opensource_Library\obj/../CODE/hcar_adc.c:24
    adc_init(ADC_CH4);
    2d28:	4525                	li	a0,9
    2d2a:	deffe0ef          	jal	ra,1b18 <adc_init>
D:\1.intelligent vehicle\new try\seefree\Seekfree_CH32V103R8T6_Opensource_Library\obj/../CODE/hcar_adc.c:25
}
    2d2e:	40b2                	lw	ra,12(sp)
    2d30:	0141                	addi	sp,sp,16
    2d32:	8082                	ret

00002d34 <hcar_threefork30>:
hcar_threefork30():
D:\1.intelligent vehicle\new try\seefree\Seekfree_CH32V103R8T6_Opensource_Library\obj/../CODE/hcar_element.c:32
    aim_y=210;
    turn_sign=1;
}

void hcar_threefork30()
{
    2d34:	1141                	addi	sp,sp,-16
    2d36:	c606                	sw	ra,12(sp)
D:\1.intelligent vehicle\new try\seefree\Seekfree_CH32V103R8T6_Opensource_Library\obj/../CODE/hcar_element.c:33
    aim_y=0;
    2d38:	84019a23          	sh	zero,-1964(gp) # 200000c4 <aim_y>
D:\1.intelligent vehicle\new try\seefree\Seekfree_CH32V103R8T6_Opensource_Library\obj/../CODE/hcar_element.c:34
    if(turn_over==0)
    2d3c:	8641c783          	lbu	a5,-1948(gp) # 200000d4 <turn_over>
    2d40:	0ff7f793          	andi	a5,a5,255
    2d44:	e789                	bnez	a5,2d4e <hcar_threefork30+0x1a>
D:\1.intelligent vehicle\new try\seefree\Seekfree_CH32V103R8T6_Opensource_Library\obj/../CODE/hcar_element.c:36
    {
        aim_z=-200;
    2d46:	f3800713          	li	a4,-200
    2d4a:	84e19b23          	sh	a4,-1962(gp) # 200000c6 <aim_z>
D:\1.intelligent vehicle\new try\seefree\Seekfree_CH32V103R8T6_Opensource_Library\obj/../CODE/hcar_element.c:39
    }

    get_icm20602_gyro_spi();
    2d4e:	af5fe0ef          	jal	ra,1842 <get_icm20602_gyro_spi>
D:\1.intelligent vehicle\new try\seefree\Seekfree_CH32V103R8T6_Opensource_Library\obj/../CODE/hcar_element.c:40
}
    2d52:	40b2                	lw	ra,12(sp)
    2d54:	0141                	addi	sp,sp,16
    2d56:	8082                	ret

00002d58 <hcar_gogogo>:
hcar_gogogo():
D:\1.intelligent vehicle\new try\seefree\Seekfree_CH32V103R8T6_Opensource_Library\obj/../CODE/hcar_gogogo.c:19
#ifdef DOUBLE_CORE_HOST
/////////////////////////////////////////////////////////////////////////////////////////////////////////////////
//////////////////////////////////////////双机通信之主机，完成整体计算，插在右边卡槽
/////////////////////////////////////////////////////////////////////////////////////////////////////////////////
void hcar_gogogo(void)//双机通信之主机，完成整体计算，插在右边卡槽
{
    2d58:	1101                	addi	sp,sp,-32
    2d5a:	ce06                	sw	ra,28(sp)
    2d5c:	cc22                	sw	s0,24(sp)
    2d5e:	ca26                	sw	s1,20(sp)
    2d60:	c84a                	sw	s2,16(sp)
    2d62:	c64e                	sw	s3,12(sp)
D:\1.intelligent vehicle\new try\seefree\Seekfree_CH32V103R8T6_Opensource_Library\obj/../CODE/hcar_gogogo.c:22

  // 系统及延时函数初始化
    DisableGlobalIRQ();
    2d64:	88cff0ef          	jal	ra,1df0 <DisableGlobalIRQ>
D:\1.intelligent vehicle\new try\seefree\Seekfree_CH32V103R8T6_Opensource_Library\obj/../CODE/hcar_gogogo.c:23
    board_init();           //务必保留，本函数用于初始化MPU 时钟 调试串口
    2d68:	d3dff0ef          	jal	ra,2aa4 <board_init>
D:\1.intelligent vehicle\new try\seefree\Seekfree_CH32V103R8T6_Opensource_Library\obj/../CODE/hcar_gogogo.c:24
    systick_delay_ms(500);
    2d6c:	8501a783          	lw	a5,-1968(gp) # 200000c0 <sys_clk>
    2d70:	6709                	lui	a4,0x2
    2d72:	f4070713          	addi	a4,a4,-192 # 1f40 <pwm_gpio_init+0x114>
    2d76:	02e7d7b3          	divu	a5,a5,a4
    2d7a:	1f400513          	li	a0,500
    2d7e:	02a78533          	mul	a0,a5,a0
    2d82:	4581                	li	a1,0
    2d84:	ac7ff0ef          	jal	ra,284a <systick_delay>
D:\1.intelligent vehicle\new try\seefree\Seekfree_CH32V103R8T6_Opensource_Library\obj/../CODE/hcar_gogogo.c:26

    hcar_init();
    2d88:	28ad                	jal	2e02 <hcar_init>
D:\1.intelligent vehicle\new try\seefree\Seekfree_CH32V103R8T6_Opensource_Library\obj/../CODE/hcar_gogogo.c:27
    lcd_init();
    2d8a:	e62fe0ef          	jal	ra,13ec <lcd_init>
D:\1.intelligent vehicle\new try\seefree\Seekfree_CH32V103R8T6_Opensource_Library\obj/../CODE/hcar_gogogo.c:28
    hcar_motor_init();
    2d8e:	22dd                	jal	2f74 <hcar_motor_init>
D:\1.intelligent vehicle\new try\seefree\Seekfree_CH32V103R8T6_Opensource_Library\obj/../CODE/hcar_gogogo.c:30

    gpio_interrupt_init(A0, RISING, GPIO_INT_CONFIG);       //A0初始化为GPIO 上升沿触发
    2d90:	04800613          	li	a2,72
    2d94:	45a1                	li	a1,8
    2d96:	4501                	li	a0,0
    2d98:	f8ffe0ef          	jal	ra,1d26 <gpio_interrupt_init>
D:\1.intelligent vehicle\new try\seefree\Seekfree_CH32V103R8T6_Opensource_Library\obj/../CODE/hcar_gogogo.c:31
    nvic_init(EXTI0_IRQn, 1, 1, ENABLE);                    //EXTI0优先级配置，抢占优先级1，次优先级1
    2d9c:	4685                	li	a3,1
    2d9e:	4605                	li	a2,1
    2da0:	4585                	li	a1,1
    2da2:	4559                	li	a0,22
    2da4:	fe5fe0ef          	jal	ra,1d88 <nvic_init>
D:\1.intelligent vehicle\new try\seefree\Seekfree_CH32V103R8T6_Opensource_Library\obj/../CODE/hcar_gogogo.c:33

    uart_rx_irq(UART_3, ENABLE);                            //默认抢占优先级0 次优先级0。
    2da8:	4585                	li	a1,1
    2daa:	4509                	li	a0,2
    2dac:	cbdff0ef          	jal	ra,2a68 <uart_rx_irq>
D:\1.intelligent vehicle\new try\seefree\Seekfree_CH32V103R8T6_Opensource_Library\obj/../CODE/hcar_gogogo.c:34
    nvic_init((IRQn_Type)(53 + UART_3), 0, 0, ENABLE);      //将串口3的抢占优先级设置为最高，次优先级设置为最高。
    2db0:	4685                	li	a3,1
    2db2:	4601                	li	a2,0
    2db4:	4581                	li	a1,0
    2db6:	03700513          	li	a0,55
    2dba:	fcffe0ef          	jal	ra,1d88 <nvic_init>
D:\1.intelligent vehicle\new try\seefree\Seekfree_CH32V103R8T6_Opensource_Library\obj/../CODE/hcar_gogogo.c:35
    hcar_adc_init();//adc
    2dbe:	f55ff0ef          	jal	ra,2d12 <hcar_adc_init>
D:\1.intelligent vehicle\new try\seefree\Seekfree_CH32V103R8T6_Opensource_Library\obj/../CODE/hcar_gogogo.c:37

    seekfree_wireless_init();//无线串口
    2dc2:	bf3fe0ef          	jal	ra,19b4 <seekfree_wireless_init>
D:\1.intelligent vehicle\new try\seefree\Seekfree_CH32V103R8T6_Opensource_Library\obj/../CODE/hcar_gogogo.c:46
    //mt9v03x_init();//摄像头
    //get_cut_array();//改变图片尺寸

    //gpio_init(A4, GPO, 0, GPIO_PIN_CONFIG);//测试用

    EnableGlobalIRQ(0); //总中断最后开启
    2dc6:	4501                	li	a0,0
    2dc8:	850ff0ef          	jal	ra,1e18 <EnableGlobalIRQ>
D:\1.intelligent vehicle\new try\seefree\Seekfree_CH32V103R8T6_Opensource_Library\obj/../CODE/hcar_gogogo.c:80
        }*/

        //元素识别
        //zebra_crossing();
        //three_fork();
        if(three_fork_flag==1)
    2dcc:	4405                	li	s0,1
D:\1.intelligent vehicle\new try\seefree\Seekfree_CH32V103R8T6_Opensource_Library\obj/../CODE/hcar_gogogo.c:99
//        lcd_showstr(0,7,"turn_over:");
//        lcd_showuint8(12*8,7,turn_over);

//        lcd_showstr(0,0,"aim_x:");
//        lcd_showint16(12*8,0,aim_x);
        lcd_showstr(0,1,"aim_y:");
    2dce:	00006937          	lui	s2,0x6
D:\1.intelligent vehicle\new try\seefree\Seekfree_CH32V103R8T6_Opensource_Library\obj/../CODE/hcar_gogogo.c:100
        lcd_showint16(12*8,1,aim_y);
    2dd2:	a831                	j	2dee <hcar_gogogo+0x96>
D:\1.intelligent vehicle\new try\seefree\Seekfree_CH32V103R8T6_Opensource_Library\obj/../CODE/hcar_gogogo.c:99
        lcd_showstr(0,1,"aim_y:");
    2dd4:	cc490613          	addi	a2,s2,-828 # 5cc4 <UARTN+0x10>
    2dd8:	85a2                	mv	a1,s0
    2dda:	4501                	li	a0,0
    2ddc:	931fe0ef          	jal	ra,170c <lcd_showstr>
D:\1.intelligent vehicle\new try\seefree\Seekfree_CH32V103R8T6_Opensource_Library\obj/../CODE/hcar_gogogo.c:100
        lcd_showint16(12*8,1,aim_y);
    2de0:	85419603          	lh	a2,-1964(gp) # 200000c4 <aim_y>
    2de4:	85a2                	mv	a1,s0
    2de6:	06000513          	li	a0,96
    2dea:	96ffe0ef          	jal	ra,1758 <lcd_showint16>
D:\1.intelligent vehicle\new try\seefree\Seekfree_CH32V103R8T6_Opensource_Library\obj/../CODE/hcar_gogogo.c:53
        hcar_key_get();
    2dee:	2051                	jal	2e72 <hcar_key_get>
D:\1.intelligent vehicle\new try\seefree\Seekfree_CH32V103R8T6_Opensource_Library\obj/../CODE/hcar_gogogo.c:80
        if(three_fork_flag==1)
    2df0:	8e91c783          	lbu	a5,-1815(gp) # 20000159 <three_fork_flag>
    2df4:	0ff7f793          	andi	a5,a5,255
    2df8:	fc879ee3          	bne	a5,s0,2dd4 <hcar_gogogo+0x7c>
D:\1.intelligent vehicle\new try\seefree\Seekfree_CH32V103R8T6_Opensource_Library\obj/../CODE/hcar_gogogo.c:82
            hcar_threefork30();
    2dfc:	f39ff0ef          	jal	ra,2d34 <hcar_threefork30>
    2e00:	bfd1                	j	2dd4 <hcar_gogogo+0x7c>

00002e02 <hcar_init>:
hcar_init():
D:\1.intelligent vehicle\new try\seefree\Seekfree_CH32V103R8T6_Opensource_Library\obj/../CODE/hcar_init.c:33

uint16 encoder_str[10]={0};


void hcar_init(void)
{
    2e02:	1141                	addi	sp,sp,-16
    2e04:	c606                	sw	ra,12(sp)
D:\1.intelligent vehicle\new try\seefree\Seekfree_CH32V103R8T6_Opensource_Library\obj/../CODE/hcar_init.c:35
    //按键初始化
    hcar_key_init();
    2e06:	280d                	jal	2e38 <hcar_key_init>
D:\1.intelligent vehicle\new try\seefree\Seekfree_CH32V103R8T6_Opensource_Library\obj/../CODE/hcar_init.c:40




    uart_init(UART_3, 460800, UART3_TX_B10, UART3_RX_B11);  //串口3初始化，波特率460800
    2e08:	02100693          	li	a3,33
    2e0c:	02000613          	li	a2,32
    2e10:	000715b7          	lui	a1,0x71
    2e14:	80058593          	addi	a1,a1,-2048 # 70800 <_data_lma+0x6a910>
    2e18:	4509                	li	a0,2
    2e1a:	b35ff0ef          	jal	ra,294e <uart_init>
D:\1.intelligent vehicle\new try\seefree\Seekfree_CH32V103R8T6_Opensource_Library\obj/../CODE/hcar_init.c:41
    timer_quad_init(TIMER_2, TIMER2_CHA_A15, TIMER2_CHB_B3);
    2e1e:	4615                	li	a2,5
    2e20:	4591                	li	a1,4
    2e22:	4505                	li	a0,1
    2e24:	e68ff0ef          	jal	ra,248c <timer_quad_init>
D:\1.intelligent vehicle\new try\seefree\Seekfree_CH32V103R8T6_Opensource_Library\obj/../CODE/hcar_init.c:42
    timer_quad_init(TIMER_3, TIMER3_CHA_B4, TIMER3_CHB_B5);//两个编码器
    2e28:	462d                	li	a2,11
    2e2a:	45a9                	li	a1,10
    2e2c:	4509                	li	a0,2
    2e2e:	e5eff0ef          	jal	ra,248c <timer_quad_init>
D:\1.intelligent vehicle\new try\seefree\Seekfree_CH32V103R8T6_Opensource_Library\obj/../CODE/hcar_init.c:46
    //adc_init();


}
    2e32:	40b2                	lw	ra,12(sp)
    2e34:	0141                	addi	sp,sp,16
    2e36:	8082                	ret

00002e38 <hcar_key_init>:
hcar_key_init():
D:\1.intelligent vehicle\new try\seefree\Seekfree_CH32V103R8T6_Opensource_Library\obj/../CODE/hcar_key.c:30
vuint8 key1_flag=0;
vuint8 key2_flag=0;
vuint8 key3_flag=0;

void hcar_key_init(void)
{
    2e38:	1141                	addi	sp,sp,-16
    2e3a:	c606                	sw	ra,12(sp)
D:\1.intelligent vehicle\new try\seefree\Seekfree_CH32V103R8T6_Opensource_Library\obj/../CODE/hcar_key.c:31
    gpio_init(KEY1, GPI, 0, GPIO_INT_CONFIG);
    2e3c:	04800693          	li	a3,72
    2e40:	4601                	li	a2,0
    2e42:	4581                	li	a1,0
    2e44:	04800513          	li	a0,72
    2e48:	d71fe0ef          	jal	ra,1bb8 <gpio_init>
D:\1.intelligent vehicle\new try\seefree\Seekfree_CH32V103R8T6_Opensource_Library\obj/../CODE/hcar_key.c:32
    gpio_init(KEY2, GPI, 0, GPIO_INT_CONFIG);
    2e4c:	04800693          	li	a3,72
    2e50:	4601                	li	a2,0
    2e52:	4581                	li	a1,0
    2e54:	04900513          	li	a0,73
    2e58:	d61fe0ef          	jal	ra,1bb8 <gpio_init>
D:\1.intelligent vehicle\new try\seefree\Seekfree_CH32V103R8T6_Opensource_Library\obj/../CODE/hcar_key.c:33
    gpio_init(KEY3, GPI, 0, GPIO_INT_CONFIG);
    2e5c:	04800693          	li	a3,72
    2e60:	4601                	li	a2,0
    2e62:	4581                	li	a1,0
    2e64:	02200513          	li	a0,34
    2e68:	d51fe0ef          	jal	ra,1bb8 <gpio_init>
D:\1.intelligent vehicle\new try\seefree\Seekfree_CH32V103R8T6_Opensource_Library\obj/../CODE/hcar_key.c:34
}
    2e6c:	40b2                	lw	ra,12(sp)
    2e6e:	0141                	addi	sp,sp,16
    2e70:	8082                	ret

00002e72 <hcar_key_get>:
hcar_key_get():
D:\1.intelligent vehicle\new try\seefree\Seekfree_CH32V103R8T6_Opensource_Library\obj/../CODE/hcar_key.c:36
void hcar_key_get(void)
{
    2e72:	1141                	addi	sp,sp,-16
    2e74:	c606                	sw	ra,12(sp)
    2e76:	c422                	sw	s0,8(sp)
    2e78:	c226                	sw	s1,4(sp)
    2e7a:	c04a                	sw	s2,0(sp)
D:\1.intelligent vehicle\new try\seefree\Seekfree_CH32V103R8T6_Opensource_Library\obj/../CODE/hcar_key.c:39
    //使用此方法优点在于，不需要使用while(1) 等待，避免处理器资源浪费
    //保存按键状态
    key1_last_status = key1_status;
    2e7c:	80818413          	addi	s0,gp,-2040 # 20000078 <key1_status>
    2e80:	00044783          	lbu	a5,0(s0)
    2e84:	0ff7f793          	andi	a5,a5,255
    2e88:	86f186a3          	sb	a5,-1939(gp) # 200000dd <key1_last_status>
D:\1.intelligent vehicle\new try\seefree\Seekfree_CH32V103R8T6_Opensource_Library\obj/../CODE/hcar_key.c:40
    key2_last_status = key2_status;
    2e8c:	80918913          	addi	s2,gp,-2039 # 20000079 <key2_status>
    2e90:	00094783          	lbu	a5,0(s2)
    2e94:	0ff7f793          	andi	a5,a5,255
    2e98:	86f187a3          	sb	a5,-1937(gp) # 200000df <key2_last_status>
D:\1.intelligent vehicle\new try\seefree\Seekfree_CH32V103R8T6_Opensource_Library\obj/../CODE/hcar_key.c:41
    key3_last_status = key3_status;
    2e9c:	80a18493          	addi	s1,gp,-2038 # 2000007a <key3_status>
    2ea0:	0004c783          	lbu	a5,0(s1)
    2ea4:	0ff7f793          	andi	a5,a5,255
    2ea8:	86f188a3          	sb	a5,-1935(gp) # 200000e1 <key3_last_status>
D:\1.intelligent vehicle\new try\seefree\Seekfree_CH32V103R8T6_Opensource_Library\obj/../CODE/hcar_key.c:44

    //读取当前按键状态
    key1_status = gpio_get(KEY1);
    2eac:	04800513          	li	a0,72
    2eb0:	e55fe0ef          	jal	ra,1d04 <gpio_get>
    2eb4:	00a40023          	sb	a0,0(s0)
D:\1.intelligent vehicle\new try\seefree\Seekfree_CH32V103R8T6_Opensource_Library\obj/../CODE/hcar_key.c:45
    key2_status = gpio_get(KEY2);
    2eb8:	04900513          	li	a0,73
    2ebc:	e49fe0ef          	jal	ra,1d04 <gpio_get>
    2ec0:	00a90023          	sb	a0,0(s2)
D:\1.intelligent vehicle\new try\seefree\Seekfree_CH32V103R8T6_Opensource_Library\obj/../CODE/hcar_key.c:46
    key3_status = gpio_get(KEY3);
    2ec4:	02200513          	li	a0,34
    2ec8:	e3dfe0ef          	jal	ra,1d04 <gpio_get>
    2ecc:	00a48023          	sb	a0,0(s1)
D:\1.intelligent vehicle\new try\seefree\Seekfree_CH32V103R8T6_Opensource_Library\obj/../CODE/hcar_key.c:50


    //检测到按键按下之后  并放开置位标志位
    if(key1_status && !key1_last_status)    key1_flag = 1;
    2ed0:	00044783          	lbu	a5,0(s0)
    2ed4:	0ff7f793          	andi	a5,a5,255
    2ed8:	cb89                	beqz	a5,2eea <hcar_key_get+0x78>
D:\1.intelligent vehicle\new try\seefree\Seekfree_CH32V103R8T6_Opensource_Library\obj/../CODE/hcar_key.c:50 (discriminator 1)
    2eda:	86d1c783          	lbu	a5,-1939(gp) # 200000dd <key1_last_status>
    2ede:	0ff7f793          	andi	a5,a5,255
    2ee2:	e781                	bnez	a5,2eea <hcar_key_get+0x78>
D:\1.intelligent vehicle\new try\seefree\Seekfree_CH32V103R8T6_Opensource_Library\obj/../CODE/hcar_key.c:50 (discriminator 2)
    2ee4:	4705                	li	a4,1
    2ee6:	86e18623          	sb	a4,-1940(gp) # 200000dc <key1_flag>
D:\1.intelligent vehicle\new try\seefree\Seekfree_CH32V103R8T6_Opensource_Library\obj/../CODE/hcar_key.c:51
    if(key2_status && !key2_last_status)    key2_flag = 1;
    2eea:	8091c783          	lbu	a5,-2039(gp) # 20000079 <key2_status>
    2eee:	0ff7f793          	andi	a5,a5,255
    2ef2:	cb89                	beqz	a5,2f04 <hcar_key_get+0x92>
D:\1.intelligent vehicle\new try\seefree\Seekfree_CH32V103R8T6_Opensource_Library\obj/../CODE/hcar_key.c:51 (discriminator 1)
    2ef4:	86f1c783          	lbu	a5,-1937(gp) # 200000df <key2_last_status>
    2ef8:	0ff7f793          	andi	a5,a5,255
    2efc:	e781                	bnez	a5,2f04 <hcar_key_get+0x92>
D:\1.intelligent vehicle\new try\seefree\Seekfree_CH32V103R8T6_Opensource_Library\obj/../CODE/hcar_key.c:51 (discriminator 2)
    2efe:	4705                	li	a4,1
    2f00:	86e18723          	sb	a4,-1938(gp) # 200000de <key2_flag>
D:\1.intelligent vehicle\new try\seefree\Seekfree_CH32V103R8T6_Opensource_Library\obj/../CODE/hcar_key.c:52
    if(key3_status && !key3_last_status)    key3_flag = 1;
    2f04:	80a1c783          	lbu	a5,-2038(gp) # 2000007a <key3_status>
    2f08:	0ff7f793          	andi	a5,a5,255
    2f0c:	cb89                	beqz	a5,2f1e <hcar_key_get+0xac>
D:\1.intelligent vehicle\new try\seefree\Seekfree_CH32V103R8T6_Opensource_Library\obj/../CODE/hcar_key.c:52 (discriminator 1)
    2f0e:	8711c783          	lbu	a5,-1935(gp) # 200000e1 <key3_last_status>
    2f12:	0ff7f793          	andi	a5,a5,255
    2f16:	e781                	bnez	a5,2f1e <hcar_key_get+0xac>
D:\1.intelligent vehicle\new try\seefree\Seekfree_CH32V103R8T6_Opensource_Library\obj/../CODE/hcar_key.c:52 (discriminator 2)
    2f18:	4705                	li	a4,1
    2f1a:	86e18823          	sb	a4,-1936(gp) # 200000e0 <key3_flag>
D:\1.intelligent vehicle\new try\seefree\Seekfree_CH32V103R8T6_Opensource_Library\obj/../CODE/hcar_key.c:53
    if(key1_flag)
    2f1e:	86c1c783          	lbu	a5,-1940(gp) # 200000dc <key1_flag>
    2f22:	0ff7f793          	andi	a5,a5,255
    2f26:	cb89                	beqz	a5,2f38 <hcar_key_get+0xc6>
D:\1.intelligent vehicle\new try\seefree\Seekfree_CH32V103R8T6_Opensource_Library\obj/../CODE/hcar_key.c:55
    {
        key1_flag = 0;//使用按键之后，应该清除标志位
    2f28:	86018623          	sb	zero,-1940(gp) # 200000dc <key1_flag>
D:\1.intelligent vehicle\new try\seefree\Seekfree_CH32V103R8T6_Opensource_Library\obj/../CODE/hcar_key.c:56
        aim_y-=50;
    2f2c:	8541d783          	lhu	a5,-1964(gp) # 200000c4 <aim_y>
    2f30:	fce78793          	addi	a5,a5,-50 # 40020fce <_eusrstack+0x2001bfce>
    2f34:	84f19a23          	sh	a5,-1964(gp) # 200000c4 <aim_y>
D:\1.intelligent vehicle\new try\seefree\Seekfree_CH32V103R8T6_Opensource_Library\obj/../CODE/hcar_key.c:59
    }

    if(key2_flag)
    2f38:	86e1c783          	lbu	a5,-1938(gp) # 200000de <key2_flag>
    2f3c:	0ff7f793          	andi	a5,a5,255
    2f40:	c799                	beqz	a5,2f4e <hcar_key_get+0xdc>
D:\1.intelligent vehicle\new try\seefree\Seekfree_CH32V103R8T6_Opensource_Library\obj/../CODE/hcar_key.c:61
    {
        key2_flag = 0;//使用按键之后，应该清除标志位
    2f42:	86018723          	sb	zero,-1938(gp) # 200000de <key2_flag>
D:\1.intelligent vehicle\new try\seefree\Seekfree_CH32V103R8T6_Opensource_Library\obj/../CODE/hcar_key.c:62
        aim_y=100;
    2f46:	06400713          	li	a4,100
    2f4a:	84e19a23          	sh	a4,-1964(gp) # 200000c4 <aim_y>
D:\1.intelligent vehicle\new try\seefree\Seekfree_CH32V103R8T6_Opensource_Library\obj/../CODE/hcar_key.c:65
    }

    if(key3_flag)
    2f4e:	8701c783          	lbu	a5,-1936(gp) # 200000e0 <key3_flag>
    2f52:	0ff7f793          	andi	a5,a5,255
    2f56:	cb89                	beqz	a5,2f68 <hcar_key_get+0xf6>
D:\1.intelligent vehicle\new try\seefree\Seekfree_CH32V103R8T6_Opensource_Library\obj/../CODE/hcar_key.c:67
    {
        key3_flag = 0;//使用按键之后，应该清除标志位
    2f58:	86018823          	sb	zero,-1936(gp) # 200000e0 <key3_flag>
D:\1.intelligent vehicle\new try\seefree\Seekfree_CH32V103R8T6_Opensource_Library\obj/../CODE/hcar_key.c:68
        aim_y+=50;
    2f5c:	8541d783          	lhu	a5,-1964(gp) # 200000c4 <aim_y>
    2f60:	03278793          	addi	a5,a5,50
    2f64:	84f19a23          	sh	a5,-1964(gp) # 200000c4 <aim_y>
D:\1.intelligent vehicle\new try\seefree\Seekfree_CH32V103R8T6_Opensource_Library\obj/../CODE/hcar_key.c:71
    }

}
    2f68:	40b2                	lw	ra,12(sp)
    2f6a:	4422                	lw	s0,8(sp)
    2f6c:	4492                	lw	s1,4(sp)
    2f6e:	4902                	lw	s2,0(sp)
    2f70:	0141                	addi	sp,sp,16
    2f72:	8082                	ret

00002f74 <hcar_motor_init>:
hcar_motor_init():
D:\1.intelligent vehicle\new try\seefree\Seekfree_CH32V103R8T6_Opensource_Library\obj/../CODE/hcar_motor.c:48
float kp1=5, ki1=0, kd1=0;
float kp2=1.5, ki2=0.36, kd2=0;
float kp3=1.5, ki3=0.36, kd3=0;
float kp4=1.5, ki4=0.36, kd4=0;
void hcar_motor_init(void)
{
    2f74:	1141                	addi	sp,sp,-16
    2f76:	c606                	sw	ra,12(sp)
    2f78:	c422                	sw	s0,8(sp)
D:\1.intelligent vehicle\new try\seefree\Seekfree_CH32V103R8T6_Opensource_Library\obj/../CODE/hcar_motor.c:49
    gpio_init(MOTOR1_A, GPO, 0, GPIO_PIN_CONFIG);
    2f7a:	31000693          	li	a3,784
    2f7e:	4601                	li	a2,0
    2f80:	4585                	li	a1,1
    2f82:	04a00513          	li	a0,74
    2f86:	c33fe0ef          	jal	ra,1bb8 <gpio_init>
D:\1.intelligent vehicle\new try\seefree\Seekfree_CH32V103R8T6_Opensource_Library\obj/../CODE/hcar_motor.c:50
    pwm_init(MOTOR1_B,17000,0);
    2f8a:	4601                	li	a2,0
    2f8c:	6411                	lui	s0,0x4
    2f8e:	26840593          	addi	a1,s0,616 # 4268 <__floatsisf+0x10>
    2f92:	30000513          	li	a0,768
    2f96:	930ff0ef          	jal	ra,20c6 <pwm_init>
D:\1.intelligent vehicle\new try\seefree\Seekfree_CH32V103R8T6_Opensource_Library\obj/../CODE/hcar_motor.c:51
    gpio_init(MOTOR2_A, GPO, 0, GPIO_PIN_CONFIG);
    2f9a:	31000693          	li	a3,784
    2f9e:	4601                	li	a2,0
    2fa0:	4585                	li	a1,1
    2fa2:	04b00513          	li	a0,75
    2fa6:	c13fe0ef          	jal	ra,1bb8 <gpio_init>
D:\1.intelligent vehicle\new try\seefree\Seekfree_CH32V103R8T6_Opensource_Library\obj/../CODE/hcar_motor.c:52
    pwm_init(MOTOR2_B,17000,0);
    2faa:	4601                	li	a2,0
    2fac:	26840593          	addi	a1,s0,616
    2fb0:	30100513          	li	a0,769
    2fb4:	912ff0ef          	jal	ra,20c6 <pwm_init>
D:\1.intelligent vehicle\new try\seefree\Seekfree_CH32V103R8T6_Opensource_Library\obj/../CODE/hcar_motor.c:53
    gpio_init(MOTOR3_A, GPO, 0, GPIO_PIN_CONFIG);
    2fb8:	31000693          	li	a3,784
    2fbc:	4601                	li	a2,0
    2fbe:	4585                	li	a1,1
    2fc0:	02c00513          	li	a0,44
    2fc4:	bf5fe0ef          	jal	ra,1bb8 <gpio_init>
D:\1.intelligent vehicle\new try\seefree\Seekfree_CH32V103R8T6_Opensource_Library\obj/../CODE/hcar_motor.c:54
    pwm_init(MOTOR3_B,17000,0);
    2fc8:	4601                	li	a2,0
    2fca:	26840593          	addi	a1,s0,616
    2fce:	30200513          	li	a0,770
    2fd2:	8f4ff0ef          	jal	ra,20c6 <pwm_init>
D:\1.intelligent vehicle\new try\seefree\Seekfree_CH32V103R8T6_Opensource_Library\obj/../CODE/hcar_motor.c:55
    gpio_init(MOTOR4_A, GPO, 0, GPIO_PIN_CONFIG);
    2fd6:	31000693          	li	a3,784
    2fda:	4601                	li	a2,0
    2fdc:	4585                	li	a1,1
    2fde:	4521                	li	a0,8
    2fe0:	bd9fe0ef          	jal	ra,1bb8 <gpio_init>
D:\1.intelligent vehicle\new try\seefree\Seekfree_CH32V103R8T6_Opensource_Library\obj/../CODE/hcar_motor.c:56
    pwm_init(MOTOR4_B,17000,0);
    2fe4:	4601                	li	a2,0
    2fe6:	26840593          	addi	a1,s0,616
    2fea:	30300513          	li	a0,771
    2fee:	8d8ff0ef          	jal	ra,20c6 <pwm_init>
D:\1.intelligent vehicle\new try\seefree\Seekfree_CH32V103R8T6_Opensource_Library\obj/../CODE/hcar_motor.c:74
//    pid3.kp = 7;
//    pid3.ki = 0;
//
//    pid4.kp = 7;
//    pid4.ki = 0;
}
    2ff2:	40b2                	lw	ra,12(sp)
    2ff4:	4422                	lw	s0,8(sp)
    2ff6:	0141                	addi	sp,sp,16
    2ff8:	8082                	ret

00002ffa <hcar_motor_control>:
hcar_motor_control():
D:\1.intelligent vehicle\new try\seefree\Seekfree_CH32V103R8T6_Opensource_Library\obj/../CODE/hcar_motor.c:77

void hcar_motor_control(int16 motor1, int16 motor2, int16 motor3, int16 motor4)
{
    2ffa:	1101                	addi	sp,sp,-32
    2ffc:	ce06                	sw	ra,28(sp)
    2ffe:	cc22                	sw	s0,24(sp)
    3000:	ca26                	sw	s1,20(sp)
    3002:	c84a                	sw	s2,16(sp)
    3004:	c64e                	sw	s3,12(sp)
    3006:	89aa                	mv	s3,a0
    3008:	8936                	mv	s2,a3
D:\1.intelligent vehicle\new try\seefree\Seekfree_CH32V103R8T6_Opensource_Library\obj/../CODE/hcar_motor.c:78
    motor2=-motor2;
    300a:	40b005b3          	neg	a1,a1
    300e:	01059493          	slli	s1,a1,0x10
    3012:	84c1                	srai	s1,s1,0x10
D:\1.intelligent vehicle\new try\seefree\Seekfree_CH32V103R8T6_Opensource_Library\obj/../CODE/hcar_motor.c:79
    motor3=-motor3;
    3014:	40c00633          	neg	a2,a2
    3018:	01061413          	slli	s0,a2,0x10
    301c:	8441                	srai	s0,s0,0x10
D:\1.intelligent vehicle\new try\seefree\Seekfree_CH32V103R8T6_Opensource_Library\obj/../CODE/hcar_motor.c:80
    if (motor1 > 0)
    301e:	06a05663          	blez	a0,308a <hcar_motor_control+0x90>
D:\1.intelligent vehicle\new try\seefree\Seekfree_CH32V103R8T6_Opensource_Library\obj/../CODE/hcar_motor.c:82
    {
        gpio_set(MOTOR1_A, 0);
    3022:	4581                	li	a1,0
    3024:	04a00513          	li	a0,74
    3028:	ca3fe0ef          	jal	ra,1cca <gpio_set>
D:\1.intelligent vehicle\new try\seefree\Seekfree_CH32V103R8T6_Opensource_Library\obj/../CODE/hcar_motor.c:83
        pwm_duty(MOTOR1_B, motor1);
    302c:	85ce                	mv	a1,s3
    302e:	30000513          	li	a0,768
    3032:	a9aff0ef          	jal	ra,22cc <pwm_duty>
D:\1.intelligent vehicle\new try\seefree\Seekfree_CH32V103R8T6_Opensource_Library\obj/../CODE/hcar_motor.c:91
    {
        gpio_set(MOTOR1_A, 1);
        pwm_duty(MOTOR1_B, PWM_DUTY_MAX+motor1);
    }

    if (motor2 > 0)
    3036:	06905863          	blez	s1,30a6 <hcar_motor_control+0xac>
D:\1.intelligent vehicle\new try\seefree\Seekfree_CH32V103R8T6_Opensource_Library\obj/../CODE/hcar_motor.c:93
    {
        gpio_set(MOTOR2_A, 0);
    303a:	4581                	li	a1,0
    303c:	04b00513          	li	a0,75
    3040:	c8bfe0ef          	jal	ra,1cca <gpio_set>
D:\1.intelligent vehicle\new try\seefree\Seekfree_CH32V103R8T6_Opensource_Library\obj/../CODE/hcar_motor.c:94
        pwm_duty(MOTOR2_B, motor2);
    3044:	85a6                	mv	a1,s1
    3046:	30100513          	li	a0,769
    304a:	a82ff0ef          	jal	ra,22cc <pwm_duty>
D:\1.intelligent vehicle\new try\seefree\Seekfree_CH32V103R8T6_Opensource_Library\obj/../CODE/hcar_motor.c:102
    {
        gpio_set(MOTOR2_A, 1);
        pwm_duty(MOTOR2_B, PWM_DUTY_MAX+motor2);
    }

    if (motor3 > 0)
    304e:	06805a63          	blez	s0,30c2 <hcar_motor_control+0xc8>
D:\1.intelligent vehicle\new try\seefree\Seekfree_CH32V103R8T6_Opensource_Library\obj/../CODE/hcar_motor.c:104
    {
        gpio_set(MOTOR3_A, 0);
    3052:	4581                	li	a1,0
    3054:	02c00513          	li	a0,44
    3058:	c73fe0ef          	jal	ra,1cca <gpio_set>
D:\1.intelligent vehicle\new try\seefree\Seekfree_CH32V103R8T6_Opensource_Library\obj/../CODE/hcar_motor.c:105
        pwm_duty(MOTOR3_B, motor3);
    305c:	85a2                	mv	a1,s0
    305e:	30200513          	li	a0,770
    3062:	a6aff0ef          	jal	ra,22cc <pwm_duty>
D:\1.intelligent vehicle\new try\seefree\Seekfree_CH32V103R8T6_Opensource_Library\obj/../CODE/hcar_motor.c:113
    {
        gpio_set(MOTOR3_A, 1);
        pwm_duty(MOTOR3_B, PWM_DUTY_MAX+motor3);
    }

    if (motor4 > 0)
    3066:	07205c63          	blez	s2,30de <hcar_motor_control+0xe4>
D:\1.intelligent vehicle\new try\seefree\Seekfree_CH32V103R8T6_Opensource_Library\obj/../CODE/hcar_motor.c:115
    {
        gpio_set(MOTOR4_A, 0);
    306a:	4581                	li	a1,0
    306c:	4521                	li	a0,8
    306e:	c5dfe0ef          	jal	ra,1cca <gpio_set>
D:\1.intelligent vehicle\new try\seefree\Seekfree_CH32V103R8T6_Opensource_Library\obj/../CODE/hcar_motor.c:116
        pwm_duty(MOTOR4_B, motor4);
    3072:	85ca                	mv	a1,s2
    3074:	30300513          	li	a0,771
    3078:	a54ff0ef          	jal	ra,22cc <pwm_duty>
D:\1.intelligent vehicle\new try\seefree\Seekfree_CH32V103R8T6_Opensource_Library\obj/../CODE/hcar_motor.c:123
    else
    {
        gpio_set(MOTOR4_A, 1);
        pwm_duty(MOTOR4_B, PWM_DUTY_MAX+motor4);
    }
}
    307c:	40f2                	lw	ra,28(sp)
    307e:	4462                	lw	s0,24(sp)
    3080:	44d2                	lw	s1,20(sp)
    3082:	4942                	lw	s2,16(sp)
    3084:	49b2                	lw	s3,12(sp)
    3086:	6105                	addi	sp,sp,32
    3088:	8082                	ret
D:\1.intelligent vehicle\new try\seefree\Seekfree_CH32V103R8T6_Opensource_Library\obj/../CODE/hcar_motor.c:87
        gpio_set(MOTOR1_A, 1);
    308a:	4585                	li	a1,1
    308c:	04a00513          	li	a0,74
    3090:	c3bfe0ef          	jal	ra,1cca <gpio_set>
D:\1.intelligent vehicle\new try\seefree\Seekfree_CH32V103R8T6_Opensource_Library\obj/../CODE/hcar_motor.c:88
        pwm_duty(MOTOR1_B, PWM_DUTY_MAX+motor1);
    3094:	6589                	lui	a1,0x2
    3096:	71058593          	addi	a1,a1,1808 # 2710 <spi_gpio_init+0x158>
    309a:	95ce                	add	a1,a1,s3
    309c:	30000513          	li	a0,768
    30a0:	a2cff0ef          	jal	ra,22cc <pwm_duty>
    30a4:	bf49                	j	3036 <hcar_motor_control+0x3c>
D:\1.intelligent vehicle\new try\seefree\Seekfree_CH32V103R8T6_Opensource_Library\obj/../CODE/hcar_motor.c:98
        gpio_set(MOTOR2_A, 1);
    30a6:	4585                	li	a1,1
    30a8:	04b00513          	li	a0,75
    30ac:	c1ffe0ef          	jal	ra,1cca <gpio_set>
D:\1.intelligent vehicle\new try\seefree\Seekfree_CH32V103R8T6_Opensource_Library\obj/../CODE/hcar_motor.c:99
        pwm_duty(MOTOR2_B, PWM_DUTY_MAX+motor2);
    30b0:	6589                	lui	a1,0x2
    30b2:	71058593          	addi	a1,a1,1808 # 2710 <spi_gpio_init+0x158>
    30b6:	95a6                	add	a1,a1,s1
    30b8:	30100513          	li	a0,769
    30bc:	a10ff0ef          	jal	ra,22cc <pwm_duty>
    30c0:	b779                	j	304e <hcar_motor_control+0x54>
D:\1.intelligent vehicle\new try\seefree\Seekfree_CH32V103R8T6_Opensource_Library\obj/../CODE/hcar_motor.c:109
        gpio_set(MOTOR3_A, 1);
    30c2:	4585                	li	a1,1
    30c4:	02c00513          	li	a0,44
    30c8:	c03fe0ef          	jal	ra,1cca <gpio_set>
D:\1.intelligent vehicle\new try\seefree\Seekfree_CH32V103R8T6_Opensource_Library\obj/../CODE/hcar_motor.c:110
        pwm_duty(MOTOR3_B, PWM_DUTY_MAX+motor3);
    30cc:	6589                	lui	a1,0x2
    30ce:	71058593          	addi	a1,a1,1808 # 2710 <spi_gpio_init+0x158>
    30d2:	95a2                	add	a1,a1,s0
    30d4:	30200513          	li	a0,770
    30d8:	9f4ff0ef          	jal	ra,22cc <pwm_duty>
    30dc:	b769                	j	3066 <hcar_motor_control+0x6c>
D:\1.intelligent vehicle\new try\seefree\Seekfree_CH32V103R8T6_Opensource_Library\obj/../CODE/hcar_motor.c:120
        gpio_set(MOTOR4_A, 1);
    30de:	4585                	li	a1,1
    30e0:	4521                	li	a0,8
    30e2:	be9fe0ef          	jal	ra,1cca <gpio_set>
D:\1.intelligent vehicle\new try\seefree\Seekfree_CH32V103R8T6_Opensource_Library\obj/../CODE/hcar_motor.c:121
        pwm_duty(MOTOR4_B, PWM_DUTY_MAX+motor4);
    30e6:	6589                	lui	a1,0x2
    30e8:	71058593          	addi	a1,a1,1808 # 2710 <spi_gpio_init+0x158>
    30ec:	95ca                	add	a1,a1,s2
    30ee:	30300513          	li	a0,771
    30f2:	9daff0ef          	jal	ra,22cc <pwm_duty>
D:\1.intelligent vehicle\new try\seefree\Seekfree_CH32V103R8T6_Opensource_Library\obj/../CODE/hcar_motor.c:123
}
    30f6:	b759                	j	307c <hcar_motor_control+0x82>

000030f8 <hcar_speed_control>:
hcar_speed_control():
D:\1.intelligent vehicle\new try\seefree\Seekfree_CH32V103R8T6_Opensource_Library\obj/../CODE/hcar_motor.c:125
void hcar_speed_control(int16 x, int16 y, int16 z)
{
    30f8:	7139                	addi	sp,sp,-64
    30fa:	de06                	sw	ra,60(sp)
    30fc:	dc22                	sw	s0,56(sp)
    30fe:	da26                	sw	s1,52(sp)
    3100:	d84a                	sw	s2,48(sp)
    3102:	d64e                	sw	s3,44(sp)
    3104:	d452                	sw	s4,40(sp)
    3106:	d256                	sw	s5,36(sp)
    3108:	d05a                	sw	s6,32(sp)
    310a:	ce5e                	sw	s7,28(sp)
    310c:	cc62                	sw	s8,24(sp)
    310e:	ca66                	sw	s9,20(sp)
    3110:	c86a                	sw	s10,16(sp)
    3112:	c66e                	sw	s11,12(sp)
D:\1.intelligent vehicle\new try\seefree\Seekfree_CH32V103R8T6_Opensource_Library\obj/../CODE/hcar_motor.c:128
    // 根据小车速度大小和方向  计算每个轮子的期望转速
    int16 realSpeed1=0, realSpeed2=0, realSpeed3=0, realSpeed4=0;
    targetSpeed1 =   x + y + z;
    3114:	0542                	slli	a0,a0,0x10
    3116:	8141                	srli	a0,a0,0x10
    3118:	05c2                	slli	a1,a1,0x10
    311a:	81c1                	srli	a1,a1,0x10
    311c:	00b50a33          	add	s4,a0,a1
    3120:	0a42                	slli	s4,s4,0x10
    3122:	010a5a13          	srli	s4,s4,0x10
    3126:	0642                	slli	a2,a2,0x10
    3128:	8241                	srli	a2,a2,0x10
    312a:	00ca0b33          	add	s6,s4,a2
    312e:	0b42                	slli	s6,s6,0x10
    3130:	410b5b13          	srai	s6,s6,0x10
    3134:	85619e23          	sh	s6,-1956(gp) # 200000cc <targetSpeed1>
D:\1.intelligent vehicle\new try\seefree\Seekfree_CH32V103R8T6_Opensource_Library\obj/../CODE/hcar_motor.c:129
    targetSpeed2 =  -x + y - z;
    3138:	8d89                	sub	a1,a1,a0
    313a:	05c2                	slli	a1,a1,0x10
    313c:	81c1                	srli	a1,a1,0x10
    313e:	40c58ab3          	sub	s5,a1,a2
    3142:	0ac2                	slli	s5,s5,0x10
    3144:	410ada93          	srai	s5,s5,0x10
    3148:	85519f23          	sh	s5,-1954(gp) # 200000ce <targetSpeed2>
D:\1.intelligent vehicle\new try\seefree\Seekfree_CH32V103R8T6_Opensource_Library\obj/../CODE/hcar_motor.c:130
    targetSpeed3 =   x + y - z;
    314c:	40ca0a33          	sub	s4,s4,a2
    3150:	0a42                	slli	s4,s4,0x10
    3152:	410a5a13          	srai	s4,s4,0x10
    3156:	87419023          	sh	s4,-1952(gp) # 200000d0 <targetSpeed3>
D:\1.intelligent vehicle\new try\seefree\Seekfree_CH32V103R8T6_Opensource_Library\obj/../CODE/hcar_motor.c:131
    targetSpeed4 =  -x + y + z;
    315a:	95b2                	add	a1,a1,a2
    315c:	01059993          	slli	s3,a1,0x10
    3160:	4109d993          	srai	s3,s3,0x10
    3164:	87319123          	sh	s3,-1950(gp) # 200000d2 <targetSpeed4>
D:\1.intelligent vehicle\new try\seefree\Seekfree_CH32V103R8T6_Opensource_Library\obj/../CODE/hcar_motor.c:135

    // 获取编码器值
    realSpeed1 = host_encoder_left; //左电机 母板上编码器1，小车前进为负值
    realSpeed2 = host_encoder_right; //右电机 母板上编码器2，小车前进为正值
    3168:	85a19503          	lh	a0,-1958(gp) # 200000ca <host_encoder_right>
D:\1.intelligent vehicle\new try\seefree\Seekfree_CH32V103R8T6_Opensource_Library\obj/../CODE/hcar_motor.c:136
    realSpeed3 = slave_encoder_right; //另外一个核心板发数据过来
    316c:	8e21d583          	lhu	a1,-1822(gp) # 20000152 <slave_encoder_right>
D:\1.intelligent vehicle\new try\seefree\Seekfree_CH32V103R8T6_Opensource_Library\obj/../CODE/hcar_motor.c:137
    realSpeed4 = slave_encoder_left; //另外一个核心板发数据过来
    3170:	8e01d603          	lhu	a2,-1824(gp) # 20000150 <slave_encoder_left>
D:\1.intelligent vehicle\new try\seefree\Seekfree_CH32V103R8T6_Opensource_Library\obj/../CODE/hcar_motor.c:139
    //滤波
    speed_1[S_i] = realSpeed1;
    3174:	87218793          	addi	a5,gp,-1934 # 200000e2 <S_i>
    3178:	0007c703          	lbu	a4,0(a5)
    317c:	00171693          	slli	a3,a4,0x1
    3180:	91818713          	addi	a4,gp,-1768 # 20000188 <speed_1>
    3184:	9736                	add	a4,a4,a3
    3186:	8581d683          	lhu	a3,-1960(gp) # 200000c8 <host_encoder_left>
    318a:	00d71023          	sh	a3,0(a4)
D:\1.intelligent vehicle\new try\seefree\Seekfree_CH32V103R8T6_Opensource_Library\obj/../CODE/hcar_motor.c:140
    speed_2[S_i] = realSpeed2;
    318e:	0007c703          	lbu	a4,0(a5)
    3192:	00171693          	slli	a3,a4,0x1
    3196:	92418713          	addi	a4,gp,-1756 # 20000194 <speed_2>
    319a:	9736                	add	a4,a4,a3
    319c:	00a71023          	sh	a0,0(a4)
D:\1.intelligent vehicle\new try\seefree\Seekfree_CH32V103R8T6_Opensource_Library\obj/../CODE/hcar_motor.c:141
    speed_3[S_i] = realSpeed3;
    31a0:	0007c703          	lbu	a4,0(a5)
    31a4:	00171693          	slli	a3,a4,0x1
    31a8:	93018713          	addi	a4,gp,-1744 # 200001a0 <speed_3>
    31ac:	9736                	add	a4,a4,a3
    31ae:	00b71023          	sh	a1,0(a4)
D:\1.intelligent vehicle\new try\seefree\Seekfree_CH32V103R8T6_Opensource_Library\obj/../CODE/hcar_motor.c:142
    speed_4[S_i] = realSpeed4;
    31b2:	0007c783          	lbu	a5,0(a5)
    31b6:	00179713          	slli	a4,a5,0x1
    31ba:	93c18793          	addi	a5,gp,-1732 # 200001ac <speed_4>
    31be:	97ba                	add	a5,a5,a4
    31c0:	00c79023          	sh	a2,0(a5)
D:\1.intelligent vehicle\new try\seefree\Seekfree_CH32V103R8T6_Opensource_Library\obj/../CODE/hcar_motor.c:144
    //队列
    if(S_j<5)
    31c4:	8731c783          	lbu	a5,-1933(gp) # 200000e3 <S_j>
    31c8:	0ff7f793          	andi	a5,a5,255
    31cc:	4711                	li	a4,4
    31ce:	00f76b63          	bltu	a4,a5,31e4 <hcar_speed_control+0xec>
D:\1.intelligent vehicle\new try\seefree\Seekfree_CH32V103R8T6_Opensource_Library\obj/../CODE/hcar_motor.c:146
    {
        S_j++;
    31d2:	87318713          	addi	a4,gp,-1933 # 200000e3 <S_j>
    31d6:	00074783          	lbu	a5,0(a4)
    31da:	0785                	addi	a5,a5,1
    31dc:	0ff7f793          	andi	a5,a5,255
    31e0:	00f70023          	sb	a5,0(a4)
D:\1.intelligent vehicle\new try\seefree\Seekfree_CH32V103R8T6_Opensource_Library\obj/../CODE/hcar_motor.c:148
    }
    S_i++;
    31e4:	87218793          	addi	a5,gp,-1934 # 200000e2 <S_i>
    31e8:	0007c703          	lbu	a4,0(a5)
    31ec:	0705                	addi	a4,a4,1
    31ee:	0ff77713          	andi	a4,a4,255
    31f2:	00e78023          	sb	a4,0(a5)
D:\1.intelligent vehicle\new try\seefree\Seekfree_CH32V103R8T6_Opensource_Library\obj/../CODE/hcar_motor.c:149
    if(S_i > 4)
    31f6:	0007c783          	lbu	a5,0(a5)
    31fa:	0ff7f793          	andi	a5,a5,255
    31fe:	4711                	li	a4,4
    3200:	00f77463          	bgeu	a4,a5,3208 <hcar_speed_control+0x110>
D:\1.intelligent vehicle\new try\seefree\Seekfree_CH32V103R8T6_Opensource_Library\obj/../CODE/hcar_motor.c:151
    {
        S_i = 0;
    3204:	86018923          	sb	zero,-1934(gp) # 200000e2 <S_i>
D:\1.intelligent vehicle\new try\seefree\Seekfree_CH32V103R8T6_Opensource_Library\obj/../CODE/hcar_motor.c:161
    speed_sum3 = 0;
    speed_sum4 = 0;
    //累和
    for(uint8_t j=0;j<5;j++)
    {
        speed_sum1 += speed_1[j];
    3208:	91818713          	addi	a4,gp,-1768 # 20000188 <speed_1>
    320c:	00275783          	lhu	a5,2(a4)
    3210:	00075683          	lhu	a3,0(a4)
    3214:	97b6                	add	a5,a5,a3
    3216:	00475683          	lhu	a3,4(a4)
    321a:	97b6                	add	a5,a5,a3
    321c:	00675503          	lhu	a0,6(a4)
    3220:	97aa                	add	a5,a5,a0
    3222:	00875503          	lhu	a0,8(a4)
    3226:	97aa                	add	a5,a5,a0
    3228:	07c2                	slli	a5,a5,0x10
    322a:	87c1                	srai	a5,a5,0x10
    322c:	8cf19c23          	sh	a5,-1832(gp) # 20000148 <speed_sum1>
D:\1.intelligent vehicle\new try\seefree\Seekfree_CH32V103R8T6_Opensource_Library\obj/../CODE/hcar_motor.c:165
    }
    for(uint8_t j=0;j<5;j++)
    {
        speed_sum2 += speed_2[j];
    3230:	92418713          	addi	a4,gp,-1756 # 20000194 <speed_2>
    3234:	00275903          	lhu	s2,2(a4)
    3238:	00075683          	lhu	a3,0(a4)
    323c:	9936                	add	s2,s2,a3
    323e:	00475683          	lhu	a3,4(a4)
    3242:	9936                	add	s2,s2,a3
    3244:	00675683          	lhu	a3,6(a4)
    3248:	9936                	add	s2,s2,a3
    324a:	00875703          	lhu	a4,8(a4)
    324e:	993a                	add	s2,s2,a4
    3250:	0942                	slli	s2,s2,0x10
    3252:	41095913          	srai	s2,s2,0x10
    3256:	8d219d23          	sh	s2,-1830(gp) # 2000014a <speed_sum2>
D:\1.intelligent vehicle\new try\seefree\Seekfree_CH32V103R8T6_Opensource_Library\obj/../CODE/hcar_motor.c:169
    }
    for(uint8_t j=0;j<5;j++)
    {
        speed_sum3 += speed_3[j];
    325a:	93018713          	addi	a4,gp,-1744 # 200001a0 <speed_3>
    325e:	00275483          	lhu	s1,2(a4)
    3262:	00075683          	lhu	a3,0(a4)
    3266:	94b6                	add	s1,s1,a3
    3268:	00475683          	lhu	a3,4(a4)
    326c:	94b6                	add	s1,s1,a3
    326e:	00675683          	lhu	a3,6(a4)
    3272:	94b6                	add	s1,s1,a3
    3274:	00875703          	lhu	a4,8(a4)
    3278:	94ba                	add	s1,s1,a4
    327a:	04c2                	slli	s1,s1,0x10
    327c:	84c1                	srai	s1,s1,0x10
    327e:	8c919e23          	sh	s1,-1828(gp) # 2000014c <speed_sum3>
D:\1.intelligent vehicle\new try\seefree\Seekfree_CH32V103R8T6_Opensource_Library\obj/../CODE/hcar_motor.c:173
    }
    for(uint8_t j=0;j<5;j++)
    {
        speed_sum4 += speed_4[j];
    3282:	93c18713          	addi	a4,gp,-1732 # 200001ac <speed_4>
    3286:	00275403          	lhu	s0,2(a4)
    328a:	00075683          	lhu	a3,0(a4)
    328e:	9436                	add	s0,s0,a3
    3290:	00475683          	lhu	a3,4(a4)
    3294:	9436                	add	s0,s0,a3
    3296:	00675683          	lhu	a3,6(a4)
    329a:	9436                	add	s0,s0,a3
    329c:	00875703          	lhu	a4,8(a4)
    32a0:	943a                	add	s0,s0,a4
    32a2:	0442                	slli	s0,s0,0x10
    32a4:	8441                	srai	s0,s0,0x10
    32a6:	8c819f23          	sh	s0,-1826(gp) # 2000014e <speed_sum4>
D:\1.intelligent vehicle\new try\seefree\Seekfree_CH32V103R8T6_Opensource_Library\obj/../CODE/hcar_motor.c:176
    }
    //平均
    speed_now_filter1 = speed_sum1/S_j;
    32aa:	87318b93          	addi	s7,gp,-1933 # 200000e3 <S_j>
    32ae:	000bc503          	lbu	a0,0(s7)
    32b2:	0ff57513          	andi	a0,a0,255
    32b6:	02a7c533          	div	a0,a5,a0
    32ba:	79f000ef          	jal	ra,4258 <__floatsisf>
    32be:	8d2a                	mv	s10,a0
    32c0:	8aa1ac23          	sw	a0,-1864(gp) # 20000128 <speed_now_filter1>
D:\1.intelligent vehicle\new try\seefree\Seekfree_CH32V103R8T6_Opensource_Library\obj/../CODE/hcar_motor.c:177
    speed_now_filter2 = speed_sum2/S_j;
    32c4:	000bc503          	lbu	a0,0(s7)
    32c8:	0ff57513          	andi	a0,a0,255
    32cc:	02a94533          	div	a0,s2,a0
    32d0:	789000ef          	jal	ra,4258 <__floatsisf>
    32d4:	8caa                	mv	s9,a0
    32d6:	8aa1ae23          	sw	a0,-1860(gp) # 2000012c <speed_now_filter2>
D:\1.intelligent vehicle\new try\seefree\Seekfree_CH32V103R8T6_Opensource_Library\obj/../CODE/hcar_motor.c:178
    speed_now_filter3 = speed_sum3/S_j;
    32da:	000bc503          	lbu	a0,0(s7)
    32de:	0ff57513          	andi	a0,a0,255
    32e2:	02a4c533          	div	a0,s1,a0
    32e6:	773000ef          	jal	ra,4258 <__floatsisf>
    32ea:	892a                	mv	s2,a0
    32ec:	8ca1a023          	sw	a0,-1856(gp) # 20000130 <speed_now_filter3>
D:\1.intelligent vehicle\new try\seefree\Seekfree_CH32V103R8T6_Opensource_Library\obj/../CODE/hcar_motor.c:179
    speed_now_filter4 = speed_sum4/S_j;
    32f0:	000bc503          	lbu	a0,0(s7)
    32f4:	0ff57513          	andi	a0,a0,255
    32f8:	02a44533          	div	a0,s0,a0
    32fc:	75d000ef          	jal	ra,4258 <__floatsisf>
    3300:	8c2a                	mv	s8,a0
    3302:	8ca1a223          	sw	a0,-1852(gp) # 20000134 <speed_now_filter4>
D:\1.intelligent vehicle\new try\seefree\Seekfree_CH32V103R8T6_Opensource_Library\obj/../CODE/hcar_motor.c:185
    // PID处理
//    hcar_PidIncCtrl(&pid1, targetSpeed1 - speed_now_filter1);
//    hcar_PidIncCtrl(&pid2, targetSpeed2 - speed_now_filter2);
//    hcar_PidIncCtrl(&pid3, targetSpeed3 - speed_now_filter3);
//    hcar_PidIncCtrl(&pid4, targetSpeed4 - speed_now_filter4);
    speed_error1 = (float)(targetSpeed1 - speed_now_filter1);
    3306:	855a                	mv	a0,s6
    3308:	751000ef          	jal	ra,4258 <__floatsisf>
    330c:	85ea                	mv	a1,s10
    330e:	361000ef          	jal	ra,3e6e <__subsf3>
    3312:	84aa                	mv	s1,a0
    3314:	88a1a423          	sw	a0,-1912(gp) # 200000f8 <speed_error1>
D:\1.intelligent vehicle\new try\seefree\Seekfree_CH32V103R8T6_Opensource_Library\obj/../CODE/hcar_motor.c:186
    speed_out1 += kp1 * (speed_error1 - speed_error_last1) + ki1 * speed_error1 +
    3318:	89818413          	addi	s0,gp,-1896 # 20000108 <speed_error_last1>
    331c:	00042d03          	lw	s10,0(s0)
    3320:	85ea                	mv	a1,s10
    3322:	34d000ef          	jal	ra,3e6e <__subsf3>
    3326:	8181a583          	lw	a1,-2024(gp) # 20000088 <kp1>
    332a:	0b5000ef          	jal	ra,3bde <__mulsf3>
    332e:	8b2a                	mv	s6,a0
    3330:	8841a583          	lw	a1,-1916(gp) # 200000f4 <ki1>
    3334:	8526                	mv	a0,s1
    3336:	0a9000ef          	jal	ra,3bde <__mulsf3>
    333a:	85aa                	mv	a1,a0
    333c:	855a                	mv	a0,s6
    333e:	2115                	jal	3762 <__addsf3>
    3340:	8b2a                	mv	s6,a0
D:\1.intelligent vehicle\new try\seefree\Seekfree_CH32V103R8T6_Opensource_Library\obj/../CODE/hcar_motor.c:187
                kd1*(speed_error1 - 2*speed_error_last1 + speed_error_last_last1);
    3342:	85ea                	mv	a1,s10
    3344:	856a                	mv	a0,s10
    3346:	2931                	jal	3762 <__addsf3>
    3348:	85aa                	mv	a1,a0
    334a:	8526                	mv	a0,s1
    334c:	323000ef          	jal	ra,3e6e <__subsf3>
    3350:	8a818b93          	addi	s7,gp,-1880 # 20000118 <speed_error_last_last1>
    3354:	000ba583          	lw	a1,0(s7)
    3358:	2129                	jal	3762 <__addsf3>
    335a:	8741a583          	lw	a1,-1932(gp) # 200000e4 <kd1>
    335e:	081000ef          	jal	ra,3bde <__mulsf3>
D:\1.intelligent vehicle\new try\seefree\Seekfree_CH32V103R8T6_Opensource_Library\obj/../CODE/hcar_motor.c:186
    speed_out1 += kp1 * (speed_error1 - speed_error_last1) + ki1 * speed_error1 +
    3362:	85aa                	mv	a1,a0
    3364:	855a                	mv	a0,s6
    3366:	2ef5                	jal	3762 <__addsf3>
    3368:	8c818d93          	addi	s11,gp,-1848 # 20000138 <speed_out1>
    336c:	000da583          	lw	a1,0(s11)
    3370:	2ecd                	jal	3762 <__addsf3>
    3372:	8b2a                	mv	s6,a0
    3374:	00ada023          	sw	a0,0(s11)
D:\1.intelligent vehicle\new try\seefree\Seekfree_CH32V103R8T6_Opensource_Library\obj/../CODE/hcar_motor.c:189

    speed_error_last_last1 = speed_error_last1;
    3378:	01aba023          	sw	s10,0(s7)
D:\1.intelligent vehicle\new try\seefree\Seekfree_CH32V103R8T6_Opensource_Library\obj/../CODE/hcar_motor.c:190
    speed_error_last1 = speed_error1;
    337c:	c004                	sw	s1,0(s0)
D:\1.intelligent vehicle\new try\seefree\Seekfree_CH32V103R8T6_Opensource_Library\obj/../CODE/hcar_motor.c:192

    speed_error2 = (float)(targetSpeed2 - speed_now_filter2);
    337e:	8556                	mv	a0,s5
    3380:	6d9000ef          	jal	ra,4258 <__floatsisf>
    3384:	85e6                	mv	a1,s9
    3386:	2e9000ef          	jal	ra,3e6e <__subsf3>
    338a:	84aa                	mv	s1,a0
    338c:	88a1a623          	sw	a0,-1908(gp) # 200000fc <speed_error2>
D:\1.intelligent vehicle\new try\seefree\Seekfree_CH32V103R8T6_Opensource_Library\obj/../CODE/hcar_motor.c:193
    speed_out2 += kp2 * (speed_error2 - speed_error_last2) + ki2 * speed_error2 +
    3390:	89c18413          	addi	s0,gp,-1892 # 2000010c <speed_error_last2>
    3394:	00042c83          	lw	s9,0(s0)
    3398:	85e6                	mv	a1,s9
    339a:	2d5000ef          	jal	ra,3e6e <__subsf3>
    339e:	81c1a583          	lw	a1,-2020(gp) # 2000008c <kp2>
    33a2:	03d000ef          	jal	ra,3bde <__mulsf3>
    33a6:	8aaa                	mv	s5,a0
    33a8:	80c1a583          	lw	a1,-2036(gp) # 2000007c <ki2>
    33ac:	8526                	mv	a0,s1
    33ae:	031000ef          	jal	ra,3bde <__mulsf3>
    33b2:	85aa                	mv	a1,a0
    33b4:	8556                	mv	a0,s5
    33b6:	2675                	jal	3762 <__addsf3>
    33b8:	8aaa                	mv	s5,a0
D:\1.intelligent vehicle\new try\seefree\Seekfree_CH32V103R8T6_Opensource_Library\obj/../CODE/hcar_motor.c:194
                kd2*(speed_error2 - 2*speed_error_last2 + speed_error_last_last2);
    33ba:	85e6                	mv	a1,s9
    33bc:	8566                	mv	a0,s9
    33be:	2655                	jal	3762 <__addsf3>
    33c0:	85aa                	mv	a1,a0
    33c2:	8526                	mv	a0,s1
    33c4:	2ab000ef          	jal	ra,3e6e <__subsf3>
    33c8:	8ac18b93          	addi	s7,gp,-1876 # 2000011c <speed_error_last_last2>
    33cc:	000ba583          	lw	a1,0(s7)
    33d0:	2e49                	jal	3762 <__addsf3>
    33d2:	8781a583          	lw	a1,-1928(gp) # 200000e8 <kd2>
    33d6:	009000ef          	jal	ra,3bde <__mulsf3>
D:\1.intelligent vehicle\new try\seefree\Seekfree_CH32V103R8T6_Opensource_Library\obj/../CODE/hcar_motor.c:193
    speed_out2 += kp2 * (speed_error2 - speed_error_last2) + ki2 * speed_error2 +
    33da:	85aa                	mv	a1,a0
    33dc:	8556                	mv	a0,s5
    33de:	2651                	jal	3762 <__addsf3>
    33e0:	8cc18d13          	addi	s10,gp,-1844 # 2000013c <speed_out2>
    33e4:	000d2583          	lw	a1,0(s10)
    33e8:	2ead                	jal	3762 <__addsf3>
    33ea:	8aaa                	mv	s5,a0
    33ec:	00ad2023          	sw	a0,0(s10)
D:\1.intelligent vehicle\new try\seefree\Seekfree_CH32V103R8T6_Opensource_Library\obj/../CODE/hcar_motor.c:196

    speed_error_last_last2 = speed_error_last2;
    33f0:	019ba023          	sw	s9,0(s7)
D:\1.intelligent vehicle\new try\seefree\Seekfree_CH32V103R8T6_Opensource_Library\obj/../CODE/hcar_motor.c:197
    speed_error_last2 = speed_error2;
    33f4:	c004                	sw	s1,0(s0)
D:\1.intelligent vehicle\new try\seefree\Seekfree_CH32V103R8T6_Opensource_Library\obj/../CODE/hcar_motor.c:199

    speed_error3 = (float)(targetSpeed3 - speed_now_filter3);
    33f6:	8552                	mv	a0,s4
    33f8:	661000ef          	jal	ra,4258 <__floatsisf>
    33fc:	85ca                	mv	a1,s2
    33fe:	271000ef          	jal	ra,3e6e <__subsf3>
    3402:	84aa                	mv	s1,a0
    3404:	88a1a823          	sw	a0,-1904(gp) # 20000100 <speed_error3>
D:\1.intelligent vehicle\new try\seefree\Seekfree_CH32V103R8T6_Opensource_Library\obj/../CODE/hcar_motor.c:200
    speed_out3 += kp3 * (speed_error3 - speed_error_last3) + ki3 * speed_error3 +
    3408:	8a018413          	addi	s0,gp,-1888 # 20000110 <speed_error_last3>
    340c:	00042a03          	lw	s4,0(s0)
    3410:	85d2                	mv	a1,s4
    3412:	25d000ef          	jal	ra,3e6e <__subsf3>
    3416:	8201a583          	lw	a1,-2016(gp) # 20000090 <kp3>
    341a:	7c4000ef          	jal	ra,3bde <__mulsf3>
    341e:	892a                	mv	s2,a0
    3420:	8101a583          	lw	a1,-2032(gp) # 20000080 <ki3>
    3424:	8526                	mv	a0,s1
    3426:	7b8000ef          	jal	ra,3bde <__mulsf3>
    342a:	85aa                	mv	a1,a0
    342c:	854a                	mv	a0,s2
    342e:	2e15                	jal	3762 <__addsf3>
    3430:	8baa                	mv	s7,a0
D:\1.intelligent vehicle\new try\seefree\Seekfree_CH32V103R8T6_Opensource_Library\obj/../CODE/hcar_motor.c:201
                kd3*(speed_error3 - 2*speed_error_last3 + speed_error_last_last3);
    3432:	85d2                	mv	a1,s4
    3434:	8552                	mv	a0,s4
    3436:	2635                	jal	3762 <__addsf3>
    3438:	85aa                	mv	a1,a0
    343a:	8526                	mv	a0,s1
    343c:	233000ef          	jal	ra,3e6e <__subsf3>
    3440:	8b018913          	addi	s2,gp,-1872 # 20000120 <speed_error_last_last3>
    3444:	00092583          	lw	a1,0(s2)
    3448:	2e29                	jal	3762 <__addsf3>
    344a:	87c1a583          	lw	a1,-1924(gp) # 200000ec <kd3>
    344e:	790000ef          	jal	ra,3bde <__mulsf3>
D:\1.intelligent vehicle\new try\seefree\Seekfree_CH32V103R8T6_Opensource_Library\obj/../CODE/hcar_motor.c:200
    speed_out3 += kp3 * (speed_error3 - speed_error_last3) + ki3 * speed_error3 +
    3452:	85aa                	mv	a1,a0
    3454:	855e                	mv	a0,s7
    3456:	2631                	jal	3762 <__addsf3>
    3458:	8d018c93          	addi	s9,gp,-1840 # 20000140 <speed_out3>
    345c:	000ca583          	lw	a1,0(s9)
    3460:	2609                	jal	3762 <__addsf3>
    3462:	8baa                	mv	s7,a0
    3464:	00aca023          	sw	a0,0(s9)
D:\1.intelligent vehicle\new try\seefree\Seekfree_CH32V103R8T6_Opensource_Library\obj/../CODE/hcar_motor.c:203

    speed_error_last_last3 = speed_error_last3;
    3468:	01492023          	sw	s4,0(s2)
D:\1.intelligent vehicle\new try\seefree\Seekfree_CH32V103R8T6_Opensource_Library\obj/../CODE/hcar_motor.c:204
    speed_error_last3 = speed_error3;
    346c:	c004                	sw	s1,0(s0)
D:\1.intelligent vehicle\new try\seefree\Seekfree_CH32V103R8T6_Opensource_Library\obj/../CODE/hcar_motor.c:206

    speed_error4 = (float)(targetSpeed4 - speed_now_filter4);
    346e:	854e                	mv	a0,s3
    3470:	5e9000ef          	jal	ra,4258 <__floatsisf>
    3474:	85e2                	mv	a1,s8
    3476:	1f9000ef          	jal	ra,3e6e <__subsf3>
    347a:	84aa                	mv	s1,a0
    347c:	88a1aa23          	sw	a0,-1900(gp) # 20000104 <speed_error4>
D:\1.intelligent vehicle\new try\seefree\Seekfree_CH32V103R8T6_Opensource_Library\obj/../CODE/hcar_motor.c:207
    speed_out4 += kp4 * (speed_error4 - speed_error_last4) + ki4 * speed_error4 +
    3480:	8a418413          	addi	s0,gp,-1884 # 20000114 <speed_error_last4>
    3484:	00042983          	lw	s3,0(s0)
    3488:	85ce                	mv	a1,s3
    348a:	1e5000ef          	jal	ra,3e6e <__subsf3>
    348e:	8241a583          	lw	a1,-2012(gp) # 20000094 <kp4>
    3492:	74c000ef          	jal	ra,3bde <__mulsf3>
    3496:	892a                	mv	s2,a0
    3498:	8141a583          	lw	a1,-2028(gp) # 20000084 <ki4>
    349c:	8526                	mv	a0,s1
    349e:	740000ef          	jal	ra,3bde <__mulsf3>
    34a2:	85aa                	mv	a1,a0
    34a4:	854a                	mv	a0,s2
    34a6:	2c75                	jal	3762 <__addsf3>
    34a8:	8a2a                	mv	s4,a0
D:\1.intelligent vehicle\new try\seefree\Seekfree_CH32V103R8T6_Opensource_Library\obj/../CODE/hcar_motor.c:208
                kd4*(speed_error4 - 2*speed_error_last4 + speed_error_last_last4);
    34aa:	85ce                	mv	a1,s3
    34ac:	854e                	mv	a0,s3
    34ae:	2c55                	jal	3762 <__addsf3>
    34b0:	85aa                	mv	a1,a0
    34b2:	8526                	mv	a0,s1
    34b4:	1bb000ef          	jal	ra,3e6e <__subsf3>
    34b8:	8b418913          	addi	s2,gp,-1868 # 20000124 <speed_error_last_last4>
    34bc:	00092583          	lw	a1,0(s2)
    34c0:	244d                	jal	3762 <__addsf3>
    34c2:	8801a583          	lw	a1,-1920(gp) # 200000f0 <kd4>
    34c6:	718000ef          	jal	ra,3bde <__mulsf3>
D:\1.intelligent vehicle\new try\seefree\Seekfree_CH32V103R8T6_Opensource_Library\obj/../CODE/hcar_motor.c:207
    speed_out4 += kp4 * (speed_error4 - speed_error_last4) + ki4 * speed_error4 +
    34ca:	85aa                	mv	a1,a0
    34cc:	8552                	mv	a0,s4
    34ce:	2c51                	jal	3762 <__addsf3>
    34d0:	8d418a13          	addi	s4,gp,-1836 # 20000144 <speed_out4>
    34d4:	000a2583          	lw	a1,0(s4)
    34d8:	2469                	jal	3762 <__addsf3>
    34da:	8c2a                	mv	s8,a0
    34dc:	00aa2023          	sw	a0,0(s4)
D:\1.intelligent vehicle\new try\seefree\Seekfree_CH32V103R8T6_Opensource_Library\obj/../CODE/hcar_motor.c:210

    speed_error_last_last4 = speed_error_last4;
    34e0:	01392023          	sw	s3,0(s2)
D:\1.intelligent vehicle\new try\seefree\Seekfree_CH32V103R8T6_Opensource_Library\obj/../CODE/hcar_motor.c:211
    speed_error_last4 = speed_error4;
    34e4:	c004                	sw	s1,0(s0)
D:\1.intelligent vehicle\new try\seefree\Seekfree_CH32V103R8T6_Opensource_Library\obj/../CODE/hcar_motor.c:213

    if(speed_out1>9000)
    34e6:	000067b7          	lui	a5,0x6
    34ea:	ccc7a583          	lw	a1,-820(a5) # 5ccc <UARTN+0x18>
    34ee:	855a                	mv	a0,s6
    34f0:	5dc000ef          	jal	ra,3acc <__gesf2>
    34f4:	0ca05563          	blez	a0,35be <hcar_speed_control+0x4c6>
D:\1.intelligent vehicle\new try\seefree\Seekfree_CH32V103R8T6_Opensource_Library\obj/../CODE/hcar_motor.c:215
    {
        speed_out1=9000;
    34f8:	00006737          	lui	a4,0x6
    34fc:	ccc72703          	lw	a4,-820(a4) # 5ccc <UARTN+0x18>
    3500:	8ce1a423          	sw	a4,-1848(gp) # 20000138 <speed_out1>
D:\1.intelligent vehicle\new try\seefree\Seekfree_CH32V103R8T6_Opensource_Library\obj/../CODE/hcar_motor.c:221
    }
    else if(speed_out1<-9000)
    {
        speed_out1=-9000;
    }
    if(speed_out2>9000)
    3504:	000067b7          	lui	a5,0x6
    3508:	ccc7a583          	lw	a1,-820(a5) # 5ccc <UARTN+0x18>
    350c:	8556                	mv	a0,s5
    350e:	5be000ef          	jal	ra,3acc <__gesf2>
    3512:	0ca05663          	blez	a0,35de <hcar_speed_control+0x4e6>
D:\1.intelligent vehicle\new try\seefree\Seekfree_CH32V103R8T6_Opensource_Library\obj/../CODE/hcar_motor.c:223
    {
        speed_out2=9000;
    3516:	00006737          	lui	a4,0x6
    351a:	ccc72703          	lw	a4,-820(a4) # 5ccc <UARTN+0x18>
    351e:	8ce1a623          	sw	a4,-1844(gp) # 2000013c <speed_out2>
D:\1.intelligent vehicle\new try\seefree\Seekfree_CH32V103R8T6_Opensource_Library\obj/../CODE/hcar_motor.c:229
    }
    else if(speed_out2<-9000)
    {
        speed_out2=-9000;
    }
    if(speed_out3>9000)
    3522:	000067b7          	lui	a5,0x6
    3526:	ccc7a583          	lw	a1,-820(a5) # 5ccc <UARTN+0x18>
    352a:	855e                	mv	a0,s7
    352c:	5a0000ef          	jal	ra,3acc <__gesf2>
    3530:	0ca05763          	blez	a0,35fe <hcar_speed_control+0x506>
D:\1.intelligent vehicle\new try\seefree\Seekfree_CH32V103R8T6_Opensource_Library\obj/../CODE/hcar_motor.c:231
    {
        speed_out3=9000;
    3534:	00006737          	lui	a4,0x6
    3538:	ccc72703          	lw	a4,-820(a4) # 5ccc <UARTN+0x18>
    353c:	8ce1a823          	sw	a4,-1840(gp) # 20000140 <speed_out3>
D:\1.intelligent vehicle\new try\seefree\Seekfree_CH32V103R8T6_Opensource_Library\obj/../CODE/hcar_motor.c:237
    }
    else if(speed_out3<-9000)
    {
        speed_out3=-9000;
    }
    if(speed_out4>9000)
    3540:	000067b7          	lui	a5,0x6
    3544:	ccc7a583          	lw	a1,-820(a5) # 5ccc <UARTN+0x18>
    3548:	8562                	mv	a0,s8
    354a:	582000ef          	jal	ra,3acc <__gesf2>
    354e:	0ca05763          	blez	a0,361c <hcar_speed_control+0x524>
D:\1.intelligent vehicle\new try\seefree\Seekfree_CH32V103R8T6_Opensource_Library\obj/../CODE/hcar_motor.c:239
    {
        speed_out4=9000;
    3552:	00006737          	lui	a4,0x6
    3556:	ccc72703          	lw	a4,-820(a4) # 5ccc <UARTN+0x18>
    355a:	8ce1aa23          	sw	a4,-1836(gp) # 20000144 <speed_out4>
D:\1.intelligent vehicle\new try\seefree\Seekfree_CH32V103R8T6_Opensource_Library\obj/../CODE/hcar_motor.c:246
    else if(speed_out4<-9000)
    {
        speed_out4=-9000;
    }

    hcar_motor_control(speed_out1, speed_out2, speed_out3, speed_out4);
    355e:	8d41a503          	lw	a0,-1836(gp) # 20000144 <speed_out4>
    3562:	495000ef          	jal	ra,41f6 <__fixsfsi>
    3566:	01051913          	slli	s2,a0,0x10
    356a:	41095913          	srai	s2,s2,0x10
    356e:	8d01a503          	lw	a0,-1840(gp) # 20000140 <speed_out3>
    3572:	485000ef          	jal	ra,41f6 <__fixsfsi>
    3576:	01051493          	slli	s1,a0,0x10
    357a:	84c1                	srai	s1,s1,0x10
    357c:	8cc1a503          	lw	a0,-1844(gp) # 2000013c <speed_out2>
    3580:	477000ef          	jal	ra,41f6 <__fixsfsi>
    3584:	01051413          	slli	s0,a0,0x10
    3588:	8441                	srai	s0,s0,0x10
    358a:	8c81a503          	lw	a0,-1848(gp) # 20000138 <speed_out1>
    358e:	469000ef          	jal	ra,41f6 <__fixsfsi>
    3592:	86ca                	mv	a3,s2
    3594:	8626                	mv	a2,s1
    3596:	85a2                	mv	a1,s0
    3598:	0542                	slli	a0,a0,0x10
    359a:	8541                	srai	a0,a0,0x10
    359c:	a5fff0ef          	jal	ra,2ffa <hcar_motor_control>
D:\1.intelligent vehicle\new try\seefree\Seekfree_CH32V103R8T6_Opensource_Library\obj/../CODE/hcar_motor.c:249


}
    35a0:	50f2                	lw	ra,60(sp)
    35a2:	5462                	lw	s0,56(sp)
    35a4:	54d2                	lw	s1,52(sp)
    35a6:	5942                	lw	s2,48(sp)
    35a8:	59b2                	lw	s3,44(sp)
    35aa:	5a22                	lw	s4,40(sp)
    35ac:	5a92                	lw	s5,36(sp)
    35ae:	5b02                	lw	s6,32(sp)
    35b0:	4bf2                	lw	s7,28(sp)
    35b2:	4c62                	lw	s8,24(sp)
    35b4:	4cd2                	lw	s9,20(sp)
    35b6:	4d42                	lw	s10,16(sp)
    35b8:	4db2                	lw	s11,12(sp)
    35ba:	6121                	addi	sp,sp,64
    35bc:	8082                	ret
D:\1.intelligent vehicle\new try\seefree\Seekfree_CH32V103R8T6_Opensource_Library\obj/../CODE/hcar_motor.c:217
    else if(speed_out1<-9000)
    35be:	000067b7          	lui	a5,0x6
    35c2:	cd07a583          	lw	a1,-816(a5) # 5cd0 <UARTN+0x1c>
    35c6:	855a                	mv	a0,s6
    35c8:	58a000ef          	jal	ra,3b52 <__lesf2>
    35cc:	f2055ce3          	bgez	a0,3504 <hcar_speed_control+0x40c>
D:\1.intelligent vehicle\new try\seefree\Seekfree_CH32V103R8T6_Opensource_Library\obj/../CODE/hcar_motor.c:219
        speed_out1=-9000;
    35d0:	00006737          	lui	a4,0x6
    35d4:	cd072703          	lw	a4,-816(a4) # 5cd0 <UARTN+0x1c>
    35d8:	8ce1a423          	sw	a4,-1848(gp) # 20000138 <speed_out1>
    35dc:	b725                	j	3504 <hcar_speed_control+0x40c>
D:\1.intelligent vehicle\new try\seefree\Seekfree_CH32V103R8T6_Opensource_Library\obj/../CODE/hcar_motor.c:225
    else if(speed_out2<-9000)
    35de:	000067b7          	lui	a5,0x6
    35e2:	cd07a583          	lw	a1,-816(a5) # 5cd0 <UARTN+0x1c>
    35e6:	8556                	mv	a0,s5
    35e8:	56a000ef          	jal	ra,3b52 <__lesf2>
    35ec:	f2055be3          	bgez	a0,3522 <hcar_speed_control+0x42a>
D:\1.intelligent vehicle\new try\seefree\Seekfree_CH32V103R8T6_Opensource_Library\obj/../CODE/hcar_motor.c:227
        speed_out2=-9000;
    35f0:	00006737          	lui	a4,0x6
    35f4:	cd072703          	lw	a4,-816(a4) # 5cd0 <UARTN+0x1c>
    35f8:	8ce1a623          	sw	a4,-1844(gp) # 2000013c <speed_out2>
    35fc:	b71d                	j	3522 <hcar_speed_control+0x42a>
D:\1.intelligent vehicle\new try\seefree\Seekfree_CH32V103R8T6_Opensource_Library\obj/../CODE/hcar_motor.c:233
    else if(speed_out3<-9000)
    35fe:	000067b7          	lui	a5,0x6
    3602:	cd07a583          	lw	a1,-816(a5) # 5cd0 <UARTN+0x1c>
    3606:	855e                	mv	a0,s7
    3608:	23a9                	jal	3b52 <__lesf2>
    360a:	f2055be3          	bgez	a0,3540 <hcar_speed_control+0x448>
D:\1.intelligent vehicle\new try\seefree\Seekfree_CH32V103R8T6_Opensource_Library\obj/../CODE/hcar_motor.c:235
        speed_out3=-9000;
    360e:	00006737          	lui	a4,0x6
    3612:	cd072703          	lw	a4,-816(a4) # 5cd0 <UARTN+0x1c>
    3616:	8ce1a823          	sw	a4,-1840(gp) # 20000140 <speed_out3>
    361a:	b71d                	j	3540 <hcar_speed_control+0x448>
D:\1.intelligent vehicle\new try\seefree\Seekfree_CH32V103R8T6_Opensource_Library\obj/../CODE/hcar_motor.c:241
    else if(speed_out4<-9000)
    361c:	000067b7          	lui	a5,0x6
    3620:	cd07a583          	lw	a1,-816(a5) # 5cd0 <UARTN+0x1c>
    3624:	8562                	mv	a0,s8
    3626:	2335                	jal	3b52 <__lesf2>
    3628:	f2055be3          	bgez	a0,355e <hcar_speed_control+0x466>
D:\1.intelligent vehicle\new try\seefree\Seekfree_CH32V103R8T6_Opensource_Library\obj/../CODE/hcar_motor.c:243
        speed_out4=-9000;
    362c:	00006737          	lui	a4,0x6
    3630:	cd072703          	lw	a4,-816(a4) # 5cd0 <UARTN+0x1c>
    3634:	8ce1aa23          	sw	a4,-1836(gp) # 20000144 <speed_out4>
    3638:	b71d                	j	355e <hcar_speed_control+0x466>

0000363a <get_slave_data>:
get_slave_data():
D:\1.intelligent vehicle\new try\seefree\Seekfree_CH32V103R8T6_Opensource_Library\obj/../CODE/hcar_uart.c:34
//  Sample usage:
//-------------------------------------------------------------------------------------------------------------------
void get_slave_data(uint8 data)
{
    static uint8 uart_num = 0;
    temp_buff[uart_num++] = data;
    363a:	8e718693          	addi	a3,gp,-1817 # 20000157 <uart_num.6060>
    363e:	0006c603          	lbu	a2,0(a3) # 40021000 <_eusrstack+0x2001c000>
    3642:	00160713          	addi	a4,a2,1 # 40021001 <_eusrstack+0x2001c001>
    3646:	0ff77713          	andi	a4,a4,255
    364a:	00e68023          	sb	a4,0(a3)
    364e:	94818793          	addi	a5,gp,-1720 # 200001b8 <temp_buff>
    3652:	97b2                	add	a5,a5,a2
    3654:	00a78023          	sb	a0,0(a5)
D:\1.intelligent vehicle\new try\seefree\Seekfree_CH32V103R8T6_Opensource_Library\obj/../CODE/hcar_uart.c:36

    if(1 == uart_num)
    3658:	4785                	li	a5,1
    365a:	02f70463          	beq	a4,a5,3682 <get_slave_data+0x48>
D:\1.intelligent vehicle\new try\seefree\Seekfree_CH32V103R8T6_Opensource_Library\obj/../CODE/hcar_uart.c:46
            uart_num = 0;
            uart_flag = E_FRAME_HEADER_ERROR;
        }
    }

    if(LINE_LEN == uart_num)
    365e:	47ad                	li	a5,11
    3660:	02f71063          	bne	a4,a5,3680 <get_slave_data+0x46>
D:\1.intelligent vehicle\new try\seefree\Seekfree_CH32V103R8T6_Opensource_Library\obj/../CODE/hcar_uart.c:48
    {
        uart_flag = E_OK;
    3664:	4705                	li	a4,1
    3666:	8ee18323          	sb	a4,-1818(gp) # 20000156 <uart_flag>
D:\1.intelligent vehicle\new try\seefree\Seekfree_CH32V103R8T6_Opensource_Library\obj/../CODE/hcar_uart.c:50
        //接收到最后一个字节为0xEE
        if(0xEE == temp_buff[LINE_LEN - 1])
    366a:	9521c703          	lbu	a4,-1710(gp) # 200001c2 <temp_buff+0xa>
    366e:	0ee00793          	li	a5,238
    3672:	02f70463          	beq	a4,a5,369a <get_slave_data+0x60>
D:\1.intelligent vehicle\new try\seefree\Seekfree_CH32V103R8T6_Opensource_Library\obj/../CODE/hcar_uart.c:56
        {
            uart_flag = E_OK;
        }
        else    //接收到最后一个字节不是0xEE，帧尾错误
        {
            uart_flag = E_FRAME_RTAIL_ERROR;
    3676:	470d                	li	a4,3
    3678:	8ee18323          	sb	a4,-1818(gp) # 20000156 <uart_flag>
D:\1.intelligent vehicle\new try\seefree\Seekfree_CH32V103R8T6_Opensource_Library\obj/../CODE/hcar_uart.c:58
        }
        uart_num = 0;
    367c:	8e0183a3          	sb	zero,-1817(gp) # 20000157 <uart_num.6060>
D:\1.intelligent vehicle\new try\seefree\Seekfree_CH32V103R8T6_Opensource_Library\obj/../CODE/hcar_uart.c:61
    }
    //lcd_showint16(0, 4, slave_encoder_left);
}
    3680:	8082                	ret
D:\1.intelligent vehicle\new try\seefree\Seekfree_CH32V103R8T6_Opensource_Library\obj/../CODE/hcar_uart.c:39
        if(0xD8 != temp_buff[0])
    3682:	9481c703          	lbu	a4,-1720(gp) # 200001b8 <temp_buff>
    3686:	0d800793          	li	a5,216
    368a:	fef70be3          	beq	a4,a5,3680 <get_slave_data+0x46>
D:\1.intelligent vehicle\new try\seefree\Seekfree_CH32V103R8T6_Opensource_Library\obj/../CODE/hcar_uart.c:41
            uart_num = 0;
    368e:	8e0183a3          	sb	zero,-1817(gp) # 20000157 <uart_num.6060>
D:\1.intelligent vehicle\new try\seefree\Seekfree_CH32V103R8T6_Opensource_Library\obj/../CODE/hcar_uart.c:42
            uart_flag = E_FRAME_HEADER_ERROR;
    3692:	4709                	li	a4,2
    3694:	8ee18323          	sb	a4,-1818(gp) # 20000156 <uart_flag>
    3698:	8082                	ret
D:\1.intelligent vehicle\new try\seefree\Seekfree_CH32V103R8T6_Opensource_Library\obj/../CODE/hcar_uart.c:52
            uart_flag = E_OK;
    369a:	4705                	li	a4,1
    369c:	8ee18323          	sb	a4,-1818(gp) # 20000156 <uart_flag>
    36a0:	bff1                	j	367c <get_slave_data+0x42>

000036a2 <data_analysis>:
data_analysis():
D:\1.intelligent vehicle\new try\seefree\Seekfree_CH32V103R8T6_Opensource_Library\obj/../CODE/hcar_uart.c:72
//  @since      v1.0
//  Sample usage:
//-------------------------------------------------------------------------------------------------------------------
void data_analysis(uint8 *line)
{
    if(line[1] == 0xB0)    slave_encoder_left  = ((int16)line[2] << 8) | line[3];
    36a2:	00154703          	lbu	a4,1(a0) # 40001 <_data_lma+0x3a111>
    36a6:	0b000793          	li	a5,176
    36aa:	00f70f63          	beq	a4,a5,36c8 <data_analysis+0x26>
D:\1.intelligent vehicle\new try\seefree\Seekfree_CH32V103R8T6_Opensource_Library\obj/../CODE/hcar_uart.c:73
    if(line[4] == 0xB1)    slave_encoder_right = ((int16)line[5] << 8) | line[6];
    36ae:	00454703          	lbu	a4,4(a0)
    36b2:	0b100793          	li	a5,177
    36b6:	02f70463          	beq	a4,a5,36de <data_analysis+0x3c>
D:\1.intelligent vehicle\new try\seefree\Seekfree_CH32V103R8T6_Opensource_Library\obj/../CODE/hcar_uart.c:74
    if(line[7] == 0xB2)    slave_position      = ((int16)line[8] << 8) | line[9];
    36ba:	00754703          	lbu	a4,7(a0)
    36be:	0b200793          	li	a5,178
    36c2:	02f70963          	beq	a4,a5,36f4 <data_analysis+0x52>
D:\1.intelligent vehicle\new try\seefree\Seekfree_CH32V103R8T6_Opensource_Library\obj/../CODE/hcar_uart.c:75
}
    36c6:	8082                	ret
D:\1.intelligent vehicle\new try\seefree\Seekfree_CH32V103R8T6_Opensource_Library\obj/../CODE/hcar_uart.c:72 (discriminator 1)
    if(line[1] == 0xB0)    slave_encoder_left  = ((int16)line[2] << 8) | line[3];
    36c8:	00254783          	lbu	a5,2(a0)
    36cc:	07a2                	slli	a5,a5,0x8
    36ce:	00354703          	lbu	a4,3(a0)
    36d2:	8fd9                	or	a5,a5,a4
    36d4:	07c2                	slli	a5,a5,0x10
    36d6:	87c1                	srai	a5,a5,0x10
    36d8:	8ef19023          	sh	a5,-1824(gp) # 20000150 <slave_encoder_left>
    36dc:	bfc9                	j	36ae <data_analysis+0xc>
D:\1.intelligent vehicle\new try\seefree\Seekfree_CH32V103R8T6_Opensource_Library\obj/../CODE/hcar_uart.c:73 (discriminator 1)
    if(line[4] == 0xB1)    slave_encoder_right = ((int16)line[5] << 8) | line[6];
    36de:	00554783          	lbu	a5,5(a0)
    36e2:	07a2                	slli	a5,a5,0x8
    36e4:	00654703          	lbu	a4,6(a0)
    36e8:	8fd9                	or	a5,a5,a4
    36ea:	07c2                	slli	a5,a5,0x10
    36ec:	87c1                	srai	a5,a5,0x10
    36ee:	8ef19123          	sh	a5,-1822(gp) # 20000152 <slave_encoder_right>
    36f2:	b7e1                	j	36ba <data_analysis+0x18>
D:\1.intelligent vehicle\new try\seefree\Seekfree_CH32V103R8T6_Opensource_Library\obj/../CODE/hcar_uart.c:74 (discriminator 1)
    if(line[7] == 0xB2)    slave_position      = ((int16)line[8] << 8) | line[9];
    36f4:	00854783          	lbu	a5,8(a0)
    36f8:	07a2                	slli	a5,a5,0x8
    36fa:	00954703          	lbu	a4,9(a0)
    36fe:	8fd9                	or	a5,a5,a4
    3700:	07c2                	slli	a5,a5,0x10
    3702:	87c1                	srai	a5,a5,0x10
    3704:	8ef19223          	sh	a5,-1820(gp) # 20000154 <slave_position>
D:\1.intelligent vehicle\new try\seefree\Seekfree_CH32V103R8T6_Opensource_Library\obj/../CODE/hcar_uart.c:75 (discriminator 1)
}
    3708:	bf7d                	j	36c6 <data_analysis+0x24>

0000370a <hcar_pid_wireless>:
hcar_pid_wireless():
D:\1.intelligent vehicle\new try\seefree\Seekfree_CH32V103R8T6_Opensource_Library\obj/../CODE/hcar_wireless.c:20
#include "hcar_init.h"
#include "hcar_uart.h"
#include "middline.h"

void hcar_pid_wireless(void)
{
    370a:	1141                	addi	sp,sp,-16
    370c:	c606                	sw	ra,12(sp)
D:\1.intelligent vehicle\new try\seefree\Seekfree_CH32V103R8T6_Opensource_Library\obj/../CODE/hcar_wireless.c:21
    encoder_str[0]=host_encoder_left;
    370e:	8581d783          	lhu	a5,-1960(gp) # 200000c8 <host_encoder_left>
    3712:	90f19223          	sh	a5,-1788(gp) # 20000174 <encoder_str>
D:\1.intelligent vehicle\new try\seefree\Seekfree_CH32V103R8T6_Opensource_Library\obj/../CODE/hcar_wireless.c:22
    encoder_str[1]=host_encoder_right;
    3716:	90418793          	addi	a5,gp,-1788 # 20000174 <encoder_str>
    371a:	85a1d703          	lhu	a4,-1958(gp) # 200000ca <host_encoder_right>
    371e:	00e79123          	sh	a4,2(a5)
D:\1.intelligent vehicle\new try\seefree\Seekfree_CH32V103R8T6_Opensource_Library\obj/../CODE/hcar_wireless.c:23
    encoder_str[2]=slave_encoder_right;
    3722:	8e21d703          	lhu	a4,-1822(gp) # 20000152 <slave_encoder_right>
    3726:	00e79223          	sh	a4,4(a5)
D:\1.intelligent vehicle\new try\seefree\Seekfree_CH32V103R8T6_Opensource_Library\obj/../CODE/hcar_wireless.c:24
    encoder_str[3]=slave_encoder_left;
    372a:	8e01d703          	lhu	a4,-1824(gp) # 20000150 <slave_encoder_left>
    372e:	00e79323          	sh	a4,6(a5)
D:\1.intelligent vehicle\new try\seefree\Seekfree_CH32V103R8T6_Opensource_Library\obj/../CODE/hcar_wireless.c:25
    encoder_str[4]=targetSpeed1;
    3732:	85c1d703          	lhu	a4,-1956(gp) # 200000cc <targetSpeed1>
    3736:	00e79423          	sh	a4,8(a5)
D:\1.intelligent vehicle\new try\seefree\Seekfree_CH32V103R8T6_Opensource_Library\obj/../CODE/hcar_wireless.c:26
    encoder_str[5]=targetSpeed2;
    373a:	85e1d703          	lhu	a4,-1954(gp) # 200000ce <targetSpeed2>
    373e:	00e79523          	sh	a4,10(a5)
D:\1.intelligent vehicle\new try\seefree\Seekfree_CH32V103R8T6_Opensource_Library\obj/../CODE/hcar_wireless.c:27
    encoder_str[6]=targetSpeed3;
    3742:	8601d703          	lhu	a4,-1952(gp) # 200000d0 <targetSpeed3>
    3746:	00e79623          	sh	a4,12(a5)
D:\1.intelligent vehicle\new try\seefree\Seekfree_CH32V103R8T6_Opensource_Library\obj/../CODE/hcar_wireless.c:28
    encoder_str[7]=targetSpeed4;
    374a:	8621d703          	lhu	a4,-1950(gp) # 200000d2 <targetSpeed4>
    374e:	00e79723          	sh	a4,14(a5)
D:\1.intelligent vehicle\new try\seefree\Seekfree_CH32V103R8T6_Opensource_Library\obj/../CODE/hcar_wireless.c:30
    //encoder_str[8]=(int16)sum_x1*100;
    Data_Send(WIRELESS_UART, encoder_str);
    3752:	90418593          	addi	a1,gp,-1788 # 20000174 <encoder_str>
    3756:	4501                	li	a0,0
    3758:	ce4ff0ef          	jal	ra,2c3c <Data_Send>
D:\1.intelligent vehicle\new try\seefree\Seekfree_CH32V103R8T6_Opensource_Library\obj/../CODE/hcar_wireless.c:31
}
    375c:	40b2                	lw	ra,12(sp)
    375e:	0141                	addi	sp,sp,16
    3760:	8082                	ret

00003762 <__addsf3>:
__addsf3():
    3762:	1141                	addi	sp,sp,-16
    3764:	00800737          	lui	a4,0x800
    3768:	177d                	addi	a4,a4,-1
    376a:	0175d813          	srli	a6,a1,0x17
    376e:	c226                	sw	s1,4(sp)
    3770:	01755493          	srli	s1,a0,0x17
    3774:	00a77333          	and	t1,a4,a0
    3778:	0ff4f493          	andi	s1,s1,255
    377c:	00b776b3          	and	a3,a4,a1
    3780:	c04a                	sw	s2,0(sp)
    3782:	0ff87813          	andi	a6,a6,255
    3786:	01f55913          	srli	s2,a0,0x1f
    378a:	c606                	sw	ra,12(sp)
    378c:	c422                	sw	s0,8(sp)
    378e:	81fd                	srli	a1,a1,0x1f
    3790:	879a                	mv	a5,t1
    3792:	8526                	mv	a0,s1
    3794:	864a                	mv	a2,s2
    3796:	00331e13          	slli	t3,t1,0x3
    379a:	00369e93          	slli	t4,a3,0x3
    379e:	410488b3          	sub	a7,s1,a6
    37a2:	0eb90a63          	beq	s2,a1,3896 <__addsf3+0x134>
    37a6:	0d105063          	blez	a7,3866 <__addsf3+0x104>
    37aa:	14080463          	beqz	a6,38f2 <__addsf3+0x190>
    37ae:	0ff00793          	li	a5,255
    37b2:	14f48b63          	beq	s1,a5,3908 <__addsf3+0x1a6>
    37b6:	040007b7          	lui	a5,0x4000
    37ba:	00feeeb3          	or	t4,t4,a5
    37be:	47ed                	li	a5,27
    37c0:	2917c163          	blt	a5,a7,3a42 <__addsf3+0x2e0>
    37c4:	02000793          	li	a5,32
    37c8:	411787b3          	sub	a5,a5,a7
    37cc:	00fe97b3          	sll	a5,t4,a5
    37d0:	011ed8b3          	srl	a7,t4,a7
    37d4:	00f037b3          	snez	a5,a5
    37d8:	00f8e7b3          	or	a5,a7,a5
    37dc:	40fe07b3          	sub	a5,t3,a5
    37e0:	00579713          	slli	a4,a5,0x5
    37e4:	18075e63          	bgez	a4,3980 <__addsf3+0x21e>
    37e8:	04000437          	lui	s0,0x4000
    37ec:	147d                	addi	s0,s0,-1
    37ee:	8c7d                	and	s0,s0,a5
    37f0:	8522                	mv	a0,s0
    37f2:	32d000ef          	jal	ra,431e <__clzsi2>
    37f6:	156d                	addi	a0,a0,-5
    37f8:	00a417b3          	sll	a5,s0,a0
    37fc:	1a954863          	blt	a0,s1,39ac <__addsf3+0x24a>
    3800:	8d05                	sub	a0,a0,s1
    3802:	00150413          	addi	s0,a0,1
    3806:	02000713          	li	a4,32
    380a:	8f01                	sub	a4,a4,s0
    380c:	00e79733          	sll	a4,a5,a4
    3810:	00e03733          	snez	a4,a4
    3814:	0087d7b3          	srl	a5,a5,s0
    3818:	8fd9                	or	a5,a5,a4
    381a:	4481                	li	s1,0
    381c:	0077f713          	andi	a4,a5,7
    3820:	c719                	beqz	a4,382e <__addsf3+0xcc>
    3822:	00f7f713          	andi	a4,a5,15
    3826:	4691                	li	a3,4
    3828:	00d70363          	beq	a4,a3,382e <__addsf3+0xcc>
    382c:	0791                	addi	a5,a5,4
    382e:	00579713          	slli	a4,a5,0x5
    3832:	14075b63          	bgez	a4,3988 <__addsf3+0x226>
    3836:	0485                	addi	s1,s1,1
    3838:	0ff00713          	li	a4,255
    383c:	864a                	mv	a2,s2
    383e:	16e48363          	beq	s1,a4,39a4 <__addsf3+0x242>
    3842:	079a                	slli	a5,a5,0x6
    3844:	83a5                	srli	a5,a5,0x9
    3846:	0ff4f513          	andi	a0,s1,255
    384a:	40b2                	lw	ra,12(sp)
    384c:	4422                	lw	s0,8(sp)
    384e:	07a6                	slli	a5,a5,0x9
    3850:	01751493          	slli	s1,a0,0x17
    3854:	0097d513          	srli	a0,a5,0x9
    3858:	8d45                	or	a0,a0,s1
    385a:	067e                	slli	a2,a2,0x1f
    385c:	4492                	lw	s1,4(sp)
    385e:	4902                	lw	s2,0(sp)
    3860:	8d51                	or	a0,a0,a2
    3862:	0141                	addi	sp,sp,16
    3864:	8082                	ret
    3866:	0a089963          	bnez	a7,3918 <__addsf3+0x1b6>
    386a:	00148713          	addi	a4,s1,1
    386e:	0fe77713          	andi	a4,a4,254
    3872:	14071763          	bnez	a4,39c0 <__addsf3+0x25e>
    3876:	22049063          	bnez	s1,3a96 <__addsf3+0x334>
    387a:	1e0e0d63          	beqz	t3,3a74 <__addsf3+0x312>
    387e:	fc0e86e3          	beqz	t4,384a <__addsf3+0xe8>
    3882:	41de07b3          	sub	a5,t3,t4
    3886:	00579713          	slli	a4,a5,0x5
    388a:	22075063          	bgez	a4,3aaa <__addsf3+0x348>
    388e:	41ce87b3          	sub	a5,t4,t3
    3892:	892e                	mv	s2,a1
    3894:	b761                	j	381c <__addsf3+0xba>
    3896:	0b105c63          	blez	a7,394e <__addsf3+0x1ec>
    389a:	08080e63          	beqz	a6,3936 <__addsf3+0x1d4>
    389e:	0ff00793          	li	a5,255
    38a2:	06f48363          	beq	s1,a5,3908 <__addsf3+0x1a6>
    38a6:	040007b7          	lui	a5,0x4000
    38aa:	00feeeb3          	or	t4,t4,a5
    38ae:	47ed                	li	a5,27
    38b0:	1f17c963          	blt	a5,a7,3aa2 <__addsf3+0x340>
    38b4:	02000793          	li	a5,32
    38b8:	411787b3          	sub	a5,a5,a7
    38bc:	00fe97b3          	sll	a5,t4,a5
    38c0:	011ed8b3          	srl	a7,t4,a7
    38c4:	00f037b3          	snez	a5,a5
    38c8:	00f8e7b3          	or	a5,a7,a5
    38cc:	97f2                	add	a5,a5,t3
    38ce:	00579713          	slli	a4,a5,0x5
    38d2:	0a075763          	bgez	a4,3980 <__addsf3+0x21e>
    38d6:	0485                	addi	s1,s1,1
    38d8:	0ff00713          	li	a4,255
    38dc:	0ce48463          	beq	s1,a4,39a4 <__addsf3+0x242>
    38e0:	7e0006b7          	lui	a3,0x7e000
    38e4:	0017d713          	srli	a4,a5,0x1
    38e8:	16fd                	addi	a3,a3,-1
    38ea:	8b85                	andi	a5,a5,1
    38ec:	8f75                	and	a4,a4,a3
    38ee:	8fd9                	or	a5,a5,a4
    38f0:	b735                	j	381c <__addsf3+0xba>
    38f2:	080e8d63          	beqz	t4,398c <__addsf3+0x22a>
    38f6:	18fd                	addi	a7,a7,-1
    38f8:	41de07b3          	sub	a5,t3,t4
    38fc:	ee0882e3          	beqz	a7,37e0 <__addsf3+0x7e>
    3900:	0ff00793          	li	a5,255
    3904:	eaf49de3          	bne	s1,a5,37be <__addsf3+0x5c>
    3908:	08030d63          	beqz	t1,39a2 <__addsf3+0x240>
    390c:	4601                	li	a2,0
    390e:	0ff00513          	li	a0,255
    3912:	004007b7          	lui	a5,0x400
    3916:	bf15                	j	384a <__addsf3+0xe8>
    3918:	40980733          	sub	a4,a6,s1
    391c:	e8ed                	bnez	s1,3a0e <__addsf3+0x2ac>
    391e:	140e0263          	beqz	t3,3a62 <__addsf3+0x300>
    3922:	177d                	addi	a4,a4,-1
    3924:	18070863          	beqz	a4,3ab4 <__addsf3+0x352>
    3928:	0ff00793          	li	a5,255
    392c:	0ef81963          	bne	a6,a5,3a1e <__addsf3+0x2bc>
    3930:	892e                	mv	s2,a1
    3932:	8336                	mv	t1,a3
    3934:	bfd1                	j	3908 <__addsf3+0x1a6>
    3936:	040e8b63          	beqz	t4,398c <__addsf3+0x22a>
    393a:	18fd                	addi	a7,a7,-1
    393c:	01de07b3          	add	a5,t3,t4
    3940:	f80887e3          	beqz	a7,38ce <__addsf3+0x16c>
    3944:	0ff00793          	li	a5,255
    3948:	f6f493e3          	bne	s1,a5,38ae <__addsf3+0x14c>
    394c:	bf75                	j	3908 <__addsf3+0x1a6>
    394e:	08089563          	bnez	a7,39d8 <__addsf3+0x276>
    3952:	0485                	addi	s1,s1,1
    3954:	0fe4f713          	andi	a4,s1,254
    3958:	12071363          	bnez	a4,3a7e <__addsf3+0x31c>
    395c:	10051763          	bnez	a0,3a6a <__addsf3+0x308>
    3960:	140e0f63          	beqz	t3,3abe <__addsf3+0x35c>
    3964:	ee0e83e3          	beqz	t4,384a <__addsf3+0xe8>
    3968:	01de07b3          	add	a5,t3,t4
    396c:	00579713          	slli	a4,a5,0x5
    3970:	4481                	li	s1,0
    3972:	00075763          	bgez	a4,3980 <__addsf3+0x21e>
    3976:	fc000737          	lui	a4,0xfc000
    397a:	177d                	addi	a4,a4,-1
    397c:	8ff9                	and	a5,a5,a4
    397e:	4485                	li	s1,1
    3980:	0077f713          	andi	a4,a5,7
    3984:	e8071fe3          	bnez	a4,3822 <__addsf3+0xc0>
    3988:	0037d313          	srli	t1,a5,0x3
    398c:	0ff00793          	li	a5,255
    3990:	f6f48ce3          	beq	s1,a5,3908 <__addsf3+0x1a6>
    3994:	00931793          	slli	a5,t1,0x9
    3998:	83a5                	srli	a5,a5,0x9
    399a:	0ff4f513          	andi	a0,s1,255
    399e:	864a                	mv	a2,s2
    39a0:	b56d                	j	384a <__addsf3+0xe8>
    39a2:	864a                	mv	a2,s2
    39a4:	0ff00513          	li	a0,255
    39a8:	4781                	li	a5,0
    39aa:	b545                	j	384a <__addsf3+0xe8>
    39ac:	fc000737          	lui	a4,0xfc000
    39b0:	177d                	addi	a4,a4,-1
    39b2:	8ff9                	and	a5,a5,a4
    39b4:	0077f713          	andi	a4,a5,7
    39b8:	8c89                	sub	s1,s1,a0
    39ba:	e60714e3          	bnez	a4,3822 <__addsf3+0xc0>
    39be:	b7e9                	j	3988 <__addsf3+0x226>
    39c0:	41de0433          	sub	s0,t3,t4
    39c4:	00541793          	slli	a5,s0,0x5
    39c8:	0c07c363          	bltz	a5,3a8e <__addsf3+0x32c>
    39cc:	e20412e3          	bnez	s0,37f0 <__addsf3+0x8e>
    39d0:	4601                	li	a2,0
    39d2:	4501                	li	a0,0
    39d4:	4781                	li	a5,0
    39d6:	bd95                	j	384a <__addsf3+0xe8>
    39d8:	40980733          	sub	a4,a6,s1
    39dc:	c4ad                	beqz	s1,3a46 <__addsf3+0x2e4>
    39de:	0ff00793          	li	a5,255
    39e2:	f4f808e3          	beq	a6,a5,3932 <__addsf3+0x1d0>
    39e6:	040007b7          	lui	a5,0x4000
    39ea:	00fe6e33          	or	t3,t3,a5
    39ee:	47ed                	li	a5,27
    39f0:	0ce7cc63          	blt	a5,a4,3ac8 <__addsf3+0x366>
    39f4:	02000793          	li	a5,32
    39f8:	8f99                	sub	a5,a5,a4
    39fa:	00fe17b3          	sll	a5,t3,a5
    39fe:	00ee5733          	srl	a4,t3,a4
    3a02:	00f037b3          	snez	a5,a5
    3a06:	8fd9                	or	a5,a5,a4
    3a08:	97f6                	add	a5,a5,t4
    3a0a:	84c2                	mv	s1,a6
    3a0c:	b5c9                	j	38ce <__addsf3+0x16c>
    3a0e:	0ff00793          	li	a5,255
    3a12:	f0f80fe3          	beq	a6,a5,3930 <__addsf3+0x1ce>
    3a16:	040007b7          	lui	a5,0x4000
    3a1a:	00fe6e33          	or	t3,t3,a5
    3a1e:	47ed                	li	a5,27
    3a20:	08e7c363          	blt	a5,a4,3aa6 <__addsf3+0x344>
    3a24:	02000693          	li	a3,32
    3a28:	8e99                	sub	a3,a3,a4
    3a2a:	00de16b3          	sll	a3,t3,a3
    3a2e:	00ee57b3          	srl	a5,t3,a4
    3a32:	00d03733          	snez	a4,a3
    3a36:	8fd9                	or	a5,a5,a4
    3a38:	40fe87b3          	sub	a5,t4,a5
    3a3c:	84c2                	mv	s1,a6
    3a3e:	892e                	mv	s2,a1
    3a40:	b345                	j	37e0 <__addsf3+0x7e>
    3a42:	4785                	li	a5,1
    3a44:	bb61                	j	37dc <__addsf3+0x7a>
    3a46:	060e0e63          	beqz	t3,3ac2 <__addsf3+0x360>
    3a4a:	177d                	addi	a4,a4,-1
    3a4c:	01de07b3          	add	a5,t3,t4
    3a50:	84c2                	mv	s1,a6
    3a52:	e6070ee3          	beqz	a4,38ce <__addsf3+0x16c>
    3a56:	0ff00793          	li	a5,255
    3a5a:	f8f81ae3          	bne	a6,a5,39ee <__addsf3+0x28c>
    3a5e:	8336                	mv	t1,a3
    3a60:	b565                	j	3908 <__addsf3+0x1a6>
    3a62:	8336                	mv	t1,a3
    3a64:	84c2                	mv	s1,a6
    3a66:	892e                	mv	s2,a1
    3a68:	b715                	j	398c <__addsf3+0x22a>
    3a6a:	ec0e04e3          	beqz	t3,3932 <__addsf3+0x1d0>
    3a6e:	e80e8de3          	beqz	t4,3908 <__addsf3+0x1a6>
    3a72:	bd69                	j	390c <__addsf3+0x1aa>
    3a74:	020e8d63          	beqz	t4,3aae <__addsf3+0x34c>
    3a78:	862e                	mv	a2,a1
    3a7a:	87b6                	mv	a5,a3
    3a7c:	b3f9                	j	384a <__addsf3+0xe8>
    3a7e:	0ff00793          	li	a5,255
    3a82:	f2f481e3          	beq	s1,a5,39a4 <__addsf3+0x242>
    3a86:	01de07b3          	add	a5,t3,t4
    3a8a:	8385                	srli	a5,a5,0x1
    3a8c:	bdd5                	j	3980 <__addsf3+0x21e>
    3a8e:	41ce8433          	sub	s0,t4,t3
    3a92:	892e                	mv	s2,a1
    3a94:	bbb1                	j	37f0 <__addsf3+0x8e>
    3a96:	fc0e1ce3          	bnez	t3,3a6e <__addsf3+0x30c>
    3a9a:	e60e89e3          	beqz	t4,390c <__addsf3+0x1aa>
    3a9e:	892e                	mv	s2,a1
    3aa0:	bd49                	j	3932 <__addsf3+0x1d0>
    3aa2:	4785                	li	a5,1
    3aa4:	b525                	j	38cc <__addsf3+0x16a>
    3aa6:	4785                	li	a5,1
    3aa8:	bf41                	j	3a38 <__addsf3+0x2d6>
    3aaa:	ec079be3          	bnez	a5,3980 <__addsf3+0x21e>
    3aae:	4601                	li	a2,0
    3ab0:	4781                	li	a5,0
    3ab2:	bb61                	j	384a <__addsf3+0xe8>
    3ab4:	41ce87b3          	sub	a5,t4,t3
    3ab8:	84c2                	mv	s1,a6
    3aba:	892e                	mv	s2,a1
    3abc:	b315                	j	37e0 <__addsf3+0x7e>
    3abe:	87b6                	mv	a5,a3
    3ac0:	b369                	j	384a <__addsf3+0xe8>
    3ac2:	8336                	mv	t1,a3
    3ac4:	84c2                	mv	s1,a6
    3ac6:	b5d9                	j	398c <__addsf3+0x22a>
    3ac8:	4785                	li	a5,1
    3aca:	bf3d                	j	3a08 <__addsf3+0x2a6>

00003acc <__gesf2>:
__gtsf2():
    3acc:	01755693          	srli	a3,a0,0x17
    3ad0:	008007b7          	lui	a5,0x800
    3ad4:	17fd                	addi	a5,a5,-1
    3ad6:	0175d613          	srli	a2,a1,0x17
    3ada:	0ff6f693          	andi	a3,a3,255
    3ade:	0ff00813          	li	a6,255
    3ae2:	00a7f8b3          	and	a7,a5,a0
    3ae6:	01f55713          	srli	a4,a0,0x1f
    3aea:	8fed                	and	a5,a5,a1
    3aec:	0ff67613          	andi	a2,a2,255
    3af0:	81fd                	srli	a1,a1,0x1f
    3af2:	03068163          	beq	a3,a6,3b14 <__gesf2+0x48>
    3af6:	01060c63          	beq	a2,a6,3b0e <__gesf2+0x42>
    3afa:	e28d                	bnez	a3,3b1c <__gesf2+0x50>
    3afc:	e211                	bnez	a2,3b00 <__gesf2+0x34>
    3afe:	c3b1                	beqz	a5,3b42 <__gesf2+0x76>
    3b00:	02088e63          	beqz	a7,3b3c <__gesf2+0x70>
    3b04:	04b70563          	beq	a4,a1,3b4e <__gesf2+0x82>
    3b08:	4505                	li	a0,1
    3b0a:	e71d                	bnez	a4,3b38 <__gesf2+0x6c>
    3b0c:	8082                	ret
    3b0e:	d7f5                	beqz	a5,3afa <__gesf2+0x2e>
    3b10:	5579                	li	a0,-2
    3b12:	8082                	ret
    3b14:	fe089ee3          	bnez	a7,3b10 <__gesf2+0x44>
    3b18:	02d60963          	beq	a2,a3,3b4a <__gesf2+0x7e>
    3b1c:	e211                	bnez	a2,3b20 <__gesf2+0x54>
    3b1e:	d7ed                	beqz	a5,3b08 <__gesf2+0x3c>
    3b20:	feb714e3          	bne	a4,a1,3b08 <__gesf2+0x3c>
    3b24:	fed642e3          	blt	a2,a3,3b08 <__gesf2+0x3c>
    3b28:	00c6c763          	blt	a3,a2,3b36 <__gesf2+0x6a>
    3b2c:	fd17eee3          	bltu	a5,a7,3b08 <__gesf2+0x3c>
    3b30:	4501                	li	a0,0
    3b32:	fcf8fde3          	bgeu	a7,a5,3b0c <__gesf2+0x40>
    3b36:	e701                	bnez	a4,3b3e <__gesf2+0x72>
    3b38:	557d                	li	a0,-1
    3b3a:	8082                	ret
    3b3c:	ddf5                	beqz	a1,3b38 <__gesf2+0x6c>
    3b3e:	4505                	li	a0,1
    3b40:	8082                	ret
    3b42:	4501                	li	a0,0
    3b44:	fc0892e3          	bnez	a7,3b08 <__gesf2+0x3c>
    3b48:	8082                	ret
    3b4a:	dbf9                	beqz	a5,3b20 <__gesf2+0x54>
    3b4c:	b7d1                	j	3b10 <__gesf2+0x44>
    3b4e:	4681                	li	a3,0
    3b50:	bfe1                	j	3b28 <__gesf2+0x5c>

00003b52 <__lesf2>:
__lesf2():
    3b52:	01755693          	srli	a3,a0,0x17
    3b56:	008007b7          	lui	a5,0x800
    3b5a:	17fd                	addi	a5,a5,-1
    3b5c:	0175d613          	srli	a2,a1,0x17
    3b60:	0ff6f693          	andi	a3,a3,255
    3b64:	0ff00813          	li	a6,255
    3b68:	00a7f8b3          	and	a7,a5,a0
    3b6c:	01f55713          	srli	a4,a0,0x1f
    3b70:	8fed                	and	a5,a5,a1
    3b72:	0ff67613          	andi	a2,a2,255
    3b76:	81fd                	srli	a1,a1,0x1f
    3b78:	03068763          	beq	a3,a6,3ba6 <__lesf2+0x54>
    3b7c:	01060963          	beq	a2,a6,3b8e <__lesf2+0x3c>
    3b80:	ea85                	bnez	a3,3bb0 <__lesf2+0x5e>
    3b82:	ea11                	bnez	a2,3b96 <__lesf2+0x44>
    3b84:	eb89                	bnez	a5,3b96 <__lesf2+0x44>
    3b86:	4501                	li	a0,0
    3b88:	00089b63          	bnez	a7,3b9e <__lesf2+0x4c>
    3b8c:	8082                	ret
    3b8e:	4509                	li	a0,2
    3b90:	fff5                	bnez	a5,3b8c <__lesf2+0x3a>
    3b92:	dae5                	beqz	a3,3b82 <__lesf2+0x30>
    3b94:	a831                	j	3bb0 <__lesf2+0x5e>
    3b96:	02088c63          	beqz	a7,3bce <__lesf2+0x7c>
    3b9a:	04b70063          	beq	a4,a1,3bda <__lesf2+0x88>
    3b9e:	4505                	li	a0,1
    3ba0:	d775                	beqz	a4,3b8c <__lesf2+0x3a>
    3ba2:	557d                	li	a0,-1
    3ba4:	8082                	ret
    3ba6:	4509                	li	a0,2
    3ba8:	02089863          	bnez	a7,3bd8 <__lesf2+0x86>
    3bac:	02d60463          	beq	a2,a3,3bd4 <__lesf2+0x82>
    3bb0:	e211                	bnez	a2,3bb4 <__lesf2+0x62>
    3bb2:	d7f5                	beqz	a5,3b9e <__lesf2+0x4c>
    3bb4:	feb715e3          	bne	a4,a1,3b9e <__lesf2+0x4c>
    3bb8:	fed643e3          	blt	a2,a3,3b9e <__lesf2+0x4c>
    3bbc:	00c6c763          	blt	a3,a2,3bca <__lesf2+0x78>
    3bc0:	fd17efe3          	bltu	a5,a7,3b9e <__lesf2+0x4c>
    3bc4:	4501                	li	a0,0
    3bc6:	fcf8f3e3          	bgeu	a7,a5,3b8c <__lesf2+0x3a>
    3bca:	e319                	bnez	a4,3bd0 <__lesf2+0x7e>
    3bcc:	bfd9                	j	3ba2 <__lesf2+0x50>
    3bce:	d9f1                	beqz	a1,3ba2 <__lesf2+0x50>
    3bd0:	4505                	li	a0,1
    3bd2:	8082                	ret
    3bd4:	d3e5                	beqz	a5,3bb4 <__lesf2+0x62>
    3bd6:	8082                	ret
    3bd8:	8082                	ret
    3bda:	4681                	li	a3,0
    3bdc:	b7c5                	j	3bbc <__lesf2+0x6a>

00003bde <__mulsf3>:
__mulsf3():
    3bde:	7179                	addi	sp,sp,-48
    3be0:	d422                	sw	s0,40(sp)
    3be2:	01755413          	srli	s0,a0,0x17
    3be6:	ce4e                	sw	s3,28(sp)
    3be8:	cc52                	sw	s4,24(sp)
    3bea:	00951993          	slli	s3,a0,0x9
    3bee:	d606                	sw	ra,44(sp)
    3bf0:	d226                	sw	s1,36(sp)
    3bf2:	d04a                	sw	s2,32(sp)
    3bf4:	ca56                	sw	s5,20(sp)
    3bf6:	c85a                	sw	s6,16(sp)
    3bf8:	0ff47413          	andi	s0,s0,255
    3bfc:	0099d993          	srli	s3,s3,0x9
    3c00:	01f55a13          	srli	s4,a0,0x1f
    3c04:	c469                	beqz	s0,3cce <__mulsf3+0xf0>
    3c06:	0ff00793          	li	a5,255
    3c0a:	0ef40863          	beq	s0,a5,3cfa <__mulsf3+0x11c>
    3c0e:	00399793          	slli	a5,s3,0x3
    3c12:	04000737          	lui	a4,0x4000
    3c16:	00e7e9b3          	or	s3,a5,a4
    3c1a:	f8140413          	addi	s0,s0,-127 # 3ffff81 <_data_lma+0x3ffa091>
    3c1e:	4481                	li	s1,0
    3c20:	4b01                	li	s6,0
    3c22:	0175d713          	srli	a4,a1,0x17
    3c26:	00959a93          	slli	s5,a1,0x9
    3c2a:	0ff77713          	andi	a4,a4,255
    3c2e:	009ada93          	srli	s5,s5,0x9
    3c32:	01f5d913          	srli	s2,a1,0x1f
    3c36:	cf45                	beqz	a4,3cee <__mulsf3+0x110>
    3c38:	0ff00793          	li	a5,255
    3c3c:	02f70c63          	beq	a4,a5,3c74 <__mulsf3+0x96>
    3c40:	0a8e                	slli	s5,s5,0x3
    3c42:	f8170713          	addi	a4,a4,-127 # 3ffff81 <_data_lma+0x3ffa091>
    3c46:	040007b7          	lui	a5,0x4000
    3c4a:	00faeab3          	or	s5,s5,a5
    3c4e:	943a                	add	s0,s0,a4
    3c50:	4601                	li	a2,0
    3c52:	012a4533          	xor	a0,s4,s2
    3c56:	47bd                	li	a5,15
    3c58:	86aa                	mv	a3,a0
    3c5a:	00140593          	addi	a1,s0,1
    3c5e:	1097e063          	bltu	a5,s1,3d5e <__mulsf3+0x180>
    3c62:	00002717          	auipc	a4,0x2
    3c66:	07270713          	addi	a4,a4,114 # 5cd4 <UARTN+0x20>
    3c6a:	048a                	slli	s1,s1,0x2
    3c6c:	94ba                	add	s1,s1,a4
    3c6e:	409c                	lw	a5,0(s1)
    3c70:	97ba                	add	a5,a5,a4
    3c72:	8782                	jr	a5
    3c74:	0ff40413          	addi	s0,s0,255
    3c78:	0c0a9663          	bnez	s5,3d44 <__mulsf3+0x166>
    3c7c:	0024e493          	ori	s1,s1,2
    3c80:	4609                	li	a2,2
    3c82:	bfc1                	j	3c52 <__mulsf3+0x74>
    3c84:	4501                	li	a0,0
    3c86:	0ff00713          	li	a4,255
    3c8a:	004007b7          	lui	a5,0x400
    3c8e:	50b2                	lw	ra,44(sp)
    3c90:	5422                	lw	s0,40(sp)
    3c92:	07a6                	slli	a5,a5,0x9
    3c94:	075e                	slli	a4,a4,0x17
    3c96:	83a5                	srli	a5,a5,0x9
    3c98:	057e                	slli	a0,a0,0x1f
    3c9a:	8fd9                	or	a5,a5,a4
    3c9c:	5492                	lw	s1,36(sp)
    3c9e:	5902                	lw	s2,32(sp)
    3ca0:	49f2                	lw	s3,28(sp)
    3ca2:	4a62                	lw	s4,24(sp)
    3ca4:	4ad2                	lw	s5,20(sp)
    3ca6:	4b42                	lw	s6,16(sp)
    3ca8:	8d5d                	or	a0,a0,a5
    3caa:	6145                	addi	sp,sp,48
    3cac:	8082                	ret
    3cae:	86ca                	mv	a3,s2
    3cb0:	89d6                	mv	s3,s5
    3cb2:	8b32                	mv	s6,a2
    3cb4:	4789                	li	a5,2
    3cb6:	08fb0f63          	beq	s6,a5,3d54 <__mulsf3+0x176>
    3cba:	478d                	li	a5,3
    3cbc:	fcfb04e3          	beq	s6,a5,3c84 <__mulsf3+0xa6>
    3cc0:	4785                	li	a5,1
    3cc2:	8536                	mv	a0,a3
    3cc4:	1afb1063          	bne	s6,a5,3e64 <__mulsf3+0x286>
    3cc8:	4701                	li	a4,0
    3cca:	4781                	li	a5,0
    3ccc:	b7c9                	j	3c8e <__mulsf3+0xb0>
    3cce:	04099d63          	bnez	s3,3d28 <__mulsf3+0x14a>
    3cd2:	0175d713          	srli	a4,a1,0x17
    3cd6:	00959a93          	slli	s5,a1,0x9
    3cda:	0ff77713          	andi	a4,a4,255
    3cde:	4491                	li	s1,4
    3ce0:	4401                	li	s0,0
    3ce2:	4b05                	li	s6,1
    3ce4:	009ada93          	srli	s5,s5,0x9
    3ce8:	01f5d913          	srli	s2,a1,0x1f
    3cec:	f731                	bnez	a4,3c38 <__mulsf3+0x5a>
    3cee:	000a9d63          	bnez	s5,3d08 <__mulsf3+0x12a>
    3cf2:	0014e493          	ori	s1,s1,1
    3cf6:	4605                	li	a2,1
    3cf8:	bfa9                	j	3c52 <__mulsf3+0x74>
    3cfa:	02099263          	bnez	s3,3d1e <__mulsf3+0x140>
    3cfe:	44a1                	li	s1,8
    3d00:	0ff00413          	li	s0,255
    3d04:	4b09                	li	s6,2
    3d06:	bf31                	j	3c22 <__mulsf3+0x44>
    3d08:	8556                	mv	a0,s5
    3d0a:	2d11                	jal	431e <__clzsi2>
    3d0c:	ffb50793          	addi	a5,a0,-5
    3d10:	8c09                	sub	s0,s0,a0
    3d12:	00fa9ab3          	sll	s5,s5,a5
    3d16:	f8a40413          	addi	s0,s0,-118
    3d1a:	4601                	li	a2,0
    3d1c:	bf1d                	j	3c52 <__mulsf3+0x74>
    3d1e:	44b1                	li	s1,12
    3d20:	0ff00413          	li	s0,255
    3d24:	4b0d                	li	s6,3
    3d26:	bdf5                	j	3c22 <__mulsf3+0x44>
    3d28:	854e                	mv	a0,s3
    3d2a:	c62e                	sw	a1,12(sp)
    3d2c:	2bcd                	jal	431e <__clzsi2>
    3d2e:	ffb50793          	addi	a5,a0,-5
    3d32:	f8a00413          	li	s0,-118
    3d36:	00f999b3          	sll	s3,s3,a5
    3d3a:	8c09                	sub	s0,s0,a0
    3d3c:	4481                	li	s1,0
    3d3e:	4b01                	li	s6,0
    3d40:	45b2                	lw	a1,12(sp)
    3d42:	b5c5                	j	3c22 <__mulsf3+0x44>
    3d44:	0034e493          	ori	s1,s1,3
    3d48:	460d                	li	a2,3
    3d4a:	b721                	j	3c52 <__mulsf3+0x74>
    3d4c:	4789                	li	a5,2
    3d4e:	86d2                	mv	a3,s4
    3d50:	f6fb15e3          	bne	s6,a5,3cba <__mulsf3+0xdc>
    3d54:	8536                	mv	a0,a3
    3d56:	0ff00713          	li	a4,255
    3d5a:	4781                	li	a5,0
    3d5c:	bf0d                	j	3c8e <__mulsf3+0xb0>
    3d5e:	6341                	lui	t1,0x10
    3d60:	fff30693          	addi	a3,t1,-1 # ffff <_data_lma+0xa10f>
    3d64:	0109d613          	srli	a2,s3,0x10
    3d68:	010ad893          	srli	a7,s5,0x10
    3d6c:	00d9f7b3          	and	a5,s3,a3
    3d70:	00dafab3          	and	s5,s5,a3
    3d74:	03578833          	mul	a6,a5,s5
    3d78:	02f889b3          	mul	s3,a7,a5
    3d7c:	01085713          	srli	a4,a6,0x10
    3d80:	03560ab3          	mul	s5,a2,s5
    3d84:	99d6                	add	s3,s3,s5
    3d86:	974e                	add	a4,a4,s3
    3d88:	03160633          	mul	a2,a2,a7
    3d8c:	01577363          	bgeu	a4,s5,3d92 <__mulsf3+0x1b4>
    3d90:	961a                	add	a2,a2,t1
    3d92:	67c1                	lui	a5,0x10
    3d94:	17fd                	addi	a5,a5,-1
    3d96:	00f776b3          	and	a3,a4,a5
    3d9a:	00f87833          	and	a6,a6,a5
    3d9e:	06c2                	slli	a3,a3,0x10
    3da0:	96c2                	add	a3,a3,a6
    3da2:	00669993          	slli	s3,a3,0x6
    3da6:	01075793          	srli	a5,a4,0x10
    3daa:	013039b3          	snez	s3,s3
    3dae:	82e9                	srli	a3,a3,0x1a
    3db0:	97b2                	add	a5,a5,a2
    3db2:	079a                	slli	a5,a5,0x6
    3db4:	00d9e6b3          	or	a3,s3,a3
    3db8:	00d7e9b3          	or	s3,a5,a3
    3dbc:	00499793          	slli	a5,s3,0x4
    3dc0:	0007d963          	bgez	a5,3dd2 <__mulsf3+0x1f4>
    3dc4:	0019d713          	srli	a4,s3,0x1
    3dc8:	0019f793          	andi	a5,s3,1
    3dcc:	00f769b3          	or	s3,a4,a5
    3dd0:	842e                	mv	s0,a1
    3dd2:	07f40713          	addi	a4,s0,127
    3dd6:	04e05063          	blez	a4,3e16 <__mulsf3+0x238>
    3dda:	0079f793          	andi	a5,s3,7
    3dde:	c799                	beqz	a5,3dec <__mulsf3+0x20e>
    3de0:	00f9f793          	andi	a5,s3,15
    3de4:	4691                	li	a3,4
    3de6:	00d78363          	beq	a5,a3,3dec <__mulsf3+0x20e>
    3dea:	0991                	addi	s3,s3,4
    3dec:	00499793          	slli	a5,s3,0x4
    3df0:	0007d963          	bgez	a5,3e02 <__mulsf3+0x224>
    3df4:	f80007b7          	lui	a5,0xf8000
    3df8:	17fd                	addi	a5,a5,-1
    3dfa:	00f9f9b3          	and	s3,s3,a5
    3dfe:	08040713          	addi	a4,s0,128
    3e02:	0fe00793          	li	a5,254
    3e06:	04e7cb63          	blt	a5,a4,3e5c <__mulsf3+0x27e>
    3e0a:	00699793          	slli	a5,s3,0x6
    3e0e:	83a5                	srli	a5,a5,0x9
    3e10:	0ff77713          	andi	a4,a4,255
    3e14:	bdad                	j	3c8e <__mulsf3+0xb0>
    3e16:	4785                	li	a5,1
    3e18:	40e786b3          	sub	a3,a5,a4
    3e1c:	c711                	beqz	a4,3e28 <__mulsf3+0x24a>
    3e1e:	466d                	li	a2,27
    3e20:	4701                	li	a4,0
    3e22:	4781                	li	a5,0
    3e24:	e6d645e3          	blt	a2,a3,3c8e <__mulsf3+0xb0>
    3e28:	09e40713          	addi	a4,s0,158
    3e2c:	00e99733          	sll	a4,s3,a4
    3e30:	00e03733          	snez	a4,a4
    3e34:	00d9d7b3          	srl	a5,s3,a3
    3e38:	8fd9                	or	a5,a5,a4
    3e3a:	0077f713          	andi	a4,a5,7
    3e3e:	c719                	beqz	a4,3e4c <__mulsf3+0x26e>
    3e40:	00f7f713          	andi	a4,a5,15
    3e44:	4691                	li	a3,4
    3e46:	00d70363          	beq	a4,a3,3e4c <__mulsf3+0x26e>
    3e4a:	0791                	addi	a5,a5,4
    3e4c:	00579713          	slli	a4,a5,0x5
    3e50:	00074c63          	bltz	a4,3e68 <__mulsf3+0x28a>
    3e54:	079a                	slli	a5,a5,0x6
    3e56:	83a5                	srli	a5,a5,0x9
    3e58:	4701                	li	a4,0
    3e5a:	bd15                	j	3c8e <__mulsf3+0xb0>
    3e5c:	0ff00713          	li	a4,255
    3e60:	4781                	li	a5,0
    3e62:	b535                	j	3c8e <__mulsf3+0xb0>
    3e64:	842e                	mv	s0,a1
    3e66:	b7b5                	j	3dd2 <__mulsf3+0x1f4>
    3e68:	4705                	li	a4,1
    3e6a:	4781                	li	a5,0
    3e6c:	b50d                	j	3c8e <__mulsf3+0xb0>

00003e6e <__subsf3>:
__subsf3():
    3e6e:	00800737          	lui	a4,0x800
    3e72:	1141                	addi	sp,sp,-16
    3e74:	177d                	addi	a4,a4,-1
    3e76:	01755693          	srli	a3,a0,0x17
    3e7a:	0175d813          	srli	a6,a1,0x17
    3e7e:	00a777b3          	and	a5,a4,a0
    3e82:	0ff6f693          	andi	a3,a3,255
    3e86:	01f55e93          	srli	t4,a0,0x1f
    3e8a:	00b77633          	and	a2,a4,a1
    3e8e:	c226                	sw	s1,4(sp)
    3e90:	c04a                	sw	s2,0(sp)
    3e92:	0ff87813          	andi	a6,a6,255
    3e96:	c606                	sw	ra,12(sp)
    3e98:	c422                	sw	s0,8(sp)
    3e9a:	0ff00313          	li	t1,255
    3e9e:	8e3e                	mv	t3,a5
    3ea0:	8936                	mv	s2,a3
    3ea2:	84f6                	mv	s1,t4
    3ea4:	00379f13          	slli	t5,a5,0x3
    3ea8:	81fd                	srli	a1,a1,0x1f
    3eaa:	00361513          	slli	a0,a2,0x3
    3eae:	410688b3          	sub	a7,a3,a6
    3eb2:	10680263          	beq	a6,t1,3fb6 <__subsf3+0x148>
    3eb6:	0015c593          	xori	a1,a1,1
    3eba:	10be8c63          	beq	t4,a1,3fd2 <__subsf3+0x164>
    3ebe:	0d105463          	blez	a7,3f86 <__subsf3+0x118>
    3ec2:	10081063          	bnez	a6,3fc2 <__subsf3+0x154>
    3ec6:	1e050463          	beqz	a0,40ae <__subsf3+0x240>
    3eca:	18fd                	addi	a7,a7,-1
    3ecc:	40af07b3          	sub	a5,t5,a0
    3ed0:	02088663          	beqz	a7,3efc <__subsf3+0x8e>
    3ed4:	0ff00793          	li	a5,255
    3ed8:	16f68863          	beq	a3,a5,4048 <__subsf3+0x1da>
    3edc:	47ed                	li	a5,27
    3ede:	2917c763          	blt	a5,a7,416c <__subsf3+0x2fe>
    3ee2:	02000713          	li	a4,32
    3ee6:	41170733          	sub	a4,a4,a7
    3eea:	00e51733          	sll	a4,a0,a4
    3eee:	011557b3          	srl	a5,a0,a7
    3ef2:	00e03733          	snez	a4,a4
    3ef6:	8fd9                	or	a5,a5,a4
    3ef8:	40ff07b3          	sub	a5,t5,a5
    3efc:	00579713          	slli	a4,a5,0x5
    3f00:	1a075163          	bgez	a4,40a2 <__subsf3+0x234>
    3f04:	04000437          	lui	s0,0x4000
    3f08:	147d                	addi	s0,s0,-1
    3f0a:	8c7d                	and	s0,s0,a5
    3f0c:	8522                	mv	a0,s0
    3f0e:	2901                	jal	431e <__clzsi2>
    3f10:	156d                	addi	a0,a0,-5
    3f12:	00a417b3          	sll	a5,s0,a0
    3f16:	1b254e63          	blt	a0,s2,40d2 <__subsf3+0x264>
    3f1a:	41250533          	sub	a0,a0,s2
    3f1e:	00150413          	addi	s0,a0,1
    3f22:	02000713          	li	a4,32
    3f26:	8f01                	sub	a4,a4,s0
    3f28:	00e79733          	sll	a4,a5,a4
    3f2c:	00e03733          	snez	a4,a4
    3f30:	0087d7b3          	srl	a5,a5,s0
    3f34:	8fd9                	or	a5,a5,a4
    3f36:	4901                	li	s2,0
    3f38:	0077f713          	andi	a4,a5,7
    3f3c:	c719                	beqz	a4,3f4a <__subsf3+0xdc>
    3f3e:	00f7f713          	andi	a4,a5,15
    3f42:	4691                	li	a3,4
    3f44:	00d70363          	beq	a4,a3,3f4a <__subsf3+0xdc>
    3f48:	0791                	addi	a5,a5,4
    3f4a:	00579713          	slli	a4,a5,0x5
    3f4e:	14075e63          	bgez	a4,40aa <__subsf3+0x23c>
    3f52:	00190693          	addi	a3,s2,1
    3f56:	0ff00713          	li	a4,255
    3f5a:	0014fe93          	andi	t4,s1,1
    3f5e:	16e68663          	beq	a3,a4,40ca <__subsf3+0x25c>
    3f62:	079a                	slli	a5,a5,0x6
    3f64:	83a5                	srli	a5,a5,0x9
    3f66:	0ff6f693          	andi	a3,a3,255
    3f6a:	07a6                	slli	a5,a5,0x9
    3f6c:	40b2                	lw	ra,12(sp)
    3f6e:	4422                	lw	s0,8(sp)
    3f70:	0097d513          	srli	a0,a5,0x9
    3f74:	06de                	slli	a3,a3,0x17
    3f76:	01fe9793          	slli	a5,t4,0x1f
    3f7a:	8d55                	or	a0,a0,a3
    3f7c:	4492                	lw	s1,4(sp)
    3f7e:	4902                	lw	s2,0(sp)
    3f80:	8d5d                	or	a0,a0,a5
    3f82:	0141                	addi	sp,sp,16
    3f84:	8082                	ret
    3f86:	0a089263          	bnez	a7,402a <__subsf3+0x1bc>
    3f8a:	00168713          	addi	a4,a3,1 # 7e000001 <_eusrstack+0x5dffb001>
    3f8e:	0fe77713          	andi	a4,a4,254
    3f92:	14071b63          	bnez	a4,40e8 <__subsf3+0x27a>
    3f96:	22069463          	bnez	a3,41be <__subsf3+0x350>
    3f9a:	200f0263          	beqz	t5,419e <__subsf3+0x330>
    3f9e:	d571                	beqz	a0,3f6a <__subsf3+0xfc>
    3fa0:	40af07b3          	sub	a5,t5,a0
    3fa4:	00579713          	slli	a4,a5,0x5
    3fa8:	22075563          	bgez	a4,41d2 <__subsf3+0x364>
    3fac:	41e507b3          	sub	a5,a0,t5
    3fb0:	4901                	li	s2,0
    3fb2:	84ae                	mv	s1,a1
    3fb4:	b751                	j	3f38 <__subsf3+0xca>
    3fb6:	f00500e3          	beqz	a0,3eb6 <__subsf3+0x48>
    3fba:	0abe8a63          	beq	t4,a1,406e <__subsf3+0x200>
    3fbe:	fd1054e3          	blez	a7,3f86 <__subsf3+0x118>
    3fc2:	0ff00793          	li	a5,255
    3fc6:	08f68163          	beq	a3,a5,4048 <__subsf3+0x1da>
    3fca:	040007b7          	lui	a5,0x4000
    3fce:	8d5d                	or	a0,a0,a5
    3fd0:	b731                	j	3edc <__subsf3+0x6e>
    3fd2:	09105e63          	blez	a7,406e <__subsf3+0x200>
    3fd6:	08080163          	beqz	a6,4058 <__subsf3+0x1ea>
    3fda:	0ff00793          	li	a5,255
    3fde:	06f68563          	beq	a3,a5,4048 <__subsf3+0x1da>
    3fe2:	040007b7          	lui	a5,0x4000
    3fe6:	8d5d                	or	a0,a0,a5
    3fe8:	47ed                	li	a5,27
    3fea:	1f17c063          	blt	a5,a7,41ca <__subsf3+0x35c>
    3fee:	02000713          	li	a4,32
    3ff2:	41170733          	sub	a4,a4,a7
    3ff6:	00e51733          	sll	a4,a0,a4
    3ffa:	011557b3          	srl	a5,a0,a7
    3ffe:	00e03733          	snez	a4,a4
    4002:	8fd9                	or	a5,a5,a4
    4004:	97fa                	add	a5,a5,t5
    4006:	00579713          	slli	a4,a5,0x5
    400a:	08075c63          	bgez	a4,40a2 <__subsf3+0x234>
    400e:	0905                	addi	s2,s2,1
    4010:	0ff00713          	li	a4,255
    4014:	0ae90b63          	beq	s2,a4,40ca <__subsf3+0x25c>
    4018:	7e0006b7          	lui	a3,0x7e000
    401c:	0017d713          	srli	a4,a5,0x1
    4020:	16fd                	addi	a3,a3,-1
    4022:	8b85                	andi	a5,a5,1
    4024:	8f75                	and	a4,a4,a3
    4026:	8fd9                	or	a5,a5,a4
    4028:	bf01                	j	3f38 <__subsf3+0xca>
    402a:	40d80733          	sub	a4,a6,a3
    402e:	10069563          	bnez	a3,4138 <__subsf3+0x2ca>
    4032:	140f0d63          	beqz	t5,418c <__subsf3+0x31e>
    4036:	177d                	addi	a4,a4,-1
    4038:	1a070363          	beqz	a4,41de <__subsf3+0x370>
    403c:	0ff00793          	li	a5,255
    4040:	10f81463          	bne	a6,a5,4148 <__subsf3+0x2da>
    4044:	84ae                	mv	s1,a1
    4046:	8e32                	mv	t3,a2
    4048:	060e0f63          	beqz	t3,40c6 <__subsf3+0x258>
    404c:	4e81                	li	t4,0
    404e:	0ff00693          	li	a3,255
    4052:	004007b7          	lui	a5,0x400
    4056:	bf11                	j	3f6a <__subsf3+0xfc>
    4058:	c939                	beqz	a0,40ae <__subsf3+0x240>
    405a:	18fd                	addi	a7,a7,-1
    405c:	00af07b3          	add	a5,t5,a0
    4060:	fa0883e3          	beqz	a7,4006 <__subsf3+0x198>
    4064:	0ff00793          	li	a5,255
    4068:	f8f690e3          	bne	a3,a5,3fe8 <__subsf3+0x17a>
    406c:	bff1                	j	4048 <__subsf3+0x1da>
    406e:	08089963          	bnez	a7,4100 <__subsf3+0x292>
    4072:	00168913          	addi	s2,a3,1 # 7e000001 <_eusrstack+0x5dffb001>
    4076:	0fe97713          	andi	a4,s2,254
    407a:	12071663          	bnez	a4,41a6 <__subsf3+0x338>
    407e:	10069b63          	bnez	a3,4194 <__subsf3+0x326>
    4082:	160f0363          	beqz	t5,41e8 <__subsf3+0x37a>
    4086:	ee0502e3          	beqz	a0,3f6a <__subsf3+0xfc>
    408a:	00af07b3          	add	a5,t5,a0
    408e:	00579713          	slli	a4,a5,0x5
    4092:	4901                	li	s2,0
    4094:	00075763          	bgez	a4,40a2 <__subsf3+0x234>
    4098:	fc000737          	lui	a4,0xfc000
    409c:	177d                	addi	a4,a4,-1
    409e:	8ff9                	and	a5,a5,a4
    40a0:	4905                	li	s2,1
    40a2:	0077f713          	andi	a4,a5,7
    40a6:	e8071ce3          	bnez	a4,3f3e <__subsf3+0xd0>
    40aa:	0037de13          	srli	t3,a5,0x3
    40ae:	0ff00793          	li	a5,255
    40b2:	f8f90be3          	beq	s2,a5,4048 <__subsf3+0x1da>
    40b6:	009e1793          	slli	a5,t3,0x9
    40ba:	83a5                	srli	a5,a5,0x9
    40bc:	0ff97693          	andi	a3,s2,255
    40c0:	0014fe93          	andi	t4,s1,1
    40c4:	b55d                	j	3f6a <__subsf3+0xfc>
    40c6:	0014fe93          	andi	t4,s1,1
    40ca:	0ff00693          	li	a3,255
    40ce:	4781                	li	a5,0
    40d0:	bd69                	j	3f6a <__subsf3+0xfc>
    40d2:	fc000737          	lui	a4,0xfc000
    40d6:	177d                	addi	a4,a4,-1
    40d8:	8ff9                	and	a5,a5,a4
    40da:	0077f713          	andi	a4,a5,7
    40de:	40a90933          	sub	s2,s2,a0
    40e2:	e4071ee3          	bnez	a4,3f3e <__subsf3+0xd0>
    40e6:	b7d1                	j	40aa <__subsf3+0x23c>
    40e8:	40af0433          	sub	s0,t5,a0
    40ec:	00541793          	slli	a5,s0,0x5
    40f0:	0c07c363          	bltz	a5,41b6 <__subsf3+0x348>
    40f4:	e0041ce3          	bnez	s0,3f0c <__subsf3+0x9e>
    40f8:	4e81                	li	t4,0
    40fa:	4681                	li	a3,0
    40fc:	4781                	li	a5,0
    40fe:	b5b5                	j	3f6a <__subsf3+0xfc>
    4100:	40d80733          	sub	a4,a6,a3
    4104:	c6b5                	beqz	a3,4170 <__subsf3+0x302>
    4106:	0ff00793          	li	a5,255
    410a:	f2f80ee3          	beq	a6,a5,4046 <__subsf3+0x1d8>
    410e:	040007b7          	lui	a5,0x4000
    4112:	00ff6f33          	or	t5,t5,a5
    4116:	47ed                	li	a5,27
    4118:	0ce7cd63          	blt	a5,a4,41f2 <__subsf3+0x384>
    411c:	02000793          	li	a5,32
    4120:	8f99                	sub	a5,a5,a4
    4122:	00ff17b3          	sll	a5,t5,a5
    4126:	00ef5733          	srl	a4,t5,a4
    412a:	00f037b3          	snez	a5,a5
    412e:	8f5d                	or	a4,a4,a5
    4130:	00a707b3          	add	a5,a4,a0
    4134:	8942                	mv	s2,a6
    4136:	bdc1                	j	4006 <__subsf3+0x198>
    4138:	0ff00793          	li	a5,255
    413c:	f0f804e3          	beq	a6,a5,4044 <__subsf3+0x1d6>
    4140:	040007b7          	lui	a5,0x4000
    4144:	00ff6f33          	or	t5,t5,a5
    4148:	47ed                	li	a5,27
    414a:	08e7c263          	blt	a5,a4,41ce <__subsf3+0x360>
    414e:	02000793          	li	a5,32
    4152:	8f99                	sub	a5,a5,a4
    4154:	00ff17b3          	sll	a5,t5,a5
    4158:	00ef5733          	srl	a4,t5,a4
    415c:	00f037b3          	snez	a5,a5
    4160:	8fd9                	or	a5,a5,a4
    4162:	40f507b3          	sub	a5,a0,a5
    4166:	8942                	mv	s2,a6
    4168:	84ae                	mv	s1,a1
    416a:	bb49                	j	3efc <__subsf3+0x8e>
    416c:	4785                	li	a5,1
    416e:	b369                	j	3ef8 <__subsf3+0x8a>
    4170:	060f0e63          	beqz	t5,41ec <__subsf3+0x37e>
    4174:	177d                	addi	a4,a4,-1
    4176:	00af07b3          	add	a5,t5,a0
    417a:	8942                	mv	s2,a6
    417c:	e80705e3          	beqz	a4,4006 <__subsf3+0x198>
    4180:	0ff00793          	li	a5,255
    4184:	f8f819e3          	bne	a6,a5,4116 <__subsf3+0x2a8>
    4188:	8e32                	mv	t3,a2
    418a:	bd7d                	j	4048 <__subsf3+0x1da>
    418c:	8e32                	mv	t3,a2
    418e:	8942                	mv	s2,a6
    4190:	84ae                	mv	s1,a1
    4192:	bf31                	j	40ae <__subsf3+0x240>
    4194:	ea0f09e3          	beqz	t5,4046 <__subsf3+0x1d8>
    4198:	ea0508e3          	beqz	a0,4048 <__subsf3+0x1da>
    419c:	bd45                	j	404c <__subsf3+0x1de>
    419e:	cd0d                	beqz	a0,41d8 <__subsf3+0x36a>
    41a0:	8eae                	mv	t4,a1
    41a2:	87b2                	mv	a5,a2
    41a4:	b3d9                	j	3f6a <__subsf3+0xfc>
    41a6:	0ff00793          	li	a5,255
    41aa:	f2f900e3          	beq	s2,a5,40ca <__subsf3+0x25c>
    41ae:	00af07b3          	add	a5,t5,a0
    41b2:	8385                	srli	a5,a5,0x1
    41b4:	b5fd                	j	40a2 <__subsf3+0x234>
    41b6:	41e50433          	sub	s0,a0,t5
    41ba:	84ae                	mv	s1,a1
    41bc:	bb81                	j	3f0c <__subsf3+0x9e>
    41be:	fc0f1de3          	bnez	t5,4198 <__subsf3+0x32a>
    41c2:	e80505e3          	beqz	a0,404c <__subsf3+0x1de>
    41c6:	84ae                	mv	s1,a1
    41c8:	bdbd                	j	4046 <__subsf3+0x1d8>
    41ca:	4785                	li	a5,1
    41cc:	bd25                	j	4004 <__subsf3+0x196>
    41ce:	4785                	li	a5,1
    41d0:	bf49                	j	4162 <__subsf3+0x2f4>
    41d2:	4901                	li	s2,0
    41d4:	ec0797e3          	bnez	a5,40a2 <__subsf3+0x234>
    41d8:	4e81                	li	t4,0
    41da:	4781                	li	a5,0
    41dc:	b379                	j	3f6a <__subsf3+0xfc>
    41de:	41e507b3          	sub	a5,a0,t5
    41e2:	8942                	mv	s2,a6
    41e4:	84ae                	mv	s1,a1
    41e6:	bb19                	j	3efc <__subsf3+0x8e>
    41e8:	87b2                	mv	a5,a2
    41ea:	b341                	j	3f6a <__subsf3+0xfc>
    41ec:	8e32                	mv	t3,a2
    41ee:	8942                	mv	s2,a6
    41f0:	bd7d                	j	40ae <__subsf3+0x240>
    41f2:	4705                	li	a4,1
    41f4:	bf35                	j	4130 <__subsf3+0x2c2>

000041f6 <__fixsfsi>:
__fixsfsi():
    41f6:	00800637          	lui	a2,0x800
    41fa:	01755713          	srli	a4,a0,0x17
    41fe:	fff60793          	addi	a5,a2,-1 # 7fffff <_data_lma+0x7fa10f>
    4202:	0ff77713          	andi	a4,a4,255
    4206:	07e00593          	li	a1,126
    420a:	00a7f6b3          	and	a3,a5,a0
    420e:	01f55793          	srli	a5,a0,0x1f
    4212:	00e5fc63          	bgeu	a1,a4,422a <__fixsfsi+0x34>
    4216:	09d00593          	li	a1,157
    421a:	00e5fa63          	bgeu	a1,a4,422e <__fixsfsi+0x38>
    421e:	80000537          	lui	a0,0x80000
    4222:	fff54513          	not	a0,a0
    4226:	953e                	add	a0,a0,a5
    4228:	8082                	ret
    422a:	4501                	li	a0,0
    422c:	8082                	ret
    422e:	09500593          	li	a1,149
    4232:	8ed1                	or	a3,a3,a2
    4234:	00e5cd63          	blt	a1,a4,424e <__fixsfsi+0x58>
    4238:	09600613          	li	a2,150
    423c:	40e60733          	sub	a4,a2,a4
    4240:	00e6d733          	srl	a4,a3,a4
    4244:	40e00533          	neg	a0,a4
    4248:	f3f5                	bnez	a5,422c <__fixsfsi+0x36>
    424a:	853a                	mv	a0,a4
    424c:	8082                	ret
    424e:	f6a70713          	addi	a4,a4,-150 # fbffff6a <_eusrstack+0xdbffaf6a>
    4252:	00e69733          	sll	a4,a3,a4
    4256:	b7fd                	j	4244 <__fixsfsi+0x4e>

00004258 <__floatsisf>:
__floatsisf():
    4258:	1141                	addi	sp,sp,-16
    425a:	c606                	sw	ra,12(sp)
    425c:	c422                	sw	s0,8(sp)
    425e:	c226                	sw	s1,4(sp)
    4260:	cd0d                	beqz	a0,429a <__floatsisf+0x42>
    4262:	41f55793          	srai	a5,a0,0x1f
    4266:	00a7c433          	xor	s0,a5,a0
    426a:	8c1d                	sub	s0,s0,a5
    426c:	84aa                	mv	s1,a0
    426e:	8522                	mv	a0,s0
    4270:	207d                	jal	431e <__clzsi2>
    4272:	09e00793          	li	a5,158
    4276:	40a78733          	sub	a4,a5,a0
    427a:	09600793          	li	a5,150
    427e:	80fd                	srli	s1,s1,0x1f
    4280:	02e7cc63          	blt	a5,a4,42b8 <__floatsisf+0x60>
    4284:	46a1                	li	a3,8
    4286:	0ff77793          	andi	a5,a4,255
    428a:	00a6d563          	bge	a3,a0,4294 <__floatsisf+0x3c>
    428e:	1561                	addi	a0,a0,-8
    4290:	00a41433          	sll	s0,s0,a0
    4294:	0426                	slli	s0,s0,0x9
    4296:	8025                	srli	s0,s0,0x9
    4298:	a021                	j	42a0 <__floatsisf+0x48>
    429a:	4481                	li	s1,0
    429c:	4781                	li	a5,0
    429e:	4401                	li	s0,0
    42a0:	0426                	slli	s0,s0,0x9
    42a2:	00945513          	srli	a0,s0,0x9
    42a6:	40b2                	lw	ra,12(sp)
    42a8:	4422                	lw	s0,8(sp)
    42aa:	07de                	slli	a5,a5,0x17
    42ac:	04fe                	slli	s1,s1,0x1f
    42ae:	8d5d                	or	a0,a0,a5
    42b0:	8d45                	or	a0,a0,s1
    42b2:	4492                	lw	s1,4(sp)
    42b4:	0141                	addi	sp,sp,16
    42b6:	8082                	ret
    42b8:	09900793          	li	a5,153
    42bc:	00e7dd63          	bge	a5,a4,42d6 <__floatsisf+0x7e>
    42c0:	01b50793          	addi	a5,a0,27 # 8000001b <_eusrstack+0x5fffb01b>
    42c4:	4695                	li	a3,5
    42c6:	00f417b3          	sll	a5,s0,a5
    42ca:	8e89                	sub	a3,a3,a0
    42cc:	00d45433          	srl	s0,s0,a3
    42d0:	00f037b3          	snez	a5,a5
    42d4:	8c5d                	or	s0,s0,a5
    42d6:	4795                	li	a5,5
    42d8:	00a7d663          	bge	a5,a0,42e4 <__floatsisf+0x8c>
    42dc:	ffb50793          	addi	a5,a0,-5
    42e0:	00f41433          	sll	s0,s0,a5
    42e4:	fc0006b7          	lui	a3,0xfc000
    42e8:	16fd                	addi	a3,a3,-1
    42ea:	00747793          	andi	a5,s0,7
    42ee:	00d47633          	and	a2,s0,a3
    42f2:	c385                	beqz	a5,4312 <__floatsisf+0xba>
    42f4:	00f47793          	andi	a5,s0,15
    42f8:	4591                	li	a1,4
    42fa:	00b78c63          	beq	a5,a1,4312 <__floatsisf+0xba>
    42fe:	0611                	addi	a2,a2,4
    4300:	00561793          	slli	a5,a2,0x5
    4304:	0007d763          	bgez	a5,4312 <__floatsisf+0xba>
    4308:	09f00793          	li	a5,159
    430c:	8e75                	and	a2,a2,a3
    430e:	40a78733          	sub	a4,a5,a0
    4312:	00661413          	slli	s0,a2,0x6
    4316:	8025                	srli	s0,s0,0x9
    4318:	0ff77793          	andi	a5,a4,255
    431c:	b751                	j	42a0 <__floatsisf+0x48>

0000431e <__clzsi2>:
__clzsi2():
    431e:	67c1                	lui	a5,0x10
    4320:	02f57e63          	bgeu	a0,a5,435c <__clzsi2+0x3e>
    4324:	0ff00793          	li	a5,255
    4328:	02000713          	li	a4,32
    432c:	00a7ec63          	bltu	a5,a0,4344 <__clzsi2+0x26>
    4330:	00002797          	auipc	a5,0x2
    4334:	9e478793          	addi	a5,a5,-1564 # 5d14 <__clz_tab>
    4338:	97aa                	add	a5,a5,a0
    433a:	0007c503          	lbu	a0,0(a5)
    433e:	40a70533          	sub	a0,a4,a0
    4342:	8082                	ret
    4344:	8121                	srli	a0,a0,0x8
    4346:	00002797          	auipc	a5,0x2
    434a:	9ce78793          	addi	a5,a5,-1586 # 5d14 <__clz_tab>
    434e:	97aa                	add	a5,a5,a0
    4350:	0007c503          	lbu	a0,0(a5)
    4354:	4761                	li	a4,24
    4356:	40a70533          	sub	a0,a4,a0
    435a:	8082                	ret
    435c:	010007b7          	lui	a5,0x1000
    4360:	00f56e63          	bltu	a0,a5,437c <__clzsi2+0x5e>
    4364:	8161                	srli	a0,a0,0x18
    4366:	00002797          	auipc	a5,0x2
    436a:	9ae78793          	addi	a5,a5,-1618 # 5d14 <__clz_tab>
    436e:	97aa                	add	a5,a5,a0
    4370:	0007c503          	lbu	a0,0(a5)
    4374:	4721                	li	a4,8
    4376:	40a70533          	sub	a0,a4,a0
    437a:	8082                	ret
    437c:	8141                	srli	a0,a0,0x10
    437e:	00002797          	auipc	a5,0x2
    4382:	99678793          	addi	a5,a5,-1642 # 5d14 <__clz_tab>
    4386:	97aa                	add	a5,a5,a0
    4388:	0007c503          	lbu	a0,0(a5)
    438c:	4741                	li	a4,16
    438e:	40a70533          	sub	a0,a4,a0
    4392:	8082                	ret

00004394 <__assert_func>:
__assert_func():
    4394:	82818793          	addi	a5,gp,-2008 # 20000098 <_impure_ptr>
    4398:	439c                	lw	a5,0(a5)
    439a:	1141                	addi	sp,sp,-16
    439c:	8832                	mv	a6,a2
    439e:	c606                	sw	ra,12(sp)
    43a0:	88aa                	mv	a7,a0
    43a2:	872e                	mv	a4,a1
    43a4:	47c8                	lw	a0,12(a5)
    43a6:	8636                	mv	a2,a3
    43a8:	00002797          	auipc	a5,0x2
    43ac:	a6c78793          	addi	a5,a5,-1428 # 5e14 <__clz_tab+0x100>
    43b0:	00081763          	bnez	a6,43be <__assert_func+0x2a>
    43b4:	00002797          	auipc	a5,0x2
    43b8:	a6c78793          	addi	a5,a5,-1428 # 5e20 <__clz_tab+0x10c>
    43bc:	883e                	mv	a6,a5
    43be:	86c6                	mv	a3,a7
    43c0:	00002597          	auipc	a1,0x2
    43c4:	a6458593          	addi	a1,a1,-1436 # 5e24 <__clz_tab+0x110>
    43c8:	2019                	jal	43ce <fiprintf>
    43ca:	0b3000ef          	jal	ra,4c7c <abort>

000043ce <fiprintf>:
fprintf():
    43ce:	7139                	addi	sp,sp,-64
    43d0:	d432                	sw	a2,40(sp)
    43d2:	d636                	sw	a3,44(sp)
    43d4:	da3e                	sw	a5,52(sp)
    43d6:	d83a                	sw	a4,48(sp)
    43d8:	dc42                	sw	a6,56(sp)
    43da:	de46                	sw	a7,60(sp)
    43dc:	82818793          	addi	a5,gp,-2008 # 20000098 <_impure_ptr>
    43e0:	862e                	mv	a2,a1
    43e2:	85aa                	mv	a1,a0
    43e4:	4388                	lw	a0,0(a5)
    43e6:	1034                	addi	a3,sp,40
    43e8:	ce06                	sw	ra,28(sp)
    43ea:	c636                	sw	a3,12(sp)
    43ec:	2895                	jal	4460 <_vfiprintf_r>
    43ee:	40f2                	lw	ra,28(sp)
    43f0:	6121                	addi	sp,sp,64
    43f2:	8082                	ret

000043f4 <__sfputc_r>:
__sfputc_r():
    43f4:	461c                	lw	a5,8(a2)
    43f6:	17fd                	addi	a5,a5,-1
    43f8:	c61c                	sw	a5,8(a2)
    43fa:	0007d963          	bgez	a5,440c <__sfputc_r+0x18>
    43fe:	4e18                	lw	a4,24(a2)
    4400:	00e7c563          	blt	a5,a4,440a <__sfputc_r+0x16>
    4404:	47a9                	li	a5,10
    4406:	00f59363          	bne	a1,a5,440c <__sfputc_r+0x18>
    440a:	a55d                	j	4ab0 <__swbuf_r>
    440c:	421c                	lw	a5,0(a2)
    440e:	852e                	mv	a0,a1
    4410:	00178713          	addi	a4,a5,1
    4414:	c218                	sw	a4,0(a2)
    4416:	00b78023          	sb	a1,0(a5)
    441a:	8082                	ret

0000441c <__sfputs_r>:
__sfputs_r():
    441c:	1101                	addi	sp,sp,-32
    441e:	cc22                	sw	s0,24(sp)
    4420:	ca26                	sw	s1,20(sp)
    4422:	c84a                	sw	s2,16(sp)
    4424:	c64e                	sw	s3,12(sp)
    4426:	c452                	sw	s4,8(sp)
    4428:	ce06                	sw	ra,28(sp)
    442a:	892a                	mv	s2,a0
    442c:	89ae                	mv	s3,a1
    442e:	8432                	mv	s0,a2
    4430:	00d604b3          	add	s1,a2,a3
    4434:	5a7d                	li	s4,-1
    4436:	00941463          	bne	s0,s1,443e <__sfputs_r+0x22>
    443a:	4501                	li	a0,0
    443c:	a811                	j	4450 <__sfputs_r+0x34>
    443e:	00044583          	lbu	a1,0(s0) # 4000000 <_data_lma+0x3ffa110>
    4442:	864e                	mv	a2,s3
    4444:	854a                	mv	a0,s2
    4446:	fafff0ef          	jal	ra,43f4 <__sfputc_r>
    444a:	0405                	addi	s0,s0,1
    444c:	ff4515e3          	bne	a0,s4,4436 <__sfputs_r+0x1a>
    4450:	40f2                	lw	ra,28(sp)
    4452:	4462                	lw	s0,24(sp)
    4454:	44d2                	lw	s1,20(sp)
    4456:	4942                	lw	s2,16(sp)
    4458:	49b2                	lw	s3,12(sp)
    445a:	4a22                	lw	s4,8(sp)
    445c:	6105                	addi	sp,sp,32
    445e:	8082                	ret

00004460 <_vfiprintf_r>:
_vfiprintf_r():
    4460:	7135                	addi	sp,sp,-160
    4462:	cd22                	sw	s0,152(sp)
    4464:	cb26                	sw	s1,148(sp)
    4466:	c94a                	sw	s2,144(sp)
    4468:	c74e                	sw	s3,140(sp)
    446a:	cf06                	sw	ra,156(sp)
    446c:	c552                	sw	s4,136(sp)
    446e:	c356                	sw	s5,132(sp)
    4470:	c15a                	sw	s6,128(sp)
    4472:	dede                	sw	s7,124(sp)
    4474:	dce2                	sw	s8,120(sp)
    4476:	dae6                	sw	s9,116(sp)
    4478:	89aa                	mv	s3,a0
    447a:	84ae                	mv	s1,a1
    447c:	8932                	mv	s2,a2
    447e:	8436                	mv	s0,a3
    4480:	c509                	beqz	a0,448a <_vfiprintf_r+0x2a>
    4482:	4d1c                	lw	a5,24(a0)
    4484:	e399                	bnez	a5,448a <_vfiprintf_r+0x2a>
    4486:	261000ef          	jal	ra,4ee6 <__sinit>
    448a:	00002797          	auipc	a5,0x2
    448e:	a2678793          	addi	a5,a5,-1498 # 5eb0 <__sf_fake_stdin>
    4492:	0cf49d63          	bne	s1,a5,456c <_vfiprintf_r+0x10c>
    4496:	0049a483          	lw	s1,4(s3)
    449a:	00c4d783          	lhu	a5,12(s1)
    449e:	8ba1                	andi	a5,a5,8
    44a0:	cbe5                	beqz	a5,4590 <_vfiprintf_r+0x130>
    44a2:	489c                	lw	a5,16(s1)
    44a4:	c7f5                	beqz	a5,4590 <_vfiprintf_r+0x130>
    44a6:	02000793          	li	a5,32
    44aa:	02f104a3          	sb	a5,41(sp)
    44ae:	03000793          	li	a5,48
    44b2:	d202                	sw	zero,36(sp)
    44b4:	02f10523          	sb	a5,42(sp)
    44b8:	c622                	sw	s0,12(sp)
    44ba:	02500b93          	li	s7,37
    44be:	00002a97          	auipc	s5,0x2
    44c2:	996a8a93          	addi	s5,s5,-1642 # 5e54 <__clz_tab+0x140>
    44c6:	4c05                	li	s8,1
    44c8:	4b29                	li	s6,10
    44ca:	844a                	mv	s0,s2
    44cc:	00044783          	lbu	a5,0(s0)
    44d0:	c399                	beqz	a5,44d6 <_vfiprintf_r+0x76>
    44d2:	0f779163          	bne	a5,s7,45b4 <_vfiprintf_r+0x154>
    44d6:	41240cb3          	sub	s9,s0,s2
    44da:	000c8e63          	beqz	s9,44f6 <_vfiprintf_r+0x96>
    44de:	86e6                	mv	a3,s9
    44e0:	864a                	mv	a2,s2
    44e2:	85a6                	mv	a1,s1
    44e4:	854e                	mv	a0,s3
    44e6:	f37ff0ef          	jal	ra,441c <__sfputs_r>
    44ea:	57fd                	li	a5,-1
    44ec:	1ef50863          	beq	a0,a5,46dc <_vfiprintf_r+0x27c>
    44f0:	5692                	lw	a3,36(sp)
    44f2:	96e6                	add	a3,a3,s9
    44f4:	d236                	sw	a3,36(sp)
    44f6:	00044783          	lbu	a5,0(s0)
    44fa:	1e078163          	beqz	a5,46dc <_vfiprintf_r+0x27c>
    44fe:	57fd                	li	a5,-1
    4500:	00140913          	addi	s2,s0,1
    4504:	c802                	sw	zero,16(sp)
    4506:	ce02                	sw	zero,28(sp)
    4508:	ca3e                	sw	a5,20(sp)
    450a:	cc02                	sw	zero,24(sp)
    450c:	040109a3          	sb	zero,83(sp)
    4510:	d482                	sw	zero,104(sp)
    4512:	00094583          	lbu	a1,0(s2)
    4516:	4615                	li	a2,5
    4518:	8556                	mv	a0,s5
    451a:	43b000ef          	jal	ra,5154 <memchr>
    451e:	00190413          	addi	s0,s2,1
    4522:	47c2                	lw	a5,16(sp)
    4524:	e951                	bnez	a0,45b8 <_vfiprintf_r+0x158>
    4526:	0107f713          	andi	a4,a5,16
    452a:	c709                	beqz	a4,4534 <_vfiprintf_r+0xd4>
    452c:	02000713          	li	a4,32
    4530:	04e109a3          	sb	a4,83(sp)
    4534:	0087f713          	andi	a4,a5,8
    4538:	c709                	beqz	a4,4542 <_vfiprintf_r+0xe2>
    453a:	02b00713          	li	a4,43
    453e:	04e109a3          	sb	a4,83(sp)
    4542:	00094683          	lbu	a3,0(s2)
    4546:	02a00713          	li	a4,42
    454a:	06e68f63          	beq	a3,a4,45c8 <_vfiprintf_r+0x168>
    454e:	47f2                	lw	a5,28(sp)
    4550:	844a                	mv	s0,s2
    4552:	4681                	li	a3,0
    4554:	4625                	li	a2,9
    4556:	00044703          	lbu	a4,0(s0)
    455a:	00140593          	addi	a1,s0,1
    455e:	fd070713          	addi	a4,a4,-48
    4562:	0ae67863          	bgeu	a2,a4,4612 <_vfiprintf_r+0x1b2>
    4566:	caad                	beqz	a3,45d8 <_vfiprintf_r+0x178>
    4568:	ce3e                	sw	a5,28(sp)
    456a:	a0bd                	j	45d8 <_vfiprintf_r+0x178>
    456c:	00002797          	auipc	a5,0x2
    4570:	96478793          	addi	a5,a5,-1692 # 5ed0 <__sf_fake_stdout>
    4574:	00f49563          	bne	s1,a5,457e <_vfiprintf_r+0x11e>
    4578:	0089a483          	lw	s1,8(s3)
    457c:	bf39                	j	449a <_vfiprintf_r+0x3a>
    457e:	00002797          	auipc	a5,0x2
    4582:	91278793          	addi	a5,a5,-1774 # 5e90 <__sf_fake_stderr>
    4586:	f0f49ae3          	bne	s1,a5,449a <_vfiprintf_r+0x3a>
    458a:	00c9a483          	lw	s1,12(s3)
    458e:	b731                	j	449a <_vfiprintf_r+0x3a>
    4590:	85a6                	mv	a1,s1
    4592:	854e                	mv	a0,s3
    4594:	2bf1                	jal	4b70 <__swsetup_r>
    4596:	d901                	beqz	a0,44a6 <_vfiprintf_r+0x46>
    4598:	557d                	li	a0,-1
    459a:	40fa                	lw	ra,156(sp)
    459c:	446a                	lw	s0,152(sp)
    459e:	44da                	lw	s1,148(sp)
    45a0:	494a                	lw	s2,144(sp)
    45a2:	49ba                	lw	s3,140(sp)
    45a4:	4a2a                	lw	s4,136(sp)
    45a6:	4a9a                	lw	s5,132(sp)
    45a8:	4b0a                	lw	s6,128(sp)
    45aa:	5bf6                	lw	s7,124(sp)
    45ac:	5c66                	lw	s8,120(sp)
    45ae:	5cd6                	lw	s9,116(sp)
    45b0:	610d                	addi	sp,sp,160
    45b2:	8082                	ret
    45b4:	0405                	addi	s0,s0,1
    45b6:	bf19                	j	44cc <_vfiprintf_r+0x6c>
    45b8:	41550533          	sub	a0,a0,s5
    45bc:	00ac1533          	sll	a0,s8,a0
    45c0:	8fc9                	or	a5,a5,a0
    45c2:	c83e                	sw	a5,16(sp)
    45c4:	8922                	mv	s2,s0
    45c6:	b7b1                	j	4512 <_vfiprintf_r+0xb2>
    45c8:	4732                	lw	a4,12(sp)
    45ca:	00470693          	addi	a3,a4,4
    45ce:	4318                	lw	a4,0(a4)
    45d0:	c636                	sw	a3,12(sp)
    45d2:	02074963          	bltz	a4,4604 <_vfiprintf_r+0x1a4>
    45d6:	ce3a                	sw	a4,28(sp)
    45d8:	00044703          	lbu	a4,0(s0)
    45dc:	02e00793          	li	a5,46
    45e0:	04f71f63          	bne	a4,a5,463e <_vfiprintf_r+0x1de>
    45e4:	00144703          	lbu	a4,1(s0)
    45e8:	02a00793          	li	a5,42
    45ec:	02f71b63          	bne	a4,a5,4622 <_vfiprintf_r+0x1c2>
    45f0:	47b2                	lw	a5,12(sp)
    45f2:	0409                	addi	s0,s0,2
    45f4:	00478713          	addi	a4,a5,4
    45f8:	439c                	lw	a5,0(a5)
    45fa:	c63a                	sw	a4,12(sp)
    45fc:	0207c163          	bltz	a5,461e <_vfiprintf_r+0x1be>
    4600:	ca3e                	sw	a5,20(sp)
    4602:	a835                	j	463e <_vfiprintf_r+0x1de>
    4604:	40e00733          	neg	a4,a4
    4608:	0027e793          	ori	a5,a5,2
    460c:	ce3a                	sw	a4,28(sp)
    460e:	c83e                	sw	a5,16(sp)
    4610:	b7e1                	j	45d8 <_vfiprintf_r+0x178>
    4612:	036787b3          	mul	a5,a5,s6
    4616:	4685                	li	a3,1
    4618:	842e                	mv	s0,a1
    461a:	97ba                	add	a5,a5,a4
    461c:	bf2d                	j	4556 <_vfiprintf_r+0xf6>
    461e:	57fd                	li	a5,-1
    4620:	b7c5                	j	4600 <_vfiprintf_r+0x1a0>
    4622:	0405                	addi	s0,s0,1
    4624:	ca02                	sw	zero,20(sp)
    4626:	4681                	li	a3,0
    4628:	4781                	li	a5,0
    462a:	4625                	li	a2,9
    462c:	00044703          	lbu	a4,0(s0)
    4630:	00140593          	addi	a1,s0,1
    4634:	fd070713          	addi	a4,a4,-48
    4638:	06e67863          	bgeu	a2,a4,46a8 <_vfiprintf_r+0x248>
    463c:	f2f1                	bnez	a3,4600 <_vfiprintf_r+0x1a0>
    463e:	00044583          	lbu	a1,0(s0)
    4642:	460d                	li	a2,3
    4644:	00002517          	auipc	a0,0x2
    4648:	81850513          	addi	a0,a0,-2024 # 5e5c <__clz_tab+0x148>
    464c:	309000ef          	jal	ra,5154 <memchr>
    4650:	cd11                	beqz	a0,466c <_vfiprintf_r+0x20c>
    4652:	00002797          	auipc	a5,0x2
    4656:	80a78793          	addi	a5,a5,-2038 # 5e5c <__clz_tab+0x148>
    465a:	8d1d                	sub	a0,a0,a5
    465c:	04000793          	li	a5,64
    4660:	00a797b3          	sll	a5,a5,a0
    4664:	4542                	lw	a0,16(sp)
    4666:	0405                	addi	s0,s0,1
    4668:	8d5d                	or	a0,a0,a5
    466a:	c82a                	sw	a0,16(sp)
    466c:	00044583          	lbu	a1,0(s0)
    4670:	4619                	li	a2,6
    4672:	00001517          	auipc	a0,0x1
    4676:	7ee50513          	addi	a0,a0,2030 # 5e60 <__clz_tab+0x14c>
    467a:	00140913          	addi	s2,s0,1
    467e:	02b10423          	sb	a1,40(sp)
    4682:	2d3000ef          	jal	ra,5154 <memchr>
    4686:	c13d                	beqz	a0,46ec <_vfiprintf_r+0x28c>
    4688:	ffffc797          	auipc	a5,0xffffc
    468c:	97878793          	addi	a5,a5,-1672 # 0 <_sinit>
    4690:	e795                	bnez	a5,46bc <_vfiprintf_r+0x25c>
    4692:	4742                	lw	a4,16(sp)
    4694:	47b2                	lw	a5,12(sp)
    4696:	10077713          	andi	a4,a4,256
    469a:	cf09                	beqz	a4,46b4 <_vfiprintf_r+0x254>
    469c:	0791                	addi	a5,a5,4
    469e:	c63e                	sw	a5,12(sp)
    46a0:	5792                	lw	a5,36(sp)
    46a2:	97d2                	add	a5,a5,s4
    46a4:	d23e                	sw	a5,36(sp)
    46a6:	b515                	j	44ca <_vfiprintf_r+0x6a>
    46a8:	036787b3          	mul	a5,a5,s6
    46ac:	4685                	li	a3,1
    46ae:	842e                	mv	s0,a1
    46b0:	97ba                	add	a5,a5,a4
    46b2:	bfad                	j	462c <_vfiprintf_r+0x1cc>
    46b4:	079d                	addi	a5,a5,7
    46b6:	9be1                	andi	a5,a5,-8
    46b8:	07a1                	addi	a5,a5,8
    46ba:	b7d5                	j	469e <_vfiprintf_r+0x23e>
    46bc:	0078                	addi	a4,sp,12
    46be:	00000697          	auipc	a3,0x0
    46c2:	d5e68693          	addi	a3,a3,-674 # 441c <__sfputs_r>
    46c6:	8626                	mv	a2,s1
    46c8:	080c                	addi	a1,sp,16
    46ca:	854e                	mv	a0,s3
    46cc:	00000097          	auipc	ra,0x0
    46d0:	000000e7          	jalr	zero # 0 <_sinit>
    46d4:	57fd                	li	a5,-1
    46d6:	8a2a                	mv	s4,a0
    46d8:	fcf514e3          	bne	a0,a5,46a0 <_vfiprintf_r+0x240>
    46dc:	00c4d783          	lhu	a5,12(s1)
    46e0:	0407f793          	andi	a5,a5,64
    46e4:	ea079ae3          	bnez	a5,4598 <_vfiprintf_r+0x138>
    46e8:	5512                	lw	a0,36(sp)
    46ea:	bd45                	j	459a <_vfiprintf_r+0x13a>
    46ec:	0078                	addi	a4,sp,12
    46ee:	00000697          	auipc	a3,0x0
    46f2:	d2e68693          	addi	a3,a3,-722 # 441c <__sfputs_r>
    46f6:	8626                	mv	a2,s1
    46f8:	080c                	addi	a1,sp,16
    46fa:	854e                	mv	a0,s3
    46fc:	2a01                	jal	480c <_printf_i>
    46fe:	bfd9                	j	46d4 <_vfiprintf_r+0x274>

00004700 <_printf_common>:
_printf_common():
    4700:	7179                	addi	sp,sp,-48
    4702:	ca56                	sw	s5,20(sp)
    4704:	499c                	lw	a5,16(a1)
    4706:	8aba                	mv	s5,a4
    4708:	4598                	lw	a4,8(a1)
    470a:	d422                	sw	s0,40(sp)
    470c:	d226                	sw	s1,36(sp)
    470e:	ce4e                	sw	s3,28(sp)
    4710:	cc52                	sw	s4,24(sp)
    4712:	d606                	sw	ra,44(sp)
    4714:	d04a                	sw	s2,32(sp)
    4716:	c85a                	sw	s6,16(sp)
    4718:	c65e                	sw	s7,12(sp)
    471a:	89aa                	mv	s3,a0
    471c:	842e                	mv	s0,a1
    471e:	84b2                	mv	s1,a2
    4720:	8a36                	mv	s4,a3
    4722:	00e7d363          	bge	a5,a4,4728 <_printf_common+0x28>
    4726:	87ba                	mv	a5,a4
    4728:	c09c                	sw	a5,0(s1)
    472a:	04344703          	lbu	a4,67(s0)
    472e:	c319                	beqz	a4,4734 <_printf_common+0x34>
    4730:	0785                	addi	a5,a5,1
    4732:	c09c                	sw	a5,0(s1)
    4734:	401c                	lw	a5,0(s0)
    4736:	0207f793          	andi	a5,a5,32
    473a:	c781                	beqz	a5,4742 <_printf_common+0x42>
    473c:	409c                	lw	a5,0(s1)
    473e:	0789                	addi	a5,a5,2
    4740:	c09c                	sw	a5,0(s1)
    4742:	00042903          	lw	s2,0(s0)
    4746:	00697913          	andi	s2,s2,6
    474a:	00091a63          	bnez	s2,475e <_printf_common+0x5e>
    474e:	01940b13          	addi	s6,s0,25
    4752:	5bfd                	li	s7,-1
    4754:	445c                	lw	a5,12(s0)
    4756:	4098                	lw	a4,0(s1)
    4758:	8f99                	sub	a5,a5,a4
    475a:	04f94c63          	blt	s2,a5,47b2 <_printf_common+0xb2>
    475e:	401c                	lw	a5,0(s0)
    4760:	04344683          	lbu	a3,67(s0)
    4764:	0207f793          	andi	a5,a5,32
    4768:	00d036b3          	snez	a3,a3
    476c:	eba5                	bnez	a5,47dc <_printf_common+0xdc>
    476e:	04340613          	addi	a2,s0,67
    4772:	85d2                	mv	a1,s4
    4774:	854e                	mv	a0,s3
    4776:	9a82                	jalr	s5
    4778:	57fd                	li	a5,-1
    477a:	04f50363          	beq	a0,a5,47c0 <_printf_common+0xc0>
    477e:	401c                	lw	a5,0(s0)
    4780:	4611                	li	a2,4
    4782:	4098                	lw	a4,0(s1)
    4784:	8b99                	andi	a5,a5,6
    4786:	4454                	lw	a3,12(s0)
    4788:	4481                	li	s1,0
    478a:	00c79763          	bne	a5,a2,4798 <_printf_common+0x98>
    478e:	40e684b3          	sub	s1,a3,a4
    4792:	0004d363          	bgez	s1,4798 <_printf_common+0x98>
    4796:	4481                	li	s1,0
    4798:	441c                	lw	a5,8(s0)
    479a:	4818                	lw	a4,16(s0)
    479c:	00f75463          	bge	a4,a5,47a4 <_printf_common+0xa4>
    47a0:	8f99                	sub	a5,a5,a4
    47a2:	94be                	add	s1,s1,a5
    47a4:	4901                	li	s2,0
    47a6:	0469                	addi	s0,s0,26
    47a8:	5b7d                	li	s6,-1
    47aa:	05249863          	bne	s1,s2,47fa <_printf_common+0xfa>
    47ae:	4501                	li	a0,0
    47b0:	a809                	j	47c2 <_printf_common+0xc2>
    47b2:	4685                	li	a3,1
    47b4:	865a                	mv	a2,s6
    47b6:	85d2                	mv	a1,s4
    47b8:	854e                	mv	a0,s3
    47ba:	9a82                	jalr	s5
    47bc:	01751e63          	bne	a0,s7,47d8 <_printf_common+0xd8>
    47c0:	557d                	li	a0,-1
    47c2:	50b2                	lw	ra,44(sp)
    47c4:	5422                	lw	s0,40(sp)
    47c6:	5492                	lw	s1,36(sp)
    47c8:	5902                	lw	s2,32(sp)
    47ca:	49f2                	lw	s3,28(sp)
    47cc:	4a62                	lw	s4,24(sp)
    47ce:	4ad2                	lw	s5,20(sp)
    47d0:	4b42                	lw	s6,16(sp)
    47d2:	4bb2                	lw	s7,12(sp)
    47d4:	6145                	addi	sp,sp,48
    47d6:	8082                	ret
    47d8:	0905                	addi	s2,s2,1
    47da:	bfad                	j	4754 <_printf_common+0x54>
    47dc:	00d40733          	add	a4,s0,a3
    47e0:	03000613          	li	a2,48
    47e4:	04c701a3          	sb	a2,67(a4)
    47e8:	04544703          	lbu	a4,69(s0)
    47ec:	00168793          	addi	a5,a3,1
    47f0:	97a2                	add	a5,a5,s0
    47f2:	0689                	addi	a3,a3,2
    47f4:	04e781a3          	sb	a4,67(a5)
    47f8:	bf9d                	j	476e <_printf_common+0x6e>
    47fa:	4685                	li	a3,1
    47fc:	8622                	mv	a2,s0
    47fe:	85d2                	mv	a1,s4
    4800:	854e                	mv	a0,s3
    4802:	9a82                	jalr	s5
    4804:	fb650ee3          	beq	a0,s6,47c0 <_printf_common+0xc0>
    4808:	0905                	addi	s2,s2,1
    480a:	b745                	j	47aa <_printf_common+0xaa>

0000480c <_printf_i>:
_printf_i():
    480c:	7179                	addi	sp,sp,-48
    480e:	d422                	sw	s0,40(sp)
    4810:	d226                	sw	s1,36(sp)
    4812:	d04a                	sw	s2,32(sp)
    4814:	ce4e                	sw	s3,28(sp)
    4816:	d606                	sw	ra,44(sp)
    4818:	cc52                	sw	s4,24(sp)
    481a:	ca56                	sw	s5,20(sp)
    481c:	c85a                	sw	s6,16(sp)
    481e:	89b6                	mv	s3,a3
    4820:	0185c683          	lbu	a3,24(a1)
    4824:	06e00793          	li	a5,110
    4828:	8932                	mv	s2,a2
    482a:	84aa                	mv	s1,a0
    482c:	842e                	mv	s0,a1
    482e:	04358613          	addi	a2,a1,67
    4832:	1ef68163          	beq	a3,a5,4a14 <_printf_i+0x208>
    4836:	06d7e263          	bltu	a5,a3,489a <_printf_i+0x8e>
    483a:	06300793          	li	a5,99
    483e:	0af68263          	beq	a3,a5,48e2 <_printf_i+0xd6>
    4842:	00d7ed63          	bltu	a5,a3,485c <_printf_i+0x50>
    4846:	1e068b63          	beqz	a3,4a3c <_printf_i+0x230>
    484a:	05800793          	li	a5,88
    484e:	16f68763          	beq	a3,a5,49bc <_printf_i+0x1b0>
    4852:	04240a93          	addi	s5,s0,66
    4856:	04d40123          	sb	a3,66(s0)
    485a:	a869                	j	48f4 <_printf_i+0xe8>
    485c:	06400793          	li	a5,100
    4860:	00f68663          	beq	a3,a5,486c <_printf_i+0x60>
    4864:	06900793          	li	a5,105
    4868:	fef695e3          	bne	a3,a5,4852 <_printf_i+0x46>
    486c:	401c                	lw	a5,0(s0)
    486e:	4308                	lw	a0,0(a4)
    4870:	0807f693          	andi	a3,a5,128
    4874:	00450593          	addi	a1,a0,4
    4878:	c2c1                	beqz	a3,48f8 <_printf_i+0xec>
    487a:	411c                	lw	a5,0(a0)
    487c:	c30c                	sw	a1,0(a4)
    487e:	0007d863          	bgez	a5,488e <_printf_i+0x82>
    4882:	02d00713          	li	a4,45
    4886:	40f007b3          	neg	a5,a5
    488a:	04e401a3          	sb	a4,67(s0)
    488e:	00001697          	auipc	a3,0x1
    4892:	5da68693          	addi	a3,a3,1498 # 5e68 <__clz_tab+0x154>
    4896:	4729                	li	a4,10
    4898:	a065                	j	4940 <_printf_i+0x134>
    489a:	07300793          	li	a5,115
    489e:	1af68363          	beq	a3,a5,4a44 <_printf_i+0x238>
    48a2:	00d7ef63          	bltu	a5,a3,48c0 <_printf_i+0xb4>
    48a6:	06f00793          	li	a5,111
    48aa:	04f68f63          	beq	a3,a5,4908 <_printf_i+0xfc>
    48ae:	07000793          	li	a5,112
    48b2:	faf690e3          	bne	a3,a5,4852 <_printf_i+0x46>
    48b6:	419c                	lw	a5,0(a1)
    48b8:	0207e793          	ori	a5,a5,32
    48bc:	c19c                	sw	a5,0(a1)
    48be:	a809                	j	48d0 <_printf_i+0xc4>
    48c0:	07500793          	li	a5,117
    48c4:	04f68263          	beq	a3,a5,4908 <_printf_i+0xfc>
    48c8:	07800793          	li	a5,120
    48cc:	f8f693e3          	bne	a3,a5,4852 <_printf_i+0x46>
    48d0:	07800793          	li	a5,120
    48d4:	04f402a3          	sb	a5,69(s0)
    48d8:	00001697          	auipc	a3,0x1
    48dc:	5a468693          	addi	a3,a3,1444 # 5e7c <__clz_tab+0x168>
    48e0:	a0e5                	j	49c8 <_printf_i+0x1bc>
    48e2:	431c                	lw	a5,0(a4)
    48e4:	04258a93          	addi	s5,a1,66
    48e8:	00478693          	addi	a3,a5,4
    48ec:	439c                	lw	a5,0(a5)
    48ee:	c314                	sw	a3,0(a4)
    48f0:	04f58123          	sb	a5,66(a1)
    48f4:	4785                	li	a5,1
    48f6:	a2b5                	j	4a62 <_printf_i+0x256>
    48f8:	0407f693          	andi	a3,a5,64
    48fc:	411c                	lw	a5,0(a0)
    48fe:	c30c                	sw	a1,0(a4)
    4900:	debd                	beqz	a3,487e <_printf_i+0x72>
    4902:	07c2                	slli	a5,a5,0x10
    4904:	87c1                	srai	a5,a5,0x10
    4906:	bfa5                	j	487e <_printf_i+0x72>
    4908:	400c                	lw	a1,0(s0)
    490a:	431c                	lw	a5,0(a4)
    490c:	0805f813          	andi	a6,a1,128
    4910:	00478513          	addi	a0,a5,4
    4914:	00080563          	beqz	a6,491e <_printf_i+0x112>
    4918:	c308                	sw	a0,0(a4)
    491a:	439c                	lw	a5,0(a5)
    491c:	a039                	j	492a <_printf_i+0x11e>
    491e:	0405f593          	andi	a1,a1,64
    4922:	c308                	sw	a0,0(a4)
    4924:	d9fd                	beqz	a1,491a <_printf_i+0x10e>
    4926:	0007d783          	lhu	a5,0(a5)
    492a:	06f00713          	li	a4,111
    492e:	0ce68b63          	beq	a3,a4,4a04 <_printf_i+0x1f8>
    4932:	00001697          	auipc	a3,0x1
    4936:	53668693          	addi	a3,a3,1334 # 5e68 <__clz_tab+0x154>
    493a:	4729                	li	a4,10
    493c:	040401a3          	sb	zero,67(s0)
    4940:	404c                	lw	a1,4(s0)
    4942:	c40c                	sw	a1,8(s0)
    4944:	0005c563          	bltz	a1,494e <_printf_i+0x142>
    4948:	4008                	lw	a0,0(s0)
    494a:	996d                	andi	a0,a0,-5
    494c:	c008                	sw	a0,0(s0)
    494e:	e399                	bnez	a5,4954 <_printf_i+0x148>
    4950:	8ab2                	mv	s5,a2
    4952:	cd91                	beqz	a1,496e <_printf_i+0x162>
    4954:	8ab2                	mv	s5,a2
    4956:	02e7f5b3          	remu	a1,a5,a4
    495a:	1afd                	addi	s5,s5,-1
    495c:	95b6                	add	a1,a1,a3
    495e:	0005c583          	lbu	a1,0(a1)
    4962:	00ba8023          	sb	a1,0(s5)
    4966:	02e7d5b3          	divu	a1,a5,a4
    496a:	0ae7f363          	bgeu	a5,a4,4a10 <_printf_i+0x204>
    496e:	47a1                	li	a5,8
    4970:	00f71e63          	bne	a4,a5,498c <_printf_i+0x180>
    4974:	401c                	lw	a5,0(s0)
    4976:	8b85                	andi	a5,a5,1
    4978:	cb91                	beqz	a5,498c <_printf_i+0x180>
    497a:	4058                	lw	a4,4(s0)
    497c:	481c                	lw	a5,16(s0)
    497e:	00e7c763          	blt	a5,a4,498c <_printf_i+0x180>
    4982:	03000793          	li	a5,48
    4986:	fefa8fa3          	sb	a5,-1(s5)
    498a:	1afd                	addi	s5,s5,-1
    498c:	41560633          	sub	a2,a2,s5
    4990:	c810                	sw	a2,16(s0)
    4992:	874e                	mv	a4,s3
    4994:	86ca                	mv	a3,s2
    4996:	0070                	addi	a2,sp,12
    4998:	85a2                	mv	a1,s0
    499a:	8526                	mv	a0,s1
    499c:	d65ff0ef          	jal	ra,4700 <_printf_common>
    49a0:	5a7d                	li	s4,-1
    49a2:	0d451463          	bne	a0,s4,4a6a <_printf_i+0x25e>
    49a6:	557d                	li	a0,-1
    49a8:	50b2                	lw	ra,44(sp)
    49aa:	5422                	lw	s0,40(sp)
    49ac:	5492                	lw	s1,36(sp)
    49ae:	5902                	lw	s2,32(sp)
    49b0:	49f2                	lw	s3,28(sp)
    49b2:	4a62                	lw	s4,24(sp)
    49b4:	4ad2                	lw	s5,20(sp)
    49b6:	4b42                	lw	s6,16(sp)
    49b8:	6145                	addi	sp,sp,48
    49ba:	8082                	ret
    49bc:	04d582a3          	sb	a3,69(a1)
    49c0:	00001697          	auipc	a3,0x1
    49c4:	4a868693          	addi	a3,a3,1192 # 5e68 <__clz_tab+0x154>
    49c8:	400c                	lw	a1,0(s0)
    49ca:	4308                	lw	a0,0(a4)
    49cc:	0805f813          	andi	a6,a1,128
    49d0:	411c                	lw	a5,0(a0)
    49d2:	0511                	addi	a0,a0,4
    49d4:	02080063          	beqz	a6,49f4 <_printf_i+0x1e8>
    49d8:	c308                	sw	a0,0(a4)
    49da:	0015f713          	andi	a4,a1,1
    49de:	c701                	beqz	a4,49e6 <_printf_i+0x1da>
    49e0:	0205e593          	ori	a1,a1,32
    49e4:	c00c                	sw	a1,0(s0)
    49e6:	4741                	li	a4,16
    49e8:	fbb1                	bnez	a5,493c <_printf_i+0x130>
    49ea:	400c                	lw	a1,0(s0)
    49ec:	fdf5f593          	andi	a1,a1,-33
    49f0:	c00c                	sw	a1,0(s0)
    49f2:	b7a9                	j	493c <_printf_i+0x130>
    49f4:	0405f813          	andi	a6,a1,64
    49f8:	c308                	sw	a0,0(a4)
    49fa:	fe0800e3          	beqz	a6,49da <_printf_i+0x1ce>
    49fe:	07c2                	slli	a5,a5,0x10
    4a00:	83c1                	srli	a5,a5,0x10
    4a02:	bfe1                	j	49da <_printf_i+0x1ce>
    4a04:	00001697          	auipc	a3,0x1
    4a08:	46468693          	addi	a3,a3,1124 # 5e68 <__clz_tab+0x154>
    4a0c:	4721                	li	a4,8
    4a0e:	b73d                	j	493c <_printf_i+0x130>
    4a10:	87ae                	mv	a5,a1
    4a12:	b791                	j	4956 <_printf_i+0x14a>
    4a14:	4194                	lw	a3,0(a1)
    4a16:	431c                	lw	a5,0(a4)
    4a18:	49cc                	lw	a1,20(a1)
    4a1a:	0806f813          	andi	a6,a3,128
    4a1e:	00478513          	addi	a0,a5,4
    4a22:	00080663          	beqz	a6,4a2e <_printf_i+0x222>
    4a26:	c308                	sw	a0,0(a4)
    4a28:	439c                	lw	a5,0(a5)
    4a2a:	c38c                	sw	a1,0(a5)
    4a2c:	a801                	j	4a3c <_printf_i+0x230>
    4a2e:	c308                	sw	a0,0(a4)
    4a30:	0406f693          	andi	a3,a3,64
    4a34:	439c                	lw	a5,0(a5)
    4a36:	daf5                	beqz	a3,4a2a <_printf_i+0x21e>
    4a38:	00b79023          	sh	a1,0(a5)
    4a3c:	00042823          	sw	zero,16(s0)
    4a40:	8ab2                	mv	s5,a2
    4a42:	bf81                	j	4992 <_printf_i+0x186>
    4a44:	431c                	lw	a5,0(a4)
    4a46:	41d0                	lw	a2,4(a1)
    4a48:	4581                	li	a1,0
    4a4a:	00478693          	addi	a3,a5,4
    4a4e:	c314                	sw	a3,0(a4)
    4a50:	0007aa83          	lw	s5,0(a5)
    4a54:	8556                	mv	a0,s5
    4a56:	2dfd                	jal	5154 <memchr>
    4a58:	c501                	beqz	a0,4a60 <_printf_i+0x254>
    4a5a:	41550533          	sub	a0,a0,s5
    4a5e:	c048                	sw	a0,4(s0)
    4a60:	405c                	lw	a5,4(s0)
    4a62:	c81c                	sw	a5,16(s0)
    4a64:	040401a3          	sb	zero,67(s0)
    4a68:	b72d                	j	4992 <_printf_i+0x186>
    4a6a:	4814                	lw	a3,16(s0)
    4a6c:	8656                	mv	a2,s5
    4a6e:	85ca                	mv	a1,s2
    4a70:	8526                	mv	a0,s1
    4a72:	9982                	jalr	s3
    4a74:	f34509e3          	beq	a0,s4,49a6 <_printf_i+0x19a>
    4a78:	401c                	lw	a5,0(s0)
    4a7a:	8b89                	andi	a5,a5,2
    4a7c:	e78d                	bnez	a5,4aa6 <_printf_i+0x29a>
    4a7e:	47b2                	lw	a5,12(sp)
    4a80:	4448                	lw	a0,12(s0)
    4a82:	f2f553e3          	bge	a0,a5,49a8 <_printf_i+0x19c>
    4a86:	853e                	mv	a0,a5
    4a88:	b705                	j	49a8 <_printf_i+0x19c>
    4a8a:	4685                	li	a3,1
    4a8c:	8656                	mv	a2,s5
    4a8e:	85ca                	mv	a1,s2
    4a90:	8526                	mv	a0,s1
    4a92:	9982                	jalr	s3
    4a94:	f16509e3          	beq	a0,s6,49a6 <_printf_i+0x19a>
    4a98:	0a05                	addi	s4,s4,1
    4a9a:	445c                	lw	a5,12(s0)
    4a9c:	4732                	lw	a4,12(sp)
    4a9e:	8f99                	sub	a5,a5,a4
    4aa0:	fefa45e3          	blt	s4,a5,4a8a <_printf_i+0x27e>
    4aa4:	bfe9                	j	4a7e <_printf_i+0x272>
    4aa6:	4a01                	li	s4,0
    4aa8:	01940a93          	addi	s5,s0,25
    4aac:	5b7d                	li	s6,-1
    4aae:	b7f5                	j	4a9a <_printf_i+0x28e>

00004ab0 <__swbuf_r>:
__swbuf_r():
    4ab0:	1101                	addi	sp,sp,-32
    4ab2:	cc22                	sw	s0,24(sp)
    4ab4:	ca26                	sw	s1,20(sp)
    4ab6:	c84a                	sw	s2,16(sp)
    4ab8:	ce06                	sw	ra,28(sp)
    4aba:	c64e                	sw	s3,12(sp)
    4abc:	84aa                	mv	s1,a0
    4abe:	892e                	mv	s2,a1
    4ac0:	8432                	mv	s0,a2
    4ac2:	c501                	beqz	a0,4aca <__swbuf_r+0x1a>
    4ac4:	4d1c                	lw	a5,24(a0)
    4ac6:	e391                	bnez	a5,4aca <__swbuf_r+0x1a>
    4ac8:	2939                	jal	4ee6 <__sinit>
    4aca:	00001797          	auipc	a5,0x1
    4ace:	3e678793          	addi	a5,a5,998 # 5eb0 <__sf_fake_stdin>
    4ad2:	06f41963          	bne	s0,a5,4b44 <__swbuf_r+0x94>
    4ad6:	40c0                	lw	s0,4(s1)
    4ad8:	4c1c                	lw	a5,24(s0)
    4ada:	c41c                	sw	a5,8(s0)
    4adc:	00c45783          	lhu	a5,12(s0)
    4ae0:	8ba1                	andi	a5,a5,8
    4ae2:	c3c9                	beqz	a5,4b64 <__swbuf_r+0xb4>
    4ae4:	481c                	lw	a5,16(s0)
    4ae6:	cfbd                	beqz	a5,4b64 <__swbuf_r+0xb4>
    4ae8:	481c                	lw	a5,16(s0)
    4aea:	4008                	lw	a0,0(s0)
    4aec:	0ff97993          	andi	s3,s2,255
    4af0:	0ff97913          	andi	s2,s2,255
    4af4:	8d1d                	sub	a0,a0,a5
    4af6:	485c                	lw	a5,20(s0)
    4af8:	00f54663          	blt	a0,a5,4b04 <__swbuf_r+0x54>
    4afc:	85a2                	mv	a1,s0
    4afe:	8526                	mv	a0,s1
    4b00:	24d9                	jal	4dc6 <_fflush_r>
    4b02:	e52d                	bnez	a0,4b6c <__swbuf_r+0xbc>
    4b04:	441c                	lw	a5,8(s0)
    4b06:	0505                	addi	a0,a0,1
    4b08:	17fd                	addi	a5,a5,-1
    4b0a:	c41c                	sw	a5,8(s0)
    4b0c:	401c                	lw	a5,0(s0)
    4b0e:	00178713          	addi	a4,a5,1
    4b12:	c018                	sw	a4,0(s0)
    4b14:	01378023          	sb	s3,0(a5)
    4b18:	485c                	lw	a5,20(s0)
    4b1a:	00a78963          	beq	a5,a0,4b2c <__swbuf_r+0x7c>
    4b1e:	00c45783          	lhu	a5,12(s0)
    4b22:	8b85                	andi	a5,a5,1
    4b24:	cb81                	beqz	a5,4b34 <__swbuf_r+0x84>
    4b26:	47a9                	li	a5,10
    4b28:	00f91663          	bne	s2,a5,4b34 <__swbuf_r+0x84>
    4b2c:	85a2                	mv	a1,s0
    4b2e:	8526                	mv	a0,s1
    4b30:	2c59                	jal	4dc6 <_fflush_r>
    4b32:	ed0d                	bnez	a0,4b6c <__swbuf_r+0xbc>
    4b34:	40f2                	lw	ra,28(sp)
    4b36:	4462                	lw	s0,24(sp)
    4b38:	854a                	mv	a0,s2
    4b3a:	44d2                	lw	s1,20(sp)
    4b3c:	4942                	lw	s2,16(sp)
    4b3e:	49b2                	lw	s3,12(sp)
    4b40:	6105                	addi	sp,sp,32
    4b42:	8082                	ret
    4b44:	00001797          	auipc	a5,0x1
    4b48:	38c78793          	addi	a5,a5,908 # 5ed0 <__sf_fake_stdout>
    4b4c:	00f41463          	bne	s0,a5,4b54 <__swbuf_r+0xa4>
    4b50:	4480                	lw	s0,8(s1)
    4b52:	b759                	j	4ad8 <__swbuf_r+0x28>
    4b54:	00001797          	auipc	a5,0x1
    4b58:	33c78793          	addi	a5,a5,828 # 5e90 <__sf_fake_stderr>
    4b5c:	f6f41ee3          	bne	s0,a5,4ad8 <__swbuf_r+0x28>
    4b60:	44c0                	lw	s0,12(s1)
    4b62:	bf9d                	j	4ad8 <__swbuf_r+0x28>
    4b64:	85a2                	mv	a1,s0
    4b66:	8526                	mv	a0,s1
    4b68:	2021                	jal	4b70 <__swsetup_r>
    4b6a:	dd3d                	beqz	a0,4ae8 <__swbuf_r+0x38>
    4b6c:	597d                	li	s2,-1
    4b6e:	b7d9                	j	4b34 <__swbuf_r+0x84>

00004b70 <__swsetup_r>:
__swsetup_r():
    4b70:	1141                	addi	sp,sp,-16
    4b72:	82818793          	addi	a5,gp,-2008 # 20000098 <_impure_ptr>
    4b76:	c226                	sw	s1,4(sp)
    4b78:	4384                	lw	s1,0(a5)
    4b7a:	c422                	sw	s0,8(sp)
    4b7c:	c04a                	sw	s2,0(sp)
    4b7e:	c606                	sw	ra,12(sp)
    4b80:	892a                	mv	s2,a0
    4b82:	842e                	mv	s0,a1
    4b84:	c489                	beqz	s1,4b8e <__swsetup_r+0x1e>
    4b86:	4c9c                	lw	a5,24(s1)
    4b88:	e399                	bnez	a5,4b8e <__swsetup_r+0x1e>
    4b8a:	8526                	mv	a0,s1
    4b8c:	2ea9                	jal	4ee6 <__sinit>
    4b8e:	00001797          	auipc	a5,0x1
    4b92:	32278793          	addi	a5,a5,802 # 5eb0 <__sf_fake_stdin>
    4b96:	02f41c63          	bne	s0,a5,4bce <__swsetup_r+0x5e>
    4b9a:	40c0                	lw	s0,4(s1)
    4b9c:	00c41703          	lh	a4,12(s0)
    4ba0:	01071793          	slli	a5,a4,0x10
    4ba4:	83c1                	srli	a5,a5,0x10
    4ba6:	0087f693          	andi	a3,a5,8
    4baa:	eeb5                	bnez	a3,4c26 <__swsetup_r+0xb6>
    4bac:	0107f693          	andi	a3,a5,16
    4bb0:	ee9d                	bnez	a3,4bee <__swsetup_r+0x7e>
    4bb2:	47a5                	li	a5,9
    4bb4:	00f92023          	sw	a5,0(s2)
    4bb8:	04076713          	ori	a4,a4,64
    4bbc:	00e41623          	sh	a4,12(s0)
    4bc0:	557d                	li	a0,-1
    4bc2:	40b2                	lw	ra,12(sp)
    4bc4:	4422                	lw	s0,8(sp)
    4bc6:	4492                	lw	s1,4(sp)
    4bc8:	4902                	lw	s2,0(sp)
    4bca:	0141                	addi	sp,sp,16
    4bcc:	8082                	ret
    4bce:	00001797          	auipc	a5,0x1
    4bd2:	30278793          	addi	a5,a5,770 # 5ed0 <__sf_fake_stdout>
    4bd6:	00f41463          	bne	s0,a5,4bde <__swsetup_r+0x6e>
    4bda:	4480                	lw	s0,8(s1)
    4bdc:	b7c1                	j	4b9c <__swsetup_r+0x2c>
    4bde:	00001797          	auipc	a5,0x1
    4be2:	2b278793          	addi	a5,a5,690 # 5e90 <__sf_fake_stderr>
    4be6:	faf41be3          	bne	s0,a5,4b9c <__swsetup_r+0x2c>
    4bea:	44c0                	lw	s0,12(s1)
    4bec:	bf45                	j	4b9c <__swsetup_r+0x2c>
    4bee:	8b91                	andi	a5,a5,4
    4bf0:	c78d                	beqz	a5,4c1a <__swsetup_r+0xaa>
    4bf2:	584c                	lw	a1,52(s0)
    4bf4:	c989                	beqz	a1,4c06 <__swsetup_r+0x96>
    4bf6:	04440793          	addi	a5,s0,68
    4bfa:	00f58463          	beq	a1,a5,4c02 <__swsetup_r+0x92>
    4bfe:	854a                	mv	a0,s2
    4c00:	23bd                	jal	516e <_free_r>
    4c02:	02042a23          	sw	zero,52(s0)
    4c06:	00c45783          	lhu	a5,12(s0)
    4c0a:	00042223          	sw	zero,4(s0)
    4c0e:	fdb7f793          	andi	a5,a5,-37
    4c12:	00f41623          	sh	a5,12(s0)
    4c16:	481c                	lw	a5,16(s0)
    4c18:	c01c                	sw	a5,0(s0)
    4c1a:	00c45783          	lhu	a5,12(s0)
    4c1e:	0087e793          	ori	a5,a5,8
    4c22:	00f41623          	sh	a5,12(s0)
    4c26:	481c                	lw	a5,16(s0)
    4c28:	ef81                	bnez	a5,4c40 <__swsetup_r+0xd0>
    4c2a:	00c45783          	lhu	a5,12(s0)
    4c2e:	20000713          	li	a4,512
    4c32:	2807f793          	andi	a5,a5,640
    4c36:	00e78563          	beq	a5,a4,4c40 <__swsetup_r+0xd0>
    4c3a:	85a2                	mv	a1,s0
    4c3c:	854a                	mv	a0,s2
    4c3e:	29a5                	jal	50b6 <__smakebuf_r>
    4c40:	00c45783          	lhu	a5,12(s0)
    4c44:	0017f713          	andi	a4,a5,1
    4c48:	c705                	beqz	a4,4c70 <__swsetup_r+0x100>
    4c4a:	485c                	lw	a5,20(s0)
    4c4c:	00042423          	sw	zero,8(s0)
    4c50:	40f007b3          	neg	a5,a5
    4c54:	cc1c                	sw	a5,24(s0)
    4c56:	481c                	lw	a5,16(s0)
    4c58:	4501                	li	a0,0
    4c5a:	f7a5                	bnez	a5,4bc2 <__swsetup_r+0x52>
    4c5c:	00c41783          	lh	a5,12(s0)
    4c60:	0807f713          	andi	a4,a5,128
    4c64:	df39                	beqz	a4,4bc2 <__swsetup_r+0x52>
    4c66:	0407e793          	ori	a5,a5,64
    4c6a:	00f41623          	sh	a5,12(s0)
    4c6e:	bf89                	j	4bc0 <__swsetup_r+0x50>
    4c70:	8b89                	andi	a5,a5,2
    4c72:	4701                	li	a4,0
    4c74:	e391                	bnez	a5,4c78 <__swsetup_r+0x108>
    4c76:	4858                	lw	a4,20(s0)
    4c78:	c418                	sw	a4,8(s0)
    4c7a:	bff1                	j	4c56 <__swsetup_r+0xe6>

00004c7c <abort>:
abort():
    4c7c:	1141                	addi	sp,sp,-16
    4c7e:	4519                	li	a0,6
    4c80:	c606                	sw	ra,12(sp)
    4c82:	25e5                	jal	536a <raise>
    4c84:	4505                	li	a0,1
    4c86:	14f000ef          	jal	ra,55d4 <_exit>

00004c8a <__sflush_r>:
__sflush_r():
    4c8a:	00c5d783          	lhu	a5,12(a1)
    4c8e:	1101                	addi	sp,sp,-32
    4c90:	cc22                	sw	s0,24(sp)
    4c92:	ca26                	sw	s1,20(sp)
    4c94:	ce06                	sw	ra,28(sp)
    4c96:	c84a                	sw	s2,16(sp)
    4c98:	c64e                	sw	s3,12(sp)
    4c9a:	0087f713          	andi	a4,a5,8
    4c9e:	84aa                	mv	s1,a0
    4ca0:	842e                	mv	s0,a1
    4ca2:	ef71                	bnez	a4,4d7e <__sflush_r+0xf4>
    4ca4:	41d8                	lw	a4,4(a1)
    4ca6:	00e04d63          	bgtz	a4,4cc0 <__sflush_r+0x36>
    4caa:	41b8                	lw	a4,64(a1)
    4cac:	00e04a63          	bgtz	a4,4cc0 <__sflush_r+0x36>
    4cb0:	4501                	li	a0,0
    4cb2:	40f2                	lw	ra,28(sp)
    4cb4:	4462                	lw	s0,24(sp)
    4cb6:	44d2                	lw	s1,20(sp)
    4cb8:	4942                	lw	s2,16(sp)
    4cba:	49b2                	lw	s3,12(sp)
    4cbc:	6105                	addi	sp,sp,32
    4cbe:	8082                	ret
    4cc0:	5458                	lw	a4,44(s0)
    4cc2:	d77d                	beqz	a4,4cb0 <__sflush_r+0x26>
    4cc4:	0004a903          	lw	s2,0(s1)
    4cc8:	01379693          	slli	a3,a5,0x13
    4ccc:	0004a023          	sw	zero,0(s1)
    4cd0:	0606dd63          	bgez	a3,4d4a <__sflush_r+0xc0>
    4cd4:	4870                	lw	a2,84(s0)
    4cd6:	00c45783          	lhu	a5,12(s0)
    4cda:	8b91                	andi	a5,a5,4
    4cdc:	c799                	beqz	a5,4cea <__sflush_r+0x60>
    4cde:	405c                	lw	a5,4(s0)
    4ce0:	8e1d                	sub	a2,a2,a5
    4ce2:	585c                	lw	a5,52(s0)
    4ce4:	c399                	beqz	a5,4cea <__sflush_r+0x60>
    4ce6:	403c                	lw	a5,64(s0)
    4ce8:	8e1d                	sub	a2,a2,a5
    4cea:	545c                	lw	a5,44(s0)
    4cec:	500c                	lw	a1,32(s0)
    4cee:	4681                	li	a3,0
    4cf0:	8526                	mv	a0,s1
    4cf2:	9782                	jalr	a5
    4cf4:	57fd                	li	a5,-1
    4cf6:	00c45703          	lhu	a4,12(s0)
    4cfa:	00f51d63          	bne	a0,a5,4d14 <__sflush_r+0x8a>
    4cfe:	4094                	lw	a3,0(s1)
    4d00:	47f5                	li	a5,29
    4d02:	06d7e863          	bltu	a5,a3,4d72 <__sflush_r+0xe8>
    4d06:	204007b7          	lui	a5,0x20400
    4d0a:	0785                	addi	a5,a5,1
    4d0c:	00d7d7b3          	srl	a5,a5,a3
    4d10:	8b85                	andi	a5,a5,1
    4d12:	c3a5                	beqz	a5,4d72 <__sflush_r+0xe8>
    4d14:	481c                	lw	a5,16(s0)
    4d16:	00042223          	sw	zero,4(s0)
    4d1a:	c01c                	sw	a5,0(s0)
    4d1c:	01371793          	slli	a5,a4,0x13
    4d20:	0007d863          	bgez	a5,4d30 <__sflush_r+0xa6>
    4d24:	57fd                	li	a5,-1
    4d26:	00f51463          	bne	a0,a5,4d2e <__sflush_r+0xa4>
    4d2a:	409c                	lw	a5,0(s1)
    4d2c:	e391                	bnez	a5,4d30 <__sflush_r+0xa6>
    4d2e:	c868                	sw	a0,84(s0)
    4d30:	584c                	lw	a1,52(s0)
    4d32:	0124a023          	sw	s2,0(s1)
    4d36:	ddad                	beqz	a1,4cb0 <__sflush_r+0x26>
    4d38:	04440793          	addi	a5,s0,68
    4d3c:	00f58463          	beq	a1,a5,4d44 <__sflush_r+0xba>
    4d40:	8526                	mv	a0,s1
    4d42:	2135                	jal	516e <_free_r>
    4d44:	02042a23          	sw	zero,52(s0)
    4d48:	b7a5                	j	4cb0 <__sflush_r+0x26>
    4d4a:	500c                	lw	a1,32(s0)
    4d4c:	4601                	li	a2,0
    4d4e:	4685                	li	a3,1
    4d50:	8526                	mv	a0,s1
    4d52:	9702                	jalr	a4
    4d54:	57fd                	li	a5,-1
    4d56:	862a                	mv	a2,a0
    4d58:	f6f51fe3          	bne	a0,a5,4cd6 <__sflush_r+0x4c>
    4d5c:	409c                	lw	a5,0(s1)
    4d5e:	dfa5                	beqz	a5,4cd6 <__sflush_r+0x4c>
    4d60:	4775                	li	a4,29
    4d62:	00e78563          	beq	a5,a4,4d6c <__sflush_r+0xe2>
    4d66:	4759                	li	a4,22
    4d68:	04e79463          	bne	a5,a4,4db0 <__sflush_r+0x126>
    4d6c:	0124a023          	sw	s2,0(s1)
    4d70:	b781                	j	4cb0 <__sflush_r+0x26>
    4d72:	04076713          	ori	a4,a4,64
    4d76:	00e41623          	sh	a4,12(s0)
    4d7a:	557d                	li	a0,-1
    4d7c:	bf1d                	j	4cb2 <__sflush_r+0x28>
    4d7e:	0105a983          	lw	s3,16(a1)
    4d82:	f20987e3          	beqz	s3,4cb0 <__sflush_r+0x26>
    4d86:	0005a903          	lw	s2,0(a1)
    4d8a:	8b8d                	andi	a5,a5,3
    4d8c:	0135a023          	sw	s3,0(a1)
    4d90:	41390933          	sub	s2,s2,s3
    4d94:	4701                	li	a4,0
    4d96:	e391                	bnez	a5,4d9a <__sflush_r+0x110>
    4d98:	49d8                	lw	a4,20(a1)
    4d9a:	c418                	sw	a4,8(s0)
    4d9c:	f1205ae3          	blez	s2,4cb0 <__sflush_r+0x26>
    4da0:	541c                	lw	a5,40(s0)
    4da2:	500c                	lw	a1,32(s0)
    4da4:	86ca                	mv	a3,s2
    4da6:	864e                	mv	a2,s3
    4da8:	8526                	mv	a0,s1
    4daa:	9782                	jalr	a5
    4dac:	00a04963          	bgtz	a0,4dbe <__sflush_r+0x134>
    4db0:	00c45783          	lhu	a5,12(s0)
    4db4:	0407e793          	ori	a5,a5,64
    4db8:	00f41623          	sh	a5,12(s0)
    4dbc:	bf7d                	j	4d7a <__sflush_r+0xf0>
    4dbe:	99aa                	add	s3,s3,a0
    4dc0:	40a90933          	sub	s2,s2,a0
    4dc4:	bfe1                	j	4d9c <__sflush_r+0x112>

00004dc6 <_fflush_r>:
_fflush_r():
    4dc6:	499c                	lw	a5,16(a1)
    4dc8:	c3a5                	beqz	a5,4e28 <_fflush_r+0x62>
    4dca:	1101                	addi	sp,sp,-32
    4dcc:	cc22                	sw	s0,24(sp)
    4dce:	ce06                	sw	ra,28(sp)
    4dd0:	842a                	mv	s0,a0
    4dd2:	c511                	beqz	a0,4dde <_fflush_r+0x18>
    4dd4:	4d1c                	lw	a5,24(a0)
    4dd6:	e781                	bnez	a5,4dde <_fflush_r+0x18>
    4dd8:	c62e                	sw	a1,12(sp)
    4dda:	2231                	jal	4ee6 <__sinit>
    4ddc:	45b2                	lw	a1,12(sp)
    4dde:	00001797          	auipc	a5,0x1
    4de2:	0d278793          	addi	a5,a5,210 # 5eb0 <__sf_fake_stdin>
    4de6:	00f59c63          	bne	a1,a5,4dfe <_fflush_r+0x38>
    4dea:	404c                	lw	a1,4(s0)
    4dec:	00c59783          	lh	a5,12(a1)
    4df0:	c79d                	beqz	a5,4e1e <_fflush_r+0x58>
    4df2:	8522                	mv	a0,s0
    4df4:	4462                	lw	s0,24(sp)
    4df6:	40f2                	lw	ra,28(sp)
    4df8:	6105                	addi	sp,sp,32
    4dfa:	e91ff06f          	j	4c8a <__sflush_r>
    4dfe:	00001797          	auipc	a5,0x1
    4e02:	0d278793          	addi	a5,a5,210 # 5ed0 <__sf_fake_stdout>
    4e06:	00f59463          	bne	a1,a5,4e0e <_fflush_r+0x48>
    4e0a:	440c                	lw	a1,8(s0)
    4e0c:	b7c5                	j	4dec <_fflush_r+0x26>
    4e0e:	00001797          	auipc	a5,0x1
    4e12:	08278793          	addi	a5,a5,130 # 5e90 <__sf_fake_stderr>
    4e16:	fcf59be3          	bne	a1,a5,4dec <_fflush_r+0x26>
    4e1a:	444c                	lw	a1,12(s0)
    4e1c:	bfc1                	j	4dec <_fflush_r+0x26>
    4e1e:	40f2                	lw	ra,28(sp)
    4e20:	4462                	lw	s0,24(sp)
    4e22:	4501                	li	a0,0
    4e24:	6105                	addi	sp,sp,32
    4e26:	8082                	ret
    4e28:	4501                	li	a0,0
    4e2a:	8082                	ret

00004e2c <std>:
std():
    4e2c:	1141                	addi	sp,sp,-16
    4e2e:	c422                	sw	s0,8(sp)
    4e30:	c606                	sw	ra,12(sp)
    4e32:	842a                	mv	s0,a0
    4e34:	00b51623          	sh	a1,12(a0)
    4e38:	00c51723          	sh	a2,14(a0)
    4e3c:	00052023          	sw	zero,0(a0)
    4e40:	00052223          	sw	zero,4(a0)
    4e44:	00052423          	sw	zero,8(a0)
    4e48:	06052223          	sw	zero,100(a0)
    4e4c:	00052823          	sw	zero,16(a0)
    4e50:	00052a23          	sw	zero,20(a0)
    4e54:	00052c23          	sw	zero,24(a0)
    4e58:	4621                	li	a2,8
    4e5a:	4581                	li	a1,0
    4e5c:	05c50513          	addi	a0,a0,92
    4e60:	ae0fb0ef          	jal	ra,140 <memset>
    4e64:	00000797          	auipc	a5,0x0
    4e68:	53e78793          	addi	a5,a5,1342 # 53a2 <__sread>
    4e6c:	d05c                	sw	a5,36(s0)
    4e6e:	00000797          	auipc	a5,0x0
    4e72:	56478793          	addi	a5,a5,1380 # 53d2 <__swrite>
    4e76:	d41c                	sw	a5,40(s0)
    4e78:	00000797          	auipc	a5,0x0
    4e7c:	5a878793          	addi	a5,a5,1448 # 5420 <__sseek>
    4e80:	d45c                	sw	a5,44(s0)
    4e82:	00000797          	auipc	a5,0x0
    4e86:	5d478793          	addi	a5,a5,1492 # 5456 <__sclose>
    4e8a:	d000                	sw	s0,32(s0)
    4e8c:	d81c                	sw	a5,48(s0)
    4e8e:	40b2                	lw	ra,12(sp)
    4e90:	4422                	lw	s0,8(sp)
    4e92:	0141                	addi	sp,sp,16
    4e94:	8082                	ret

00004e96 <_cleanup_r>:
_cleanup_r():
    4e96:	00000597          	auipc	a1,0x0
    4e9a:	f3058593          	addi	a1,a1,-208 # 4dc6 <_fflush_r>
    4e9e:	aa91                	j	4ff2 <_fwalk_reent>

00004ea0 <__sfmoreglue>:
__sfmoreglue():
    4ea0:	1141                	addi	sp,sp,-16
    4ea2:	c226                	sw	s1,4(sp)
    4ea4:	06800613          	li	a2,104
    4ea8:	fff58493          	addi	s1,a1,-1
    4eac:	02c484b3          	mul	s1,s1,a2
    4eb0:	c04a                	sw	s2,0(sp)
    4eb2:	892e                	mv	s2,a1
    4eb4:	c422                	sw	s0,8(sp)
    4eb6:	c606                	sw	ra,12(sp)
    4eb8:	07448593          	addi	a1,s1,116
    4ebc:	2e99                	jal	5212 <_malloc_r>
    4ebe:	842a                	mv	s0,a0
    4ec0:	cd01                	beqz	a0,4ed8 <__sfmoreglue+0x38>
    4ec2:	00052023          	sw	zero,0(a0)
    4ec6:	01252223          	sw	s2,4(a0)
    4eca:	0531                	addi	a0,a0,12
    4ecc:	c408                	sw	a0,8(s0)
    4ece:	06848613          	addi	a2,s1,104
    4ed2:	4581                	li	a1,0
    4ed4:	a6cfb0ef          	jal	ra,140 <memset>
    4ed8:	8522                	mv	a0,s0
    4eda:	40b2                	lw	ra,12(sp)
    4edc:	4422                	lw	s0,8(sp)
    4ede:	4492                	lw	s1,4(sp)
    4ee0:	4902                	lw	s2,0(sp)
    4ee2:	0141                	addi	sp,sp,16
    4ee4:	8082                	ret

00004ee6 <__sinit>:
__sinit():
    4ee6:	4d1c                	lw	a5,24(a0)
    4ee8:	e7a5                	bnez	a5,4f50 <__sinit+0x6a>
    4eea:	1141                	addi	sp,sp,-16
    4eec:	c606                	sw	ra,12(sp)
    4eee:	c422                	sw	s0,8(sp)
    4ef0:	00000797          	auipc	a5,0x0
    4ef4:	fa678793          	addi	a5,a5,-90 # 4e96 <_cleanup_r>
    4ef8:	d51c                	sw	a5,40(a0)
    4efa:	83418793          	addi	a5,gp,-1996 # 200000a4 <_global_impure_ptr>
    4efe:	439c                	lw	a5,0(a5)
    4f00:	04052423          	sw	zero,72(a0)
    4f04:	04052623          	sw	zero,76(a0)
    4f08:	04052823          	sw	zero,80(a0)
    4f0c:	00f51463          	bne	a0,a5,4f14 <__sinit+0x2e>
    4f10:	4785                	li	a5,1
    4f12:	cd1c                	sw	a5,24(a0)
    4f14:	842a                	mv	s0,a0
    4f16:	2835                	jal	4f52 <__sfp>
    4f18:	c048                	sw	a0,4(s0)
    4f1a:	8522                	mv	a0,s0
    4f1c:	281d                	jal	4f52 <__sfp>
    4f1e:	c408                	sw	a0,8(s0)
    4f20:	8522                	mv	a0,s0
    4f22:	2805                	jal	4f52 <__sfp>
    4f24:	c448                	sw	a0,12(s0)
    4f26:	4048                	lw	a0,4(s0)
    4f28:	4601                	li	a2,0
    4f2a:	4591                	li	a1,4
    4f2c:	f01ff0ef          	jal	ra,4e2c <std>
    4f30:	4408                	lw	a0,8(s0)
    4f32:	4605                	li	a2,1
    4f34:	45a5                	li	a1,9
    4f36:	ef7ff0ef          	jal	ra,4e2c <std>
    4f3a:	4448                	lw	a0,12(s0)
    4f3c:	4609                	li	a2,2
    4f3e:	45c9                	li	a1,18
    4f40:	eedff0ef          	jal	ra,4e2c <std>
    4f44:	4785                	li	a5,1
    4f46:	cc1c                	sw	a5,24(s0)
    4f48:	40b2                	lw	ra,12(sp)
    4f4a:	4422                	lw	s0,8(sp)
    4f4c:	0141                	addi	sp,sp,16
    4f4e:	8082                	ret
    4f50:	8082                	ret

00004f52 <__sfp>:
__sfp():
    4f52:	1141                	addi	sp,sp,-16
    4f54:	83418793          	addi	a5,gp,-1996 # 200000a4 <_global_impure_ptr>
    4f58:	c226                	sw	s1,4(sp)
    4f5a:	4384                	lw	s1,0(a5)
    4f5c:	c04a                	sw	s2,0(sp)
    4f5e:	c606                	sw	ra,12(sp)
    4f60:	4c9c                	lw	a5,24(s1)
    4f62:	c422                	sw	s0,8(sp)
    4f64:	892a                	mv	s2,a0
    4f66:	e781                	bnez	a5,4f6e <__sfp+0x1c>
    4f68:	8526                	mv	a0,s1
    4f6a:	f7dff0ef          	jal	ra,4ee6 <__sinit>
    4f6e:	04848493          	addi	s1,s1,72
    4f72:	4480                	lw	s0,8(s1)
    4f74:	40dc                	lw	a5,4(s1)
    4f76:	17fd                	addi	a5,a5,-1
    4f78:	0007d663          	bgez	a5,4f84 <__sfp+0x32>
    4f7c:	409c                	lw	a5,0(s1)
    4f7e:	cfb9                	beqz	a5,4fdc <__sfp+0x8a>
    4f80:	4084                	lw	s1,0(s1)
    4f82:	bfc5                	j	4f72 <__sfp+0x20>
    4f84:	00c41703          	lh	a4,12(s0)
    4f88:	e739                	bnez	a4,4fd6 <__sfp+0x84>
    4f8a:	77c1                	lui	a5,0xffff0
    4f8c:	0785                	addi	a5,a5,1
    4f8e:	06042223          	sw	zero,100(s0)
    4f92:	00042023          	sw	zero,0(s0)
    4f96:	00042223          	sw	zero,4(s0)
    4f9a:	00042423          	sw	zero,8(s0)
    4f9e:	c45c                	sw	a5,12(s0)
    4fa0:	00042823          	sw	zero,16(s0)
    4fa4:	00042a23          	sw	zero,20(s0)
    4fa8:	00042c23          	sw	zero,24(s0)
    4fac:	4621                	li	a2,8
    4fae:	4581                	li	a1,0
    4fb0:	05c40513          	addi	a0,s0,92
    4fb4:	98cfb0ef          	jal	ra,140 <memset>
    4fb8:	02042a23          	sw	zero,52(s0)
    4fbc:	02042c23          	sw	zero,56(s0)
    4fc0:	04042423          	sw	zero,72(s0)
    4fc4:	04042623          	sw	zero,76(s0)
    4fc8:	8522                	mv	a0,s0
    4fca:	40b2                	lw	ra,12(sp)
    4fcc:	4422                	lw	s0,8(sp)
    4fce:	4492                	lw	s1,4(sp)
    4fd0:	4902                	lw	s2,0(sp)
    4fd2:	0141                	addi	sp,sp,16
    4fd4:	8082                	ret
    4fd6:	06840413          	addi	s0,s0,104
    4fda:	bf71                	j	4f76 <__sfp+0x24>
    4fdc:	4591                	li	a1,4
    4fde:	854a                	mv	a0,s2
    4fe0:	ec1ff0ef          	jal	ra,4ea0 <__sfmoreglue>
    4fe4:	c088                	sw	a0,0(s1)
    4fe6:	fd49                	bnez	a0,4f80 <__sfp+0x2e>
    4fe8:	47b1                	li	a5,12
    4fea:	00f92023          	sw	a5,0(s2)
    4fee:	4401                	li	s0,0
    4ff0:	bfe1                	j	4fc8 <__sfp+0x76>

00004ff2 <_fwalk_reent>:
_fwalk_reent():
    4ff2:	7179                	addi	sp,sp,-48
    4ff4:	d422                	sw	s0,40(sp)
    4ff6:	d04a                	sw	s2,32(sp)
    4ff8:	cc52                	sw	s4,24(sp)
    4ffa:	ca56                	sw	s5,20(sp)
    4ffc:	c85a                	sw	s6,16(sp)
    4ffe:	c65e                	sw	s7,12(sp)
    5000:	d606                	sw	ra,44(sp)
    5002:	d226                	sw	s1,36(sp)
    5004:	ce4e                	sw	s3,28(sp)
    5006:	8a2a                	mv	s4,a0
    5008:	8aae                	mv	s5,a1
    500a:	04850413          	addi	s0,a0,72
    500e:	4901                	li	s2,0
    5010:	4b05                	li	s6,1
    5012:	5bfd                	li	s7,-1
    5014:	ec09                	bnez	s0,502e <_fwalk_reent+0x3c>
    5016:	50b2                	lw	ra,44(sp)
    5018:	5422                	lw	s0,40(sp)
    501a:	854a                	mv	a0,s2
    501c:	5492                	lw	s1,36(sp)
    501e:	5902                	lw	s2,32(sp)
    5020:	49f2                	lw	s3,28(sp)
    5022:	4a62                	lw	s4,24(sp)
    5024:	4ad2                	lw	s5,20(sp)
    5026:	4b42                	lw	s6,16(sp)
    5028:	4bb2                	lw	s7,12(sp)
    502a:	6145                	addi	sp,sp,48
    502c:	8082                	ret
    502e:	4404                	lw	s1,8(s0)
    5030:	00442983          	lw	s3,4(s0)
    5034:	19fd                	addi	s3,s3,-1
    5036:	0009d463          	bgez	s3,503e <_fwalk_reent+0x4c>
    503a:	4000                	lw	s0,0(s0)
    503c:	bfe1                	j	5014 <_fwalk_reent+0x22>
    503e:	00c4d783          	lhu	a5,12(s1)
    5042:	00fb7b63          	bgeu	s6,a5,5058 <_fwalk_reent+0x66>
    5046:	00e49783          	lh	a5,14(s1)
    504a:	01778763          	beq	a5,s7,5058 <_fwalk_reent+0x66>
    504e:	85a6                	mv	a1,s1
    5050:	8552                	mv	a0,s4
    5052:	9a82                	jalr	s5
    5054:	00a96933          	or	s2,s2,a0
    5058:	06848493          	addi	s1,s1,104
    505c:	bfe1                	j	5034 <_fwalk_reent+0x42>

0000505e <__swhatbuf_r>:
__swhatbuf_r():
    505e:	7119                	addi	sp,sp,-128
    5060:	daa6                	sw	s1,116(sp)
    5062:	84ae                	mv	s1,a1
    5064:	00e59583          	lh	a1,14(a1)
    5068:	dca2                	sw	s0,120(sp)
    506a:	de86                	sw	ra,124(sp)
    506c:	8432                	mv	s0,a2
    506e:	0005dc63          	bgez	a1,5086 <__swhatbuf_r+0x28>
    5072:	00c4d783          	lhu	a5,12(s1)
    5076:	0006a023          	sw	zero,0(a3)
    507a:	0807f793          	andi	a5,a5,128
    507e:	e39d                	bnez	a5,50a4 <__swhatbuf_r+0x46>
    5080:	40000793          	li	a5,1024
    5084:	a015                	j	50a8 <__swhatbuf_r+0x4a>
    5086:	0830                	addi	a2,sp,24
    5088:	c636                	sw	a3,12(sp)
    508a:	2125                	jal	54b2 <_fstat_r>
    508c:	46b2                	lw	a3,12(sp)
    508e:	fe0542e3          	bltz	a0,5072 <__swhatbuf_r+0x14>
    5092:	4772                	lw	a4,28(sp)
    5094:	67bd                	lui	a5,0xf
    5096:	8ff9                	and	a5,a5,a4
    5098:	7779                	lui	a4,0xffffe
    509a:	97ba                	add	a5,a5,a4
    509c:	0017b793          	seqz	a5,a5
    50a0:	c29c                	sw	a5,0(a3)
    50a2:	bff9                	j	5080 <__swhatbuf_r+0x22>
    50a4:	04000793          	li	a5,64
    50a8:	c01c                	sw	a5,0(s0)
    50aa:	50f6                	lw	ra,124(sp)
    50ac:	5466                	lw	s0,120(sp)
    50ae:	54d6                	lw	s1,116(sp)
    50b0:	4501                	li	a0,0
    50b2:	6109                	addi	sp,sp,128
    50b4:	8082                	ret

000050b6 <__smakebuf_r>:
__smakebuf_r():
    50b6:	00c5d783          	lhu	a5,12(a1)
    50ba:	1101                	addi	sp,sp,-32
    50bc:	cc22                	sw	s0,24(sp)
    50be:	ce06                	sw	ra,28(sp)
    50c0:	ca26                	sw	s1,20(sp)
    50c2:	c84a                	sw	s2,16(sp)
    50c4:	8b89                	andi	a5,a5,2
    50c6:	842e                	mv	s0,a1
    50c8:	cf89                	beqz	a5,50e2 <__smakebuf_r+0x2c>
    50ca:	04740793          	addi	a5,s0,71
    50ce:	c01c                	sw	a5,0(s0)
    50d0:	c81c                	sw	a5,16(s0)
    50d2:	4785                	li	a5,1
    50d4:	c85c                	sw	a5,20(s0)
    50d6:	40f2                	lw	ra,28(sp)
    50d8:	4462                	lw	s0,24(sp)
    50da:	44d2                	lw	s1,20(sp)
    50dc:	4942                	lw	s2,16(sp)
    50de:	6105                	addi	sp,sp,32
    50e0:	8082                	ret
    50e2:	0074                	addi	a3,sp,12
    50e4:	0030                	addi	a2,sp,8
    50e6:	84aa                	mv	s1,a0
    50e8:	f77ff0ef          	jal	ra,505e <__swhatbuf_r>
    50ec:	45a2                	lw	a1,8(sp)
    50ee:	892a                	mv	s2,a0
    50f0:	8526                	mv	a0,s1
    50f2:	2205                	jal	5212 <_malloc_r>
    50f4:	ed01                	bnez	a0,510c <__smakebuf_r+0x56>
    50f6:	00c41783          	lh	a5,12(s0)
    50fa:	2007f713          	andi	a4,a5,512
    50fe:	ff61                	bnez	a4,50d6 <__smakebuf_r+0x20>
    5100:	9bf1                	andi	a5,a5,-4
    5102:	0027e793          	ori	a5,a5,2
    5106:	00f41623          	sh	a5,12(s0)
    510a:	b7c1                	j	50ca <__smakebuf_r+0x14>
    510c:	00000797          	auipc	a5,0x0
    5110:	d8a78793          	addi	a5,a5,-630 # 4e96 <_cleanup_r>
    5114:	d49c                	sw	a5,40(s1)
    5116:	00c45783          	lhu	a5,12(s0)
    511a:	c008                	sw	a0,0(s0)
    511c:	c808                	sw	a0,16(s0)
    511e:	0807e793          	ori	a5,a5,128
    5122:	00f41623          	sh	a5,12(s0)
    5126:	47a2                	lw	a5,8(sp)
    5128:	c85c                	sw	a5,20(s0)
    512a:	47b2                	lw	a5,12(sp)
    512c:	cf89                	beqz	a5,5146 <__smakebuf_r+0x90>
    512e:	00e41583          	lh	a1,14(s0)
    5132:	8526                	mv	a0,s1
    5134:	2665                	jal	54dc <_isatty_r>
    5136:	c901                	beqz	a0,5146 <__smakebuf_r+0x90>
    5138:	00c45783          	lhu	a5,12(s0)
    513c:	9bf1                	andi	a5,a5,-4
    513e:	0017e793          	ori	a5,a5,1
    5142:	00f41623          	sh	a5,12(s0)
    5146:	00c45783          	lhu	a5,12(s0)
    514a:	00f96933          	or	s2,s2,a5
    514e:	01241623          	sh	s2,12(s0)
    5152:	b751                	j	50d6 <__smakebuf_r+0x20>

00005154 <memchr>:
memchr():
    5154:	0ff5f593          	andi	a1,a1,255
    5158:	962a                	add	a2,a2,a0
    515a:	00c51463          	bne	a0,a2,5162 <memchr+0xe>
    515e:	4501                	li	a0,0
    5160:	8082                	ret
    5162:	00054783          	lbu	a5,0(a0)
    5166:	feb78de3          	beq	a5,a1,5160 <memchr+0xc>
    516a:	0505                	addi	a0,a0,1
    516c:	b7fd                	j	515a <memchr+0x6>

0000516e <_free_r>:
_free_r():
    516e:	c1cd                	beqz	a1,5210 <_free_r+0xa2>
    5170:	ffc5a783          	lw	a5,-4(a1)
    5174:	1141                	addi	sp,sp,-16
    5176:	c422                	sw	s0,8(sp)
    5178:	c606                	sw	ra,12(sp)
    517a:	c226                	sw	s1,4(sp)
    517c:	ffc58413          	addi	s0,a1,-4
    5180:	0007d363          	bgez	a5,5186 <_free_r+0x18>
    5184:	943e                	add	s0,s0,a5
    5186:	84aa                	mv	s1,a0
    5188:	2665                	jal	5530 <__malloc_lock>
    518a:	8ec18793          	addi	a5,gp,-1812 # 2000015c <__malloc_free_list>
    518e:	439c                	lw	a5,0(a5)
    5190:	eb99                	bnez	a5,51a6 <_free_r+0x38>
    5192:	00042223          	sw	zero,4(s0)
    5196:	8e81a623          	sw	s0,-1812(gp) # 2000015c <__malloc_free_list>
    519a:	4422                	lw	s0,8(sp)
    519c:	40b2                	lw	ra,12(sp)
    519e:	8526                	mv	a0,s1
    51a0:	4492                	lw	s1,4(sp)
    51a2:	0141                	addi	sp,sp,16
    51a4:	a679                	j	5532 <__malloc_unlock>
    51a6:	00f47e63          	bgeu	s0,a5,51c2 <_free_r+0x54>
    51aa:	4014                	lw	a3,0(s0)
    51ac:	00d40733          	add	a4,s0,a3
    51b0:	00e79663          	bne	a5,a4,51bc <_free_r+0x4e>
    51b4:	4398                	lw	a4,0(a5)
    51b6:	43dc                	lw	a5,4(a5)
    51b8:	9736                	add	a4,a4,a3
    51ba:	c018                	sw	a4,0(s0)
    51bc:	c05c                	sw	a5,4(s0)
    51be:	bfe1                	j	5196 <_free_r+0x28>
    51c0:	87ba                	mv	a5,a4
    51c2:	43d8                	lw	a4,4(a5)
    51c4:	c319                	beqz	a4,51ca <_free_r+0x5c>
    51c6:	fee47de3          	bgeu	s0,a4,51c0 <_free_r+0x52>
    51ca:	4394                	lw	a3,0(a5)
    51cc:	00d78633          	add	a2,a5,a3
    51d0:	00861f63          	bne	a2,s0,51ee <_free_r+0x80>
    51d4:	4010                	lw	a2,0(s0)
    51d6:	96b2                	add	a3,a3,a2
    51d8:	c394                	sw	a3,0(a5)
    51da:	00d78633          	add	a2,a5,a3
    51de:	fac71ee3          	bne	a4,a2,519a <_free_r+0x2c>
    51e2:	4310                	lw	a2,0(a4)
    51e4:	4358                	lw	a4,4(a4)
    51e6:	96b2                	add	a3,a3,a2
    51e8:	c394                	sw	a3,0(a5)
    51ea:	c3d8                	sw	a4,4(a5)
    51ec:	b77d                	j	519a <_free_r+0x2c>
    51ee:	00c47563          	bgeu	s0,a2,51f8 <_free_r+0x8a>
    51f2:	47b1                	li	a5,12
    51f4:	c09c                	sw	a5,0(s1)
    51f6:	b755                	j	519a <_free_r+0x2c>
    51f8:	4010                	lw	a2,0(s0)
    51fa:	00c406b3          	add	a3,s0,a2
    51fe:	00d71663          	bne	a4,a3,520a <_free_r+0x9c>
    5202:	4314                	lw	a3,0(a4)
    5204:	4358                	lw	a4,4(a4)
    5206:	96b2                	add	a3,a3,a2
    5208:	c014                	sw	a3,0(s0)
    520a:	c058                	sw	a4,4(s0)
    520c:	c3c0                	sw	s0,4(a5)
    520e:	b771                	j	519a <_free_r+0x2c>
    5210:	8082                	ret

00005212 <_malloc_r>:
_malloc_r():
    5212:	1101                	addi	sp,sp,-32
    5214:	ca26                	sw	s1,20(sp)
    5216:	00358493          	addi	s1,a1,3
    521a:	98f1                	andi	s1,s1,-4
    521c:	ce06                	sw	ra,28(sp)
    521e:	cc22                	sw	s0,24(sp)
    5220:	c84a                	sw	s2,16(sp)
    5222:	c64e                	sw	s3,12(sp)
    5224:	04a1                	addi	s1,s1,8
    5226:	47b1                	li	a5,12
    5228:	04f4f163          	bgeu	s1,a5,526a <_malloc_r+0x58>
    522c:	44b1                	li	s1,12
    522e:	04b4e063          	bltu	s1,a1,526e <_malloc_r+0x5c>
    5232:	892a                	mv	s2,a0
    5234:	2cf5                	jal	5530 <__malloc_lock>
    5236:	8ec18793          	addi	a5,gp,-1812 # 2000015c <__malloc_free_list>
    523a:	4398                	lw	a4,0(a5)
    523c:	843a                	mv	s0,a4
    523e:	e031                	bnez	s0,5282 <_malloc_r+0x70>
    5240:	8f018793          	addi	a5,gp,-1808 # 20000160 <__malloc_sbrk_start>
    5244:	439c                	lw	a5,0(a5)
    5246:	e791                	bnez	a5,5252 <_malloc_r+0x40>
    5248:	4581                	li	a1,0
    524a:	854a                	mv	a0,s2
    524c:	2851                	jal	52e0 <_sbrk_r>
    524e:	8ea1a823          	sw	a0,-1808(gp) # 20000160 <__malloc_sbrk_start>
    5252:	85a6                	mv	a1,s1
    5254:	854a                	mv	a0,s2
    5256:	2069                	jal	52e0 <_sbrk_r>
    5258:	59fd                	li	s3,-1
    525a:	07351763          	bne	a0,s3,52c8 <_malloc_r+0xb6>
    525e:	47b1                	li	a5,12
    5260:	00f92023          	sw	a5,0(s2)
    5264:	854a                	mv	a0,s2
    5266:	24f1                	jal	5532 <__malloc_unlock>
    5268:	a029                	j	5272 <_malloc_r+0x60>
    526a:	fc04d2e3          	bgez	s1,522e <_malloc_r+0x1c>
    526e:	47b1                	li	a5,12
    5270:	c11c                	sw	a5,0(a0)
    5272:	4501                	li	a0,0
    5274:	40f2                	lw	ra,28(sp)
    5276:	4462                	lw	s0,24(sp)
    5278:	44d2                	lw	s1,20(sp)
    527a:	4942                	lw	s2,16(sp)
    527c:	49b2                	lw	s3,12(sp)
    527e:	6105                	addi	sp,sp,32
    5280:	8082                	ret
    5282:	401c                	lw	a5,0(s0)
    5284:	8f85                	sub	a5,a5,s1
    5286:	0207ce63          	bltz	a5,52c2 <_malloc_r+0xb0>
    528a:	46ad                	li	a3,11
    528c:	00f6f663          	bgeu	a3,a5,5298 <_malloc_r+0x86>
    5290:	c01c                	sw	a5,0(s0)
    5292:	943e                	add	s0,s0,a5
    5294:	c004                	sw	s1,0(s0)
    5296:	a031                	j	52a2 <_malloc_r+0x90>
    5298:	405c                	lw	a5,4(s0)
    529a:	02871263          	bne	a4,s0,52be <_malloc_r+0xac>
    529e:	8ef1a623          	sw	a5,-1812(gp) # 2000015c <__malloc_free_list>
    52a2:	854a                	mv	a0,s2
    52a4:	2479                	jal	5532 <__malloc_unlock>
    52a6:	00b40513          	addi	a0,s0,11
    52aa:	00440793          	addi	a5,s0,4
    52ae:	9961                	andi	a0,a0,-8
    52b0:	40f50733          	sub	a4,a0,a5
    52b4:	d361                	beqz	a4,5274 <_malloc_r+0x62>
    52b6:	943a                	add	s0,s0,a4
    52b8:	8f89                	sub	a5,a5,a0
    52ba:	c01c                	sw	a5,0(s0)
    52bc:	bf65                	j	5274 <_malloc_r+0x62>
    52be:	c35c                	sw	a5,4(a4)
    52c0:	b7cd                	j	52a2 <_malloc_r+0x90>
    52c2:	8722                	mv	a4,s0
    52c4:	4040                	lw	s0,4(s0)
    52c6:	bfa5                	j	523e <_malloc_r+0x2c>
    52c8:	00350413          	addi	s0,a0,3
    52cc:	9871                	andi	s0,s0,-4
    52ce:	fc8503e3          	beq	a0,s0,5294 <_malloc_r+0x82>
    52d2:	40a405b3          	sub	a1,s0,a0
    52d6:	854a                	mv	a0,s2
    52d8:	2021                	jal	52e0 <_sbrk_r>
    52da:	fb351de3          	bne	a0,s3,5294 <_malloc_r+0x82>
    52de:	b741                	j	525e <_malloc_r+0x4c>

000052e0 <_sbrk_r>:
_sbrk_r():
    52e0:	1141                	addi	sp,sp,-16
    52e2:	c422                	sw	s0,8(sp)
    52e4:	842a                	mv	s0,a0
    52e6:	852e                	mv	a0,a1
    52e8:	9401aa23          	sw	zero,-1708(gp) # 200001c4 <errno>
    52ec:	c606                	sw	ra,12(sp)
    52ee:	24d9                	jal	55b4 <_sbrk>
    52f0:	57fd                	li	a5,-1
    52f2:	00f51763          	bne	a0,a5,5300 <_sbrk_r+0x20>
    52f6:	95418793          	addi	a5,gp,-1708 # 200001c4 <errno>
    52fa:	439c                	lw	a5,0(a5)
    52fc:	c391                	beqz	a5,5300 <_sbrk_r+0x20>
    52fe:	c01c                	sw	a5,0(s0)
    5300:	40b2                	lw	ra,12(sp)
    5302:	4422                	lw	s0,8(sp)
    5304:	0141                	addi	sp,sp,16
    5306:	8082                	ret

00005308 <_raise_r>:
_raise_r():
    5308:	47fd                	li	a5,31
    530a:	00b7f663          	bgeu	a5,a1,5316 <_raise_r+0xe>
    530e:	47d9                	li	a5,22
    5310:	c11c                	sw	a5,0(a0)
    5312:	557d                	li	a0,-1
    5314:	8082                	ret
    5316:	417c                	lw	a5,68(a0)
    5318:	1101                	addi	sp,sp,-32
    531a:	cc22                	sw	s0,24(sp)
    531c:	ce06                	sw	ra,28(sp)
    531e:	862e                	mv	a2,a1
    5320:	842a                	mv	s0,a0
    5322:	c791                	beqz	a5,532e <_raise_r+0x26>
    5324:	00259713          	slli	a4,a1,0x2
    5328:	97ba                	add	a5,a5,a4
    532a:	4398                	lw	a4,0(a5)
    532c:	eb19                	bnez	a4,5342 <_raise_r+0x3a>
    532e:	8522                	mv	a0,s0
    5330:	c632                	sw	a2,12(sp)
    5332:	20bd                	jal	53a0 <_getpid_r>
    5334:	85aa                	mv	a1,a0
    5336:	8522                	mv	a0,s0
    5338:	4462                	lw	s0,24(sp)
    533a:	4632                	lw	a2,12(sp)
    533c:	40f2                	lw	ra,28(sp)
    533e:	6105                	addi	sp,sp,32
    5340:	a81d                	j	5376 <_kill_r>
    5342:	4685                	li	a3,1
    5344:	4501                	li	a0,0
    5346:	00d70863          	beq	a4,a3,5356 <_raise_r+0x4e>
    534a:	56fd                	li	a3,-1
    534c:	00d71963          	bne	a4,a3,535e <_raise_r+0x56>
    5350:	47d9                	li	a5,22
    5352:	c01c                	sw	a5,0(s0)
    5354:	4505                	li	a0,1
    5356:	40f2                	lw	ra,28(sp)
    5358:	4462                	lw	s0,24(sp)
    535a:	6105                	addi	sp,sp,32
    535c:	8082                	ret
    535e:	852e                	mv	a0,a1
    5360:	0007a023          	sw	zero,0(a5)
    5364:	9702                	jalr	a4
    5366:	4501                	li	a0,0
    5368:	b7fd                	j	5356 <_raise_r+0x4e>

0000536a <raise>:
raise():
    536a:	82818793          	addi	a5,gp,-2008 # 20000098 <_impure_ptr>
    536e:	85aa                	mv	a1,a0
    5370:	4388                	lw	a0,0(a5)
    5372:	f97ff06f          	j	5308 <_raise_r>

00005376 <_kill_r>:
_kill_r():
    5376:	1141                	addi	sp,sp,-16
    5378:	c422                	sw	s0,8(sp)
    537a:	842a                	mv	s0,a0
    537c:	852e                	mv	a0,a1
    537e:	85b2                	mv	a1,a2
    5380:	9401aa23          	sw	zero,-1708(gp) # 200001c4 <errno>
    5384:	c606                	sw	ra,12(sp)
    5386:	2429                	jal	5590 <_kill>
    5388:	57fd                	li	a5,-1
    538a:	00f51763          	bne	a0,a5,5398 <_kill_r+0x22>
    538e:	95418793          	addi	a5,gp,-1708 # 200001c4 <errno>
    5392:	439c                	lw	a5,0(a5)
    5394:	c391                	beqz	a5,5398 <_kill_r+0x22>
    5396:	c01c                	sw	a5,0(s0)
    5398:	40b2                	lw	ra,12(sp)
    539a:	4422                	lw	s0,8(sp)
    539c:	0141                	addi	sp,sp,16
    539e:	8082                	ret

000053a0 <_getpid_r>:
_getpid_r():
    53a0:	aae1                	j	5578 <_getpid>

000053a2 <__sread>:
__sread():
    53a2:	1141                	addi	sp,sp,-16
    53a4:	c422                	sw	s0,8(sp)
    53a6:	842e                	mv	s0,a1
    53a8:	00e59583          	lh	a1,14(a1)
    53ac:	c606                	sw	ra,12(sp)
    53ae:	2259                	jal	5534 <_read_r>
    53b0:	00054963          	bltz	a0,53c2 <__sread+0x20>
    53b4:	487c                	lw	a5,84(s0)
    53b6:	97aa                	add	a5,a5,a0
    53b8:	c87c                	sw	a5,84(s0)
    53ba:	40b2                	lw	ra,12(sp)
    53bc:	4422                	lw	s0,8(sp)
    53be:	0141                	addi	sp,sp,16
    53c0:	8082                	ret
    53c2:	00c45783          	lhu	a5,12(s0)
    53c6:	777d                	lui	a4,0xfffff
    53c8:	177d                	addi	a4,a4,-1
    53ca:	8ff9                	and	a5,a5,a4
    53cc:	00f41623          	sh	a5,12(s0)
    53d0:	b7ed                	j	53ba <__sread+0x18>

000053d2 <__swrite>:
__swrite():
    53d2:	00c5d783          	lhu	a5,12(a1)
    53d6:	1101                	addi	sp,sp,-32
    53d8:	cc22                	sw	s0,24(sp)
    53da:	ca26                	sw	s1,20(sp)
    53dc:	c84a                	sw	s2,16(sp)
    53de:	c64e                	sw	s3,12(sp)
    53e0:	ce06                	sw	ra,28(sp)
    53e2:	1007f793          	andi	a5,a5,256
    53e6:	84aa                	mv	s1,a0
    53e8:	842e                	mv	s0,a1
    53ea:	8932                	mv	s2,a2
    53ec:	89b6                	mv	s3,a3
    53ee:	c791                	beqz	a5,53fa <__swrite+0x28>
    53f0:	00e59583          	lh	a1,14(a1)
    53f4:	4689                	li	a3,2
    53f6:	4601                	li	a2,0
    53f8:	2231                	jal	5504 <_lseek_r>
    53fa:	00c45783          	lhu	a5,12(s0)
    53fe:	777d                	lui	a4,0xfffff
    5400:	177d                	addi	a4,a4,-1
    5402:	8ff9                	and	a5,a5,a4
    5404:	00f41623          	sh	a5,12(s0)
    5408:	00e41583          	lh	a1,14(s0)
    540c:	4462                	lw	s0,24(sp)
    540e:	40f2                	lw	ra,28(sp)
    5410:	86ce                	mv	a3,s3
    5412:	864a                	mv	a2,s2
    5414:	49b2                	lw	s3,12(sp)
    5416:	4942                	lw	s2,16(sp)
    5418:	8526                	mv	a0,s1
    541a:	44d2                	lw	s1,20(sp)
    541c:	6105                	addi	sp,sp,32
    541e:	a83d                	j	545c <_write_r>

00005420 <__sseek>:
__sseek():
    5420:	1141                	addi	sp,sp,-16
    5422:	c422                	sw	s0,8(sp)
    5424:	842e                	mv	s0,a1
    5426:	00e59583          	lh	a1,14(a1)
    542a:	c606                	sw	ra,12(sp)
    542c:	28e1                	jal	5504 <_lseek_r>
    542e:	57fd                	li	a5,-1
    5430:	00c45703          	lhu	a4,12(s0)
    5434:	00f51b63          	bne	a0,a5,544a <__sseek+0x2a>
    5438:	77fd                	lui	a5,0xfffff
    543a:	17fd                	addi	a5,a5,-1
    543c:	8ff9                	and	a5,a5,a4
    543e:	00f41623          	sh	a5,12(s0)
    5442:	40b2                	lw	ra,12(sp)
    5444:	4422                	lw	s0,8(sp)
    5446:	0141                	addi	sp,sp,16
    5448:	8082                	ret
    544a:	6785                	lui	a5,0x1
    544c:	8fd9                	or	a5,a5,a4
    544e:	00f41623          	sh	a5,12(s0)
    5452:	c868                	sw	a0,84(s0)
    5454:	b7fd                	j	5442 <__sseek+0x22>

00005456 <__sclose>:
__sclose():
    5456:	00e59583          	lh	a1,14(a1)
    545a:	a805                	j	548a <_close_r>

0000545c <_write_r>:
_write_r():
    545c:	1141                	addi	sp,sp,-16
    545e:	c422                	sw	s0,8(sp)
    5460:	842a                	mv	s0,a0
    5462:	852e                	mv	a0,a1
    5464:	85b2                	mv	a1,a2
    5466:	8636                	mv	a2,a3
    5468:	9401aa23          	sw	zero,-1708(gp) # 200001c4 <errno>
    546c:	c606                	sw	ra,12(sp)
    546e:	e74fd0ef          	jal	ra,2ae2 <_write>
    5472:	57fd                	li	a5,-1
    5474:	00f51763          	bne	a0,a5,5482 <_write_r+0x26>
    5478:	95418793          	addi	a5,gp,-1708 # 200001c4 <errno>
    547c:	439c                	lw	a5,0(a5)
    547e:	c391                	beqz	a5,5482 <_write_r+0x26>
    5480:	c01c                	sw	a5,0(s0)
    5482:	40b2                	lw	ra,12(sp)
    5484:	4422                	lw	s0,8(sp)
    5486:	0141                	addi	sp,sp,16
    5488:	8082                	ret

0000548a <_close_r>:
_close_r():
    548a:	1141                	addi	sp,sp,-16
    548c:	c422                	sw	s0,8(sp)
    548e:	842a                	mv	s0,a0
    5490:	852e                	mv	a0,a1
    5492:	9401aa23          	sw	zero,-1708(gp) # 200001c4 <errno>
    5496:	c606                	sw	ra,12(sp)
    5498:	20e1                	jal	5560 <_close>
    549a:	57fd                	li	a5,-1
    549c:	00f51763          	bne	a0,a5,54aa <_close_r+0x20>
    54a0:	95418793          	addi	a5,gp,-1708 # 200001c4 <errno>
    54a4:	439c                	lw	a5,0(a5)
    54a6:	c391                	beqz	a5,54aa <_close_r+0x20>
    54a8:	c01c                	sw	a5,0(s0)
    54aa:	40b2                	lw	ra,12(sp)
    54ac:	4422                	lw	s0,8(sp)
    54ae:	0141                	addi	sp,sp,16
    54b0:	8082                	ret

000054b2 <_fstat_r>:
_fstat_r():
    54b2:	1141                	addi	sp,sp,-16
    54b4:	c422                	sw	s0,8(sp)
    54b6:	842a                	mv	s0,a0
    54b8:	852e                	mv	a0,a1
    54ba:	85b2                	mv	a1,a2
    54bc:	9401aa23          	sw	zero,-1708(gp) # 200001c4 <errno>
    54c0:	c606                	sw	ra,12(sp)
    54c2:	206d                	jal	556c <_fstat>
    54c4:	57fd                	li	a5,-1
    54c6:	00f51763          	bne	a0,a5,54d4 <_fstat_r+0x22>
    54ca:	95418793          	addi	a5,gp,-1708 # 200001c4 <errno>
    54ce:	439c                	lw	a5,0(a5)
    54d0:	c391                	beqz	a5,54d4 <_fstat_r+0x22>
    54d2:	c01c                	sw	a5,0(s0)
    54d4:	40b2                	lw	ra,12(sp)
    54d6:	4422                	lw	s0,8(sp)
    54d8:	0141                	addi	sp,sp,16
    54da:	8082                	ret

000054dc <_isatty_r>:
_isatty_r():
    54dc:	1141                	addi	sp,sp,-16
    54de:	c422                	sw	s0,8(sp)
    54e0:	842a                	mv	s0,a0
    54e2:	852e                	mv	a0,a1
    54e4:	9401aa23          	sw	zero,-1708(gp) # 200001c4 <errno>
    54e8:	c606                	sw	ra,12(sp)
    54ea:	2869                	jal	5584 <_isatty>
    54ec:	57fd                	li	a5,-1
    54ee:	00f51763          	bne	a0,a5,54fc <_isatty_r+0x20>
    54f2:	95418793          	addi	a5,gp,-1708 # 200001c4 <errno>
    54f6:	439c                	lw	a5,0(a5)
    54f8:	c391                	beqz	a5,54fc <_isatty_r+0x20>
    54fa:	c01c                	sw	a5,0(s0)
    54fc:	40b2                	lw	ra,12(sp)
    54fe:	4422                	lw	s0,8(sp)
    5500:	0141                	addi	sp,sp,16
    5502:	8082                	ret

00005504 <_lseek_r>:
_lseek_r():
    5504:	1141                	addi	sp,sp,-16
    5506:	c422                	sw	s0,8(sp)
    5508:	842a                	mv	s0,a0
    550a:	852e                	mv	a0,a1
    550c:	85b2                	mv	a1,a2
    550e:	8636                	mv	a2,a3
    5510:	9401aa23          	sw	zero,-1708(gp) # 200001c4 <errno>
    5514:	c606                	sw	ra,12(sp)
    5516:	2059                	jal	559c <_lseek>
    5518:	57fd                	li	a5,-1
    551a:	00f51763          	bne	a0,a5,5528 <_lseek_r+0x24>
    551e:	95418793          	addi	a5,gp,-1708 # 200001c4 <errno>
    5522:	439c                	lw	a5,0(a5)
    5524:	c391                	beqz	a5,5528 <_lseek_r+0x24>
    5526:	c01c                	sw	a5,0(s0)
    5528:	40b2                	lw	ra,12(sp)
    552a:	4422                	lw	s0,8(sp)
    552c:	0141                	addi	sp,sp,16
    552e:	8082                	ret

00005530 <__malloc_lock>:
__malloc_lock():
    5530:	8082                	ret

00005532 <__malloc_unlock>:
__malloc_unlock():
    5532:	8082                	ret

00005534 <_read_r>:
_read_r():
    5534:	1141                	addi	sp,sp,-16
    5536:	c422                	sw	s0,8(sp)
    5538:	842a                	mv	s0,a0
    553a:	852e                	mv	a0,a1
    553c:	85b2                	mv	a1,a2
    553e:	8636                	mv	a2,a3
    5540:	9401aa23          	sw	zero,-1708(gp) # 200001c4 <errno>
    5544:	c606                	sw	ra,12(sp)
    5546:	208d                	jal	55a8 <_read>
    5548:	57fd                	li	a5,-1
    554a:	00f51763          	bne	a0,a5,5558 <_read_r+0x24>
    554e:	95418793          	addi	a5,gp,-1708 # 200001c4 <errno>
    5552:	439c                	lw	a5,0(a5)
    5554:	c391                	beqz	a5,5558 <_read_r+0x24>
    5556:	c01c                	sw	a5,0(s0)
    5558:	40b2                	lw	ra,12(sp)
    555a:	4422                	lw	s0,8(sp)
    555c:	0141                	addi	sp,sp,16
    555e:	8082                	ret

00005560 <_close>:
_close():
    5560:	05800793          	li	a5,88
    5564:	94f1aa23          	sw	a5,-1708(gp) # 200001c4 <errno>
    5568:	557d                	li	a0,-1
    556a:	8082                	ret

0000556c <_fstat>:
_fstat():
    556c:	05800793          	li	a5,88
    5570:	94f1aa23          	sw	a5,-1708(gp) # 200001c4 <errno>
    5574:	557d                	li	a0,-1
    5576:	8082                	ret

00005578 <_getpid>:
_getpid():
    5578:	05800793          	li	a5,88
    557c:	94f1aa23          	sw	a5,-1708(gp) # 200001c4 <errno>
    5580:	557d                	li	a0,-1
    5582:	8082                	ret

00005584 <_isatty>:
_isatty():
    5584:	05800793          	li	a5,88
    5588:	94f1aa23          	sw	a5,-1708(gp) # 200001c4 <errno>
    558c:	4501                	li	a0,0
    558e:	8082                	ret

00005590 <_kill>:
_kill():
    5590:	05800793          	li	a5,88
    5594:	94f1aa23          	sw	a5,-1708(gp) # 200001c4 <errno>
    5598:	557d                	li	a0,-1
    559a:	8082                	ret

0000559c <_lseek>:
_lseek():
    559c:	05800793          	li	a5,88
    55a0:	94f1aa23          	sw	a5,-1708(gp) # 200001c4 <errno>
    55a4:	557d                	li	a0,-1
    55a6:	8082                	ret

000055a8 <_read>:
_read():
    55a8:	05800793          	li	a5,88
    55ac:	94f1aa23          	sw	a5,-1708(gp) # 200001c4 <errno>
    55b0:	557d                	li	a0,-1
    55b2:	8082                	ret

000055b4 <_sbrk>:
_sbrk():
    55b4:	8f418793          	addi	a5,gp,-1804 # 20000164 <heap_end.1518>
    55b8:	439c                	lw	a5,0(a5)
    55ba:	c791                	beqz	a5,55c6 <_sbrk+0x12>
    55bc:	953e                	add	a0,a0,a5
    55be:	8ea1aa23          	sw	a0,-1804(gp) # 20000164 <heap_end.1518>
    55c2:	853e                	mv	a0,a5
    55c4:	8082                	ret
    55c6:	95818793          	addi	a5,gp,-1704 # 200001c8 <_ebss>
    55ca:	953e                	add	a0,a0,a5
    55cc:	8ea1aa23          	sw	a0,-1804(gp) # 20000164 <heap_end.1518>
    55d0:	853e                	mv	a0,a5
    55d2:	8082                	ret

000055d4 <_exit>:
_exit():
    55d4:	a001                	j	55d4 <_exit>
	...

000055d8 <__func__.3213>:
    55d8:	636c 5f64 6573 5f74 6572 6967 6e6f 0000     lcd_set_region..
    55e8:	4654 5f54 5f58 414d 3e58 5f78 7473 7261     TFT_X_MAX>x_star
    55f8:	0074 0000 2e2e 4c2f 6269 6172 6972 7365     t...../Libraries
    5608:	732f 6565 666b 6572 5f65 6570 6972 6870     /seekfree_periph
    5618:	7265 6c61 532f 4545 464b 4552 5f45 3831     eral/SEEKFREE_18
    5628:	4654 2e54 0063 0000 4654 5f54 5f59 414d     TFT.c...TFT_Y_MA
    5638:	3e58 5f79 7473 7261 0074 0000 4654 5f54     X>y_start...TFT_
    5648:	5f58 414d 3e58 5f78 6e65 0064 4654 5f54     X_MAX>x_end.TFT_
    5658:	5f59 414d 3e58 5f79 6e65 0064               Y_MAX>y_end.

00005664 <tft_ascii>:
	...
    5674:	0000 0800 0808 0808 0808 0000 0808 0000     ................
    5684:	4800 2424 0012 0000 0000 0000 0000 0000     .H$$............
    5694:	0000 4800 4848 247e 2424 247e 2424 0000     ...HHH~$$$~$$$..
    56a4:	0000 3c10 5252 1c12 5030 5250 3c52 1010     ...<RR..0PPRR<..
    56b4:	0000 2200 1525 0d15 582a 5454 2252 0000     ..."%...*XTTR"..
    56c4:	0000 0c00 1212 0a12 2576 1929 6e91 0000     ........v%)..n..
    56d4:	0600 0404 0002 0000 0000 0000 0000 0000     ................
    56e4:	4000 1020 0810 0808 0808 1008 2010 0040     .@ .......... @.
    56f4:	0200 0804 1008 1010 1010 0810 0408 0002     ................
    5704:	0000 0000 0808 1c6b 6b1c 0808 0000 0000     ......k..k......
    5714:	0000 0000 1000 1010 10fe 1010 0000 0000     ................
	...
    5730:	0406 0204 0000 0000 0000 0000 007e 0000     ............~...
	...
    5750:	0606 0000 0000 2040 2020 1010 0808 0408     ......@   ......
    5760:	0204 0002 0000 1800 4224 4242 4242 4242     ........$BBBBBBB
    5770:	1824 0000 0000 1000 101c 1010 1010 1010     $...............
    5780:	7c10 0000 0000 3c00 4242 4042 1020 0408     .|.....<BBB@ ...
    5790:	7e42 0000 0000 3c00 4242 2040 2018 4240     B~.....<BB@ . @B
    57a0:	3c42 0000 0000 2000 3030 2428 2224 20fe     B<..... 00($$". 
    57b0:	f820 0000 0000 7e00 0202 1e02 4022 4240      ......~...."@@B
    57c0:	1c22 0000 0000 1800 0224 3a02 4246 4242     ".......$..:FBBB
    57d0:	3844 0000 0000 7e00 2042 1020 0810 0808     D8.....~B  .....
    57e0:	0808 0000 0000 3c00 4242 2442 2418 4242     .......<BBB$.$BB
    57f0:	3c42 0000 0000 1c00 4222 4242 5c62 4040     B<......"BBBb\@@
    5800:	1824 0000 0000 0000 0000 1818 0000 0000     $...............
    5810:	1818 0000 0000 0000 0000 0800 0000 0000     ................
    5820:	0800 0808 0000 4000 1020 0408 0402 1008     .......@ .......
    5830:	4020 0000 0000 0000 0000 007e 7e00 0000      @........~..~..
    5840:	0000 0000 0000 0200 0804 2010 2040 0810     ........... @ ..
    5850:	0204 0000 0000 3c00 4242 2046 1010 0010     .......<BBF ....
    5860:	1818 0000 0000 1c00 5a22 5555 5555 3a55     ........"ZUUUUU:
    5870:	3c42 0000 0000 0800 1808 1414 3c24 4222     B<..........$<"B
    5880:	e742 0000 0000 1f00 2222 1e22 4222 4242     B......."""."BBB
    5890:	1f22 0000 0000 7c00 4242 0101 0101 4201     "......|BB.....B
    58a0:	1c22 0000 0000 1f00 4222 4242 4242 4242     "......."BBBBBBB
    58b0:	1f22 0000 0000 3f00 1242 1e12 1212 4202     "......?B......B
    58c0:	3f42 0000 0000 3f00 1242 1e12 1212 0202     B?.....?B.......
    58d0:	0702 0000 0000 3c00 2222 0101 7101 2221     .......<""...q!"
    58e0:	1c22 0000 0000 e700 4242 4242 427e 4242     ".......BBBB~BBB
    58f0:	e742 0000 0000 3e00 0808 0808 0808 0808     B......>........
    5900:	3e08 0000 0000 7c00 1010 1010 1010 1010     .>.....|........
    5910:	1010 0f11 0000 7700 1222 0e0a 120a 2212     .......w"......"
    5920:	7722 0000 0000 0700 0202 0202 0202 0202     "w..............
    5930:	7f42 0000 0000 7700 3636 3636 2a36 2a2a     B......w66666***
    5940:	6b2a 0000 0000 e300 4646 4a4a 5252 6252     *k......FFJJRRRb
    5950:	4762 0000 0000 1c00 4122 4141 4141 4141     bG......"AAAAAAA
    5960:	1c22 0000 0000 3f00 4242 4242 023e 0202     "......?BBBB>...
    5970:	0702 0000 0000 1c00 4122 4141 4141 4d41     ........"AAAAAAM
    5980:	1c32 0060 0000 3f00 4242 3e42 1212 2222     2.`....?BBB>..""
    5990:	c742 0000 0000 7c00 4242 0402 2018 4240     B......|BB... @B
    59a0:	3e42 0000 0000 7f00 0849 0808 0808 0808     B>......I.......
    59b0:	1c08 0000 0000 e700 4242 4242 4242 4242     ........BBBBBBBB
    59c0:	3c42 0000 0000 e700 4242 2422 1424 1814     B<......BB"$$...
    59d0:	0808 0000 0000 6b00 2a2a 2a2a 362a 1414     .......k*****6..
    59e0:	1414 0000 0000 e700 2442 1824 1818 2424     ........B$$...$$
    59f0:	e742 0000 0000 7700 2222 1414 0808 0808     B......w""......
    5a00:	1c08 0000 0000 7e00 2021 1010 0408 4204     .......~! .....B
    5a10:	3f42 0000 7800 0808 0808 0808 0808 0808     B?...x..........
    5a20:	0808 0078 0000 0402 0404 0808 1008 2010     ..x............ 
    5a30:	2020 4040 1e00 1010 1010 1010 1010 1010       @@............
    5a40:	1010 001e 1800 0024 0000 0000 0000 0000     ......$.........
	...
    5a60:	0000 ff00 0600 0008 0000 0000 0000 0000     ................
	...
    5a78:	0000 1c00 3022 222c 6c32 0000 0000 0000     ...."0,"2l......
    5a88:	0203 1a02 4226 4242 1a26 0000 0000 0000     ....&BBB&.......
    5a98:	0000 3800 0244 0202 3844 0000 0000 0000     ...8D...D8......
    5aa8:	4060 7c40 4242 4242 dc62 0000 0000 0000     `@@|BBBBb.......
    5ab8:	0000 3c00 4242 027e 3c42 0000 0000 0000     ...<BB~.B<......
    5ac8:	4830 3e08 0808 0808 3e08 0000 0000 0000     0H.>.....>......
    5ad8:	0000 7c00 2222 021c 423c 3c42 0000 0000     ...|""..<BB<....
    5ae8:	0203 3a02 4246 4242 e742 0000 0000 0c00     ...:FBBBB.......
    5af8:	000c 0e00 0808 0808 3e08 0000 0000 3000     .........>.....0
    5b08:	0030 3800 2020 2020 2020 1e22 0000 0000     0..8      ".....
    5b18:	0203 7202 0a12 120e 7722 0000 0000 0800     ...r...."w......
    5b28:	080e 0808 0808 0808 3e08 0000 0000 0000     .........>......
    5b38:	0000 7f00 9292 9292 b792 0000 0000 0000     ................
    5b48:	0000 3b00 4246 4242 e742 0000 0000 0000     ...;FBBBB.......
    5b58:	0000 3c00 4242 4242 3c42 0000 0000 0000     ...<BBBBB<......
    5b68:	0000 1b00 4226 4242 1a26 0702 0000 0000     ....&BBB&.......
    5b78:	0000 5800 4264 4242 5864 e040 0000 0000     ...XdBBBdX@.....
    5b88:	0000 7700 044c 0404 1f04 0000 0000 0000     ...wL...........
    5b98:	0000 7c00 0242 403c 3e42 0000 0000 0000     ...|B.<@B>......
    5ba8:	0800 3e08 0808 0808 3048 0000 0000 0000     ...>....H0......
    5bb8:	0000 6300 4242 4242 dc62 0000 0000 0000     ...cBBBBb.......
    5bc8:	0000 7700 2222 1414 0808 0000 0000 0000     ...w""..........
    5bd8:	0000 db00 5291 2a5a 2424 0000 0000 0000     .....RZ*$$......
    5be8:	0000 6e00 1824 1818 7624 0000 0000 0000     ...n$...$v......
    5bf8:	0000 e700 2442 1824 0818 0608 0000 0000     ....B$$.........
    5c08:	0000 7e00 1022 0808 7e44 0000 c000 2020     ...~"...D~....  
    5c18:	2020 2020 2010 2020 2020 00c0 1010 1010         .     ......
    5c28:	1010 1010 1010 1010 1010 1010 0300 0404     ................
    5c38:	0404 0404 0408 0404 0404 0003 5a04 0020     .............Z .
	...

00005c54 <GPION>:
    5c54:	0800 4001 0c00 4001 1000 4001 1400 4001     ...@...@...@...@

00005c64 <TIMERN>:
    5c64:	2c00 4001 0000 4000 0400 4000 0800 4000     .,.@...@...@...@

00005c74 <__func__.3349>:
    5c74:	7073 5f69 7067 6f69 695f 696e 0074 0000     spi_gpio_init...
    5c84:	0030 0000 2e2e 4c2f 6269 6172 6972 7365     0...../Libraries
    5c94:	732f 6565 666b 6572 5f65 696c 7262 7261     /seekfree_librar
    5ca4:	6569 2f73 667a 735f 6970 632e 0000 0000     ies/zf_spi.c....

00005cb4 <UARTN>:
    5cb4:	3800 4001 4400 4000 4800 4000 4c00 4000     .8.@.D.@.H.@.L.@
    5cc4:	6961 5f6d 3a79 0000 a000 460c a000 c60c     aim_y:.....F....
    5cd4:	e08a ffff dfdc ffff dfdc ffff dfda ffff     ................
    5ce4:	dfe0 ffff dfe0 ffff dfb0 ffff dfda ffff     ................
    5cf4:	dfe0 ffff dfb0 ffff dfe0 ffff dfda ffff     ................
    5d04:	e078 ffff e078 ffff e078 ffff dfb0 ffff     x...x...x.......

00005d14 <__clz_tab>:
    5d14:	0100 0202 0303 0303 0404 0404 0404 0404     ................
    5d24:	0505 0505 0505 0505 0505 0505 0505 0505     ................
    5d34:	0606 0606 0606 0606 0606 0606 0606 0606     ................
    5d44:	0606 0606 0606 0606 0606 0606 0606 0606     ................
    5d54:	0707 0707 0707 0707 0707 0707 0707 0707     ................
    5d64:	0707 0707 0707 0707 0707 0707 0707 0707     ................
    5d74:	0707 0707 0707 0707 0707 0707 0707 0707     ................
    5d84:	0707 0707 0707 0707 0707 0707 0707 0707     ................
    5d94:	0808 0808 0808 0808 0808 0808 0808 0808     ................
    5da4:	0808 0808 0808 0808 0808 0808 0808 0808     ................
    5db4:	0808 0808 0808 0808 0808 0808 0808 0808     ................
    5dc4:	0808 0808 0808 0808 0808 0808 0808 0808     ................
    5dd4:	0808 0808 0808 0808 0808 0808 0808 0808     ................
    5de4:	0808 0808 0808 0808 0808 0808 0808 0808     ................
    5df4:	0808 0808 0808 0808 0808 0808 0808 0808     ................
    5e04:	0808 0808 0808 0808 0808 0808 0808 0808     ................
    5e14:	202c 7566 636e 6974 6e6f 203a 0000 0000     , function: ....
    5e24:	7361 6573 7472 6f69 206e 2522 2273 6620     assertion "%s" f
    5e34:	6961 656c 3a64 6620 6c69 2065 2522 2273     ailed: file "%s"
    5e44:	202c 696c 656e 2520 2564 2573 0a73 0000     , line %d%s%s...
    5e54:	2d23 2b30 0020 0000 6c68 004c 6665 4567     #-0+ ...hlL.efgE
    5e64:	4746 0000 3130 3332 3534 3736 3938 4241     FG..0123456789AB
    5e74:	4443 4645 0000 0000 3130 3332 3534 3736     CDEF....01234567
    5e84:	3938 6261 6463 6665 0000 0000               89abcdef....

00005e90 <__sf_fake_stderr>:
	...

00005eb0 <__sf_fake_stdin>:
	...

00005ed0 <__sf_fake_stdout>:
	...
